
Robotics_Arm_Brushed_firmware.elf:     file format elf32-littlearm

Sections:
Idx Name          Size      VMA       LMA       File off  Algn
  0 .isr_vector   000001d8  08000000  08000000  00001000  2**0
                  CONTENTS, ALLOC, LOAD, READONLY, DATA
  1 .text         000080cc  080001d8  080001d8  000011d8  2**3
                  CONTENTS, ALLOC, LOAD, READONLY, CODE
  2 .rodata       00000030  080082a8  080082a8  000092a8  2**3
                  CONTENTS, ALLOC, LOAD, READONLY, DATA
  3 .ARM.extab    00000000  080082d8  080082d8  0000a064  2**0
                  CONTENTS, READONLY
  4 .ARM          00000000  080082d8  080082d8  0000a064  2**0
                  CONTENTS, READONLY
  5 .preinit_array 00000000  080082d8  080082d8  0000a064  2**0
                  CONTENTS, ALLOC, LOAD, DATA
  6 .init_array   00000004  080082d8  080082d8  000092d8  2**2
                  CONTENTS, ALLOC, LOAD, READONLY, DATA
  7 .fini_array   00000004  080082dc  080082dc  000092dc  2**2
                  CONTENTS, ALLOC, LOAD, READONLY, DATA
  8 .data         00000064  20000000  080082e0  0000a000  2**2
                  CONTENTS, ALLOC, LOAD, DATA
  9 .bss          00000810  20000064  08008344  0000a064  2**2
                  ALLOC
 10 ._user_heap_stack 00000604  20000874  08008344  0000a874  2**0
                  ALLOC
 11 .ARM.attributes 00000030  00000000  00000000  0000a064  2**0
                  CONTENTS, READONLY
 12 .debug_info   0001d546  00000000  00000000  0000a094  2**0
                  CONTENTS, READONLY, DEBUGGING, OCTETS
 13 .debug_abbrev 00003c34  00000000  00000000  000275da  2**0
                  CONTENTS, READONLY, DEBUGGING, OCTETS
 14 .debug_aranges 00001a80  00000000  00000000  0002b210  2**3
                  CONTENTS, READONLY, DEBUGGING, OCTETS
 15 .debug_rnglists 00001475  00000000  00000000  0002cc90  2**0
                  CONTENTS, READONLY, DEBUGGING, OCTETS
 16 .debug_macro  0002b4fb  00000000  00000000  0002e105  2**0
                  CONTENTS, READONLY, DEBUGGING, OCTETS
 17 .debug_line   0001f4e7  00000000  00000000  00059600  2**0
                  CONTENTS, READONLY, DEBUGGING, OCTETS
 18 .debug_str    0011994f  00000000  00000000  00078ae7  2**0
                  CONTENTS, READONLY, DEBUGGING, OCTETS
 19 .comment      00000043  00000000  00000000  00192436  2**0
                  CONTENTS, READONLY
 20 .debug_frame  0000762c  00000000  00000000  0019247c  2**2
                  CONTENTS, READONLY, DEBUGGING, OCTETS
 21 .debug_line_str 00000095  00000000  00000000  00199aa8  2**0
                  CONTENTS, READONLY, DEBUGGING, OCTETS

Disassembly of section .text:

080001d8 <__do_global_dtors_aux>:
 80001d8:	b510      	push	{r4, lr}
 80001da:	4c05      	ldr	r4, [pc, #20]	@ (80001f0 <__do_global_dtors_aux+0x18>)
 80001dc:	7823      	ldrb	r3, [r4, #0]
 80001de:	b933      	cbnz	r3, 80001ee <__do_global_dtors_aux+0x16>
 80001e0:	4b04      	ldr	r3, [pc, #16]	@ (80001f4 <__do_global_dtors_aux+0x1c>)
 80001e2:	b113      	cbz	r3, 80001ea <__do_global_dtors_aux+0x12>
 80001e4:	4804      	ldr	r0, [pc, #16]	@ (80001f8 <__do_global_dtors_aux+0x20>)
 80001e6:	f3af 8000 	nop.w
 80001ea:	2301      	movs	r3, #1
 80001ec:	7023      	strb	r3, [r4, #0]
 80001ee:	bd10      	pop	{r4, pc}
 80001f0:	20000064 	.word	0x20000064
 80001f4:	00000000 	.word	0x00000000
 80001f8:	0800828c 	.word	0x0800828c

080001fc <frame_dummy>:
 80001fc:	b508      	push	{r3, lr}
 80001fe:	4b03      	ldr	r3, [pc, #12]	@ (800020c <frame_dummy+0x10>)
 8000200:	b11b      	cbz	r3, 800020a <frame_dummy+0xe>
 8000202:	4903      	ldr	r1, [pc, #12]	@ (8000210 <frame_dummy+0x14>)
 8000204:	4803      	ldr	r0, [pc, #12]	@ (8000214 <frame_dummy+0x18>)
 8000206:	f3af 8000 	nop.w
 800020a:	bd08      	pop	{r3, pc}
 800020c:	00000000 	.word	0x00000000
 8000210:	20000068 	.word	0x20000068
 8000214:	0800828c 	.word	0x0800828c

08000218 <__aeabi_drsub>:
 8000218:	f081 4100 	eor.w	r1, r1, #2147483648	@ 0x80000000
 800021c:	e002      	b.n	8000224 <__adddf3>
 800021e:	bf00      	nop

08000220 <__aeabi_dsub>:
 8000220:	f083 4300 	eor.w	r3, r3, #2147483648	@ 0x80000000

08000224 <__adddf3>:
 8000224:	b530      	push	{r4, r5, lr}
 8000226:	ea4f 0441 	mov.w	r4, r1, lsl #1
 800022a:	ea4f 0543 	mov.w	r5, r3, lsl #1
 800022e:	ea94 0f05 	teq	r4, r5
 8000232:	bf08      	it	eq
 8000234:	ea90 0f02 	teqeq	r0, r2
 8000238:	bf1f      	itttt	ne
 800023a:	ea54 0c00 	orrsne.w	ip, r4, r0
 800023e:	ea55 0c02 	orrsne.w	ip, r5, r2
 8000242:	ea7f 5c64 	mvnsne.w	ip, r4, asr #21
 8000246:	ea7f 5c65 	mvnsne.w	ip, r5, asr #21
 800024a:	f000 80e2 	beq.w	8000412 <__adddf3+0x1ee>
 800024e:	ea4f 5454 	mov.w	r4, r4, lsr #21
 8000252:	ebd4 5555 	rsbs	r5, r4, r5, lsr #21
 8000256:	bfb8      	it	lt
 8000258:	426d      	neglt	r5, r5
 800025a:	dd0c      	ble.n	8000276 <__adddf3+0x52>
 800025c:	442c      	add	r4, r5
 800025e:	ea80 0202 	eor.w	r2, r0, r2
 8000262:	ea81 0303 	eor.w	r3, r1, r3
 8000266:	ea82 0000 	eor.w	r0, r2, r0
 800026a:	ea83 0101 	eor.w	r1, r3, r1
 800026e:	ea80 0202 	eor.w	r2, r0, r2
 8000272:	ea81 0303 	eor.w	r3, r1, r3
 8000276:	2d36      	cmp	r5, #54	@ 0x36
 8000278:	bf88      	it	hi
 800027a:	bd30      	pophi	{r4, r5, pc}
 800027c:	f011 4f00 	tst.w	r1, #2147483648	@ 0x80000000
 8000280:	ea4f 3101 	mov.w	r1, r1, lsl #12
 8000284:	f44f 1c80 	mov.w	ip, #1048576	@ 0x100000
 8000288:	ea4c 3111 	orr.w	r1, ip, r1, lsr #12
 800028c:	d002      	beq.n	8000294 <__adddf3+0x70>
 800028e:	4240      	negs	r0, r0
 8000290:	eb61 0141 	sbc.w	r1, r1, r1, lsl #1
 8000294:	f013 4f00 	tst.w	r3, #2147483648	@ 0x80000000
 8000298:	ea4f 3303 	mov.w	r3, r3, lsl #12
 800029c:	ea4c 3313 	orr.w	r3, ip, r3, lsr #12
 80002a0:	d002      	beq.n	80002a8 <__adddf3+0x84>
 80002a2:	4252      	negs	r2, r2
 80002a4:	eb63 0343 	sbc.w	r3, r3, r3, lsl #1
 80002a8:	ea94 0f05 	teq	r4, r5
 80002ac:	f000 80a7 	beq.w	80003fe <__adddf3+0x1da>
 80002b0:	f1a4 0401 	sub.w	r4, r4, #1
 80002b4:	f1d5 0e20 	rsbs	lr, r5, #32
 80002b8:	db0d      	blt.n	80002d6 <__adddf3+0xb2>
 80002ba:	fa02 fc0e 	lsl.w	ip, r2, lr
 80002be:	fa22 f205 	lsr.w	r2, r2, r5
 80002c2:	1880      	adds	r0, r0, r2
 80002c4:	f141 0100 	adc.w	r1, r1, #0
 80002c8:	fa03 f20e 	lsl.w	r2, r3, lr
 80002cc:	1880      	adds	r0, r0, r2
 80002ce:	fa43 f305 	asr.w	r3, r3, r5
 80002d2:	4159      	adcs	r1, r3
 80002d4:	e00e      	b.n	80002f4 <__adddf3+0xd0>
 80002d6:	f1a5 0520 	sub.w	r5, r5, #32
 80002da:	f10e 0e20 	add.w	lr, lr, #32
 80002de:	2a01      	cmp	r2, #1
 80002e0:	fa03 fc0e 	lsl.w	ip, r3, lr
 80002e4:	bf28      	it	cs
 80002e6:	f04c 0c02 	orrcs.w	ip, ip, #2
 80002ea:	fa43 f305 	asr.w	r3, r3, r5
 80002ee:	18c0      	adds	r0, r0, r3
 80002f0:	eb51 71e3 	adcs.w	r1, r1, r3, asr #31
 80002f4:	f001 4500 	and.w	r5, r1, #2147483648	@ 0x80000000
 80002f8:	d507      	bpl.n	800030a <__adddf3+0xe6>
 80002fa:	f04f 0e00 	mov.w	lr, #0
 80002fe:	f1dc 0c00 	rsbs	ip, ip, #0
 8000302:	eb7e 0000 	sbcs.w	r0, lr, r0
 8000306:	eb6e 0101 	sbc.w	r1, lr, r1
 800030a:	f5b1 1f80 	cmp.w	r1, #1048576	@ 0x100000
 800030e:	d31b      	bcc.n	8000348 <__adddf3+0x124>
 8000310:	f5b1 1f00 	cmp.w	r1, #2097152	@ 0x200000
 8000314:	d30c      	bcc.n	8000330 <__adddf3+0x10c>
 8000316:	0849      	lsrs	r1, r1, #1
 8000318:	ea5f 0030 	movs.w	r0, r0, rrx
 800031c:	ea4f 0c3c 	mov.w	ip, ip, rrx
 8000320:	f104 0401 	add.w	r4, r4, #1
 8000324:	ea4f 5244 	mov.w	r2, r4, lsl #21
 8000328:	f512 0f80 	cmn.w	r2, #4194304	@ 0x400000
 800032c:	f080 809a 	bcs.w	8000464 <__adddf3+0x240>
 8000330:	f1bc 4f00 	cmp.w	ip, #2147483648	@ 0x80000000
 8000334:	bf08      	it	eq
 8000336:	ea5f 0c50 	movseq.w	ip, r0, lsr #1
 800033a:	f150 0000 	adcs.w	r0, r0, #0
 800033e:	eb41 5104 	adc.w	r1, r1, r4, lsl #20
 8000342:	ea41 0105 	orr.w	r1, r1, r5
 8000346:	bd30      	pop	{r4, r5, pc}
 8000348:	ea5f 0c4c 	movs.w	ip, ip, lsl #1
 800034c:	4140      	adcs	r0, r0
 800034e:	eb41 0101 	adc.w	r1, r1, r1
 8000352:	3c01      	subs	r4, #1
 8000354:	bf28      	it	cs
 8000356:	f5b1 1f80 	cmpcs.w	r1, #1048576	@ 0x100000
 800035a:	d2e9      	bcs.n	8000330 <__adddf3+0x10c>
 800035c:	f091 0f00 	teq	r1, #0
 8000360:	bf04      	itt	eq
 8000362:	4601      	moveq	r1, r0
 8000364:	2000      	moveq	r0, #0
 8000366:	fab1 f381 	clz	r3, r1
 800036a:	bf08      	it	eq
 800036c:	3320      	addeq	r3, #32
 800036e:	f1a3 030b 	sub.w	r3, r3, #11
 8000372:	f1b3 0220 	subs.w	r2, r3, #32
 8000376:	da0c      	bge.n	8000392 <__adddf3+0x16e>
 8000378:	320c      	adds	r2, #12
 800037a:	dd08      	ble.n	800038e <__adddf3+0x16a>
 800037c:	f102 0c14 	add.w	ip, r2, #20
 8000380:	f1c2 020c 	rsb	r2, r2, #12
 8000384:	fa01 f00c 	lsl.w	r0, r1, ip
 8000388:	fa21 f102 	lsr.w	r1, r1, r2
 800038c:	e00c      	b.n	80003a8 <__adddf3+0x184>
 800038e:	f102 0214 	add.w	r2, r2, #20
 8000392:	bfd8      	it	le
 8000394:	f1c2 0c20 	rsble	ip, r2, #32
 8000398:	fa01 f102 	lsl.w	r1, r1, r2
 800039c:	fa20 fc0c 	lsr.w	ip, r0, ip
 80003a0:	bfdc      	itt	le
 80003a2:	ea41 010c 	orrle.w	r1, r1, ip
 80003a6:	4090      	lslle	r0, r2
 80003a8:	1ae4      	subs	r4, r4, r3
 80003aa:	bfa2      	ittt	ge
 80003ac:	eb01 5104 	addge.w	r1, r1, r4, lsl #20
 80003b0:	4329      	orrge	r1, r5
 80003b2:	bd30      	popge	{r4, r5, pc}
 80003b4:	ea6f 0404 	mvn.w	r4, r4
 80003b8:	3c1f      	subs	r4, #31
 80003ba:	da1c      	bge.n	80003f6 <__adddf3+0x1d2>
 80003bc:	340c      	adds	r4, #12
 80003be:	dc0e      	bgt.n	80003de <__adddf3+0x1ba>
 80003c0:	f104 0414 	add.w	r4, r4, #20
 80003c4:	f1c4 0220 	rsb	r2, r4, #32
 80003c8:	fa20 f004 	lsr.w	r0, r0, r4
 80003cc:	fa01 f302 	lsl.w	r3, r1, r2
 80003d0:	ea40 0003 	orr.w	r0, r0, r3
 80003d4:	fa21 f304 	lsr.w	r3, r1, r4
 80003d8:	ea45 0103 	orr.w	r1, r5, r3
 80003dc:	bd30      	pop	{r4, r5, pc}
 80003de:	f1c4 040c 	rsb	r4, r4, #12
 80003e2:	f1c4 0220 	rsb	r2, r4, #32
 80003e6:	fa20 f002 	lsr.w	r0, r0, r2
 80003ea:	fa01 f304 	lsl.w	r3, r1, r4
 80003ee:	ea40 0003 	orr.w	r0, r0, r3
 80003f2:	4629      	mov	r1, r5
 80003f4:	bd30      	pop	{r4, r5, pc}
 80003f6:	fa21 f004 	lsr.w	r0, r1, r4
 80003fa:	4629      	mov	r1, r5
 80003fc:	bd30      	pop	{r4, r5, pc}
 80003fe:	f094 0f00 	teq	r4, #0
 8000402:	f483 1380 	eor.w	r3, r3, #1048576	@ 0x100000
 8000406:	bf06      	itte	eq
 8000408:	f481 1180 	eoreq.w	r1, r1, #1048576	@ 0x100000
 800040c:	3401      	addeq	r4, #1
 800040e:	3d01      	subne	r5, #1
 8000410:	e74e      	b.n	80002b0 <__adddf3+0x8c>
 8000412:	ea7f 5c64 	mvns.w	ip, r4, asr #21
 8000416:	bf18      	it	ne
 8000418:	ea7f 5c65 	mvnsne.w	ip, r5, asr #21
 800041c:	d029      	beq.n	8000472 <__adddf3+0x24e>
 800041e:	ea94 0f05 	teq	r4, r5
 8000422:	bf08      	it	eq
 8000424:	ea90 0f02 	teqeq	r0, r2
 8000428:	d005      	beq.n	8000436 <__adddf3+0x212>
 800042a:	ea54 0c00 	orrs.w	ip, r4, r0
 800042e:	bf04      	itt	eq
 8000430:	4619      	moveq	r1, r3
 8000432:	4610      	moveq	r0, r2
 8000434:	bd30      	pop	{r4, r5, pc}
 8000436:	ea91 0f03 	teq	r1, r3
 800043a:	bf1e      	ittt	ne
 800043c:	2100      	movne	r1, #0
 800043e:	2000      	movne	r0, #0
 8000440:	bd30      	popne	{r4, r5, pc}
 8000442:	ea5f 5c54 	movs.w	ip, r4, lsr #21
 8000446:	d105      	bne.n	8000454 <__adddf3+0x230>
 8000448:	0040      	lsls	r0, r0, #1
 800044a:	4149      	adcs	r1, r1
 800044c:	bf28      	it	cs
 800044e:	f041 4100 	orrcs.w	r1, r1, #2147483648	@ 0x80000000
 8000452:	bd30      	pop	{r4, r5, pc}
 8000454:	f514 0480 	adds.w	r4, r4, #4194304	@ 0x400000
 8000458:	bf3c      	itt	cc
 800045a:	f501 1180 	addcc.w	r1, r1, #1048576	@ 0x100000
 800045e:	bd30      	popcc	{r4, r5, pc}
 8000460:	f001 4500 	and.w	r5, r1, #2147483648	@ 0x80000000
 8000464:	f045 41fe 	orr.w	r1, r5, #2130706432	@ 0x7f000000
 8000468:	f441 0170 	orr.w	r1, r1, #15728640	@ 0xf00000
 800046c:	f04f 0000 	mov.w	r0, #0
 8000470:	bd30      	pop	{r4, r5, pc}
 8000472:	ea7f 5c64 	mvns.w	ip, r4, asr #21
 8000476:	bf1a      	itte	ne
 8000478:	4619      	movne	r1, r3
 800047a:	4610      	movne	r0, r2
 800047c:	ea7f 5c65 	mvnseq.w	ip, r5, asr #21
 8000480:	bf1c      	itt	ne
 8000482:	460b      	movne	r3, r1
 8000484:	4602      	movne	r2, r0
 8000486:	ea50 3401 	orrs.w	r4, r0, r1, lsl #12
 800048a:	bf06      	itte	eq
 800048c:	ea52 3503 	orrseq.w	r5, r2, r3, lsl #12
 8000490:	ea91 0f03 	teqeq	r1, r3
 8000494:	f441 2100 	orrne.w	r1, r1, #524288	@ 0x80000
 8000498:	bd30      	pop	{r4, r5, pc}
 800049a:	bf00      	nop

0800049c <__aeabi_ui2d>:
 800049c:	f090 0f00 	teq	r0, #0
 80004a0:	bf04      	itt	eq
 80004a2:	2100      	moveq	r1, #0
 80004a4:	4770      	bxeq	lr
 80004a6:	b530      	push	{r4, r5, lr}
 80004a8:	f44f 6480 	mov.w	r4, #1024	@ 0x400
 80004ac:	f104 0432 	add.w	r4, r4, #50	@ 0x32
 80004b0:	f04f 0500 	mov.w	r5, #0
 80004b4:	f04f 0100 	mov.w	r1, #0
 80004b8:	e750      	b.n	800035c <__adddf3+0x138>
 80004ba:	bf00      	nop

080004bc <__aeabi_i2d>:
 80004bc:	f090 0f00 	teq	r0, #0
 80004c0:	bf04      	itt	eq
 80004c2:	2100      	moveq	r1, #0
 80004c4:	4770      	bxeq	lr
 80004c6:	b530      	push	{r4, r5, lr}
 80004c8:	f44f 6480 	mov.w	r4, #1024	@ 0x400
 80004cc:	f104 0432 	add.w	r4, r4, #50	@ 0x32
 80004d0:	f010 4500 	ands.w	r5, r0, #2147483648	@ 0x80000000
 80004d4:	bf48      	it	mi
 80004d6:	4240      	negmi	r0, r0
 80004d8:	f04f 0100 	mov.w	r1, #0
 80004dc:	e73e      	b.n	800035c <__adddf3+0x138>
 80004de:	bf00      	nop

080004e0 <__aeabi_f2d>:
 80004e0:	0042      	lsls	r2, r0, #1
 80004e2:	ea4f 01e2 	mov.w	r1, r2, asr #3
 80004e6:	ea4f 0131 	mov.w	r1, r1, rrx
 80004ea:	ea4f 7002 	mov.w	r0, r2, lsl #28
 80004ee:	bf1f      	itttt	ne
 80004f0:	f012 437f 	andsne.w	r3, r2, #4278190080	@ 0xff000000
 80004f4:	f093 4f7f 	teqne	r3, #4278190080	@ 0xff000000
 80004f8:	f081 5160 	eorne.w	r1, r1, #939524096	@ 0x38000000
 80004fc:	4770      	bxne	lr
 80004fe:	f032 427f 	bics.w	r2, r2, #4278190080	@ 0xff000000
 8000502:	bf08      	it	eq
 8000504:	4770      	bxeq	lr
 8000506:	f093 4f7f 	teq	r3, #4278190080	@ 0xff000000
 800050a:	bf04      	itt	eq
 800050c:	f441 2100 	orreq.w	r1, r1, #524288	@ 0x80000
 8000510:	4770      	bxeq	lr
 8000512:	b530      	push	{r4, r5, lr}
 8000514:	f44f 7460 	mov.w	r4, #896	@ 0x380
 8000518:	f001 4500 	and.w	r5, r1, #2147483648	@ 0x80000000
 800051c:	f021 4100 	bic.w	r1, r1, #2147483648	@ 0x80000000
 8000520:	e71c      	b.n	800035c <__adddf3+0x138>
 8000522:	bf00      	nop

08000524 <__aeabi_ul2d>:
 8000524:	ea50 0201 	orrs.w	r2, r0, r1
 8000528:	bf08      	it	eq
 800052a:	4770      	bxeq	lr
 800052c:	b530      	push	{r4, r5, lr}
 800052e:	f04f 0500 	mov.w	r5, #0
 8000532:	e00a      	b.n	800054a <__aeabi_l2d+0x16>

08000534 <__aeabi_l2d>:
 8000534:	ea50 0201 	orrs.w	r2, r0, r1
 8000538:	bf08      	it	eq
 800053a:	4770      	bxeq	lr
 800053c:	b530      	push	{r4, r5, lr}
 800053e:	f011 4500 	ands.w	r5, r1, #2147483648	@ 0x80000000
 8000542:	d502      	bpl.n	800054a <__aeabi_l2d+0x16>
 8000544:	4240      	negs	r0, r0
 8000546:	eb61 0141 	sbc.w	r1, r1, r1, lsl #1
 800054a:	f44f 6480 	mov.w	r4, #1024	@ 0x400
 800054e:	f104 0432 	add.w	r4, r4, #50	@ 0x32
 8000552:	ea5f 5c91 	movs.w	ip, r1, lsr #22
 8000556:	f43f aed8 	beq.w	800030a <__adddf3+0xe6>
 800055a:	f04f 0203 	mov.w	r2, #3
 800055e:	ea5f 0cdc 	movs.w	ip, ip, lsr #3
 8000562:	bf18      	it	ne
 8000564:	3203      	addne	r2, #3
 8000566:	ea5f 0cdc 	movs.w	ip, ip, lsr #3
 800056a:	bf18      	it	ne
 800056c:	3203      	addne	r2, #3
 800056e:	eb02 02dc 	add.w	r2, r2, ip, lsr #3
 8000572:	f1c2 0320 	rsb	r3, r2, #32
 8000576:	fa00 fc03 	lsl.w	ip, r0, r3
 800057a:	fa20 f002 	lsr.w	r0, r0, r2
 800057e:	fa01 fe03 	lsl.w	lr, r1, r3
 8000582:	ea40 000e 	orr.w	r0, r0, lr
 8000586:	fa21 f102 	lsr.w	r1, r1, r2
 800058a:	4414      	add	r4, r2
 800058c:	e6bd      	b.n	800030a <__adddf3+0xe6>
 800058e:	bf00      	nop

08000590 <__aeabi_dmul>:
 8000590:	b570      	push	{r4, r5, r6, lr}
 8000592:	f04f 0cff 	mov.w	ip, #255	@ 0xff
 8000596:	f44c 6ce0 	orr.w	ip, ip, #1792	@ 0x700
 800059a:	ea1c 5411 	ands.w	r4, ip, r1, lsr #20
 800059e:	bf1d      	ittte	ne
 80005a0:	ea1c 5513 	andsne.w	r5, ip, r3, lsr #20
 80005a4:	ea94 0f0c 	teqne	r4, ip
 80005a8:	ea95 0f0c 	teqne	r5, ip
 80005ac:	f000 f8de 	bleq	800076c <__aeabi_dmul+0x1dc>
 80005b0:	442c      	add	r4, r5
 80005b2:	ea81 0603 	eor.w	r6, r1, r3
 80005b6:	ea21 514c 	bic.w	r1, r1, ip, lsl #21
 80005ba:	ea23 534c 	bic.w	r3, r3, ip, lsl #21
 80005be:	ea50 3501 	orrs.w	r5, r0, r1, lsl #12
 80005c2:	bf18      	it	ne
 80005c4:	ea52 3503 	orrsne.w	r5, r2, r3, lsl #12
 80005c8:	f441 1180 	orr.w	r1, r1, #1048576	@ 0x100000
 80005cc:	f443 1380 	orr.w	r3, r3, #1048576	@ 0x100000
 80005d0:	d038      	beq.n	8000644 <__aeabi_dmul+0xb4>
 80005d2:	fba0 ce02 	umull	ip, lr, r0, r2
 80005d6:	f04f 0500 	mov.w	r5, #0
 80005da:	fbe1 e502 	umlal	lr, r5, r1, r2
 80005de:	f006 4200 	and.w	r2, r6, #2147483648	@ 0x80000000
 80005e2:	fbe0 e503 	umlal	lr, r5, r0, r3
 80005e6:	f04f 0600 	mov.w	r6, #0
 80005ea:	fbe1 5603 	umlal	r5, r6, r1, r3
 80005ee:	f09c 0f00 	teq	ip, #0
 80005f2:	bf18      	it	ne
 80005f4:	f04e 0e01 	orrne.w	lr, lr, #1
 80005f8:	f1a4 04ff 	sub.w	r4, r4, #255	@ 0xff
 80005fc:	f5b6 7f00 	cmp.w	r6, #512	@ 0x200
 8000600:	f564 7440 	sbc.w	r4, r4, #768	@ 0x300
 8000604:	d204      	bcs.n	8000610 <__aeabi_dmul+0x80>
 8000606:	ea5f 0e4e 	movs.w	lr, lr, lsl #1
 800060a:	416d      	adcs	r5, r5
 800060c:	eb46 0606 	adc.w	r6, r6, r6
 8000610:	ea42 21c6 	orr.w	r1, r2, r6, lsl #11
 8000614:	ea41 5155 	orr.w	r1, r1, r5, lsr #21
 8000618:	ea4f 20c5 	mov.w	r0, r5, lsl #11
 800061c:	ea40 505e 	orr.w	r0, r0, lr, lsr #21
 8000620:	ea4f 2ece 	mov.w	lr, lr, lsl #11
 8000624:	f1b4 0cfd 	subs.w	ip, r4, #253	@ 0xfd
 8000628:	bf88      	it	hi
 800062a:	f5bc 6fe0 	cmphi.w	ip, #1792	@ 0x700
 800062e:	d81e      	bhi.n	800066e <__aeabi_dmul+0xde>
 8000630:	f1be 4f00 	cmp.w	lr, #2147483648	@ 0x80000000
 8000634:	bf08      	it	eq
 8000636:	ea5f 0e50 	movseq.w	lr, r0, lsr #1
 800063a:	f150 0000 	adcs.w	r0, r0, #0
 800063e:	eb41 5104 	adc.w	r1, r1, r4, lsl #20
 8000642:	bd70      	pop	{r4, r5, r6, pc}
 8000644:	f006 4600 	and.w	r6, r6, #2147483648	@ 0x80000000
 8000648:	ea46 0101 	orr.w	r1, r6, r1
 800064c:	ea40 0002 	orr.w	r0, r0, r2
 8000650:	ea81 0103 	eor.w	r1, r1, r3
 8000654:	ebb4 045c 	subs.w	r4, r4, ip, lsr #1
 8000658:	bfc2      	ittt	gt
 800065a:	ebd4 050c 	rsbsgt	r5, r4, ip
 800065e:	ea41 5104 	orrgt.w	r1, r1, r4, lsl #20
 8000662:	bd70      	popgt	{r4, r5, r6, pc}
 8000664:	f441 1180 	orr.w	r1, r1, #1048576	@ 0x100000
 8000668:	f04f 0e00 	mov.w	lr, #0
 800066c:	3c01      	subs	r4, #1
 800066e:	f300 80ab 	bgt.w	80007c8 <__aeabi_dmul+0x238>
 8000672:	f114 0f36 	cmn.w	r4, #54	@ 0x36
 8000676:	bfde      	ittt	le
 8000678:	2000      	movle	r0, #0
 800067a:	f001 4100 	andle.w	r1, r1, #2147483648	@ 0x80000000
 800067e:	bd70      	pople	{r4, r5, r6, pc}
 8000680:	f1c4 0400 	rsb	r4, r4, #0
 8000684:	3c20      	subs	r4, #32
 8000686:	da35      	bge.n	80006f4 <__aeabi_dmul+0x164>
 8000688:	340c      	adds	r4, #12
 800068a:	dc1b      	bgt.n	80006c4 <__aeabi_dmul+0x134>
 800068c:	f104 0414 	add.w	r4, r4, #20
 8000690:	f1c4 0520 	rsb	r5, r4, #32
 8000694:	fa00 f305 	lsl.w	r3, r0, r5
 8000698:	fa20 f004 	lsr.w	r0, r0, r4
 800069c:	fa01 f205 	lsl.w	r2, r1, r5
 80006a0:	ea40 0002 	orr.w	r0, r0, r2
 80006a4:	f001 4200 	and.w	r2, r1, #2147483648	@ 0x80000000
 80006a8:	f021 4100 	bic.w	r1, r1, #2147483648	@ 0x80000000
 80006ac:	eb10 70d3 	adds.w	r0, r0, r3, lsr #31
 80006b0:	fa21 f604 	lsr.w	r6, r1, r4
 80006b4:	eb42 0106 	adc.w	r1, r2, r6
 80006b8:	ea5e 0e43 	orrs.w	lr, lr, r3, lsl #1
 80006bc:	bf08      	it	eq
 80006be:	ea20 70d3 	biceq.w	r0, r0, r3, lsr #31
 80006c2:	bd70      	pop	{r4, r5, r6, pc}
 80006c4:	f1c4 040c 	rsb	r4, r4, #12
 80006c8:	f1c4 0520 	rsb	r5, r4, #32
 80006cc:	fa00 f304 	lsl.w	r3, r0, r4
 80006d0:	fa20 f005 	lsr.w	r0, r0, r5
 80006d4:	fa01 f204 	lsl.w	r2, r1, r4
 80006d8:	ea40 0002 	orr.w	r0, r0, r2
 80006dc:	f001 4100 	and.w	r1, r1, #2147483648	@ 0x80000000
 80006e0:	eb10 70d3 	adds.w	r0, r0, r3, lsr #31
 80006e4:	f141 0100 	adc.w	r1, r1, #0
 80006e8:	ea5e 0e43 	orrs.w	lr, lr, r3, lsl #1
 80006ec:	bf08      	it	eq
 80006ee:	ea20 70d3 	biceq.w	r0, r0, r3, lsr #31
 80006f2:	bd70      	pop	{r4, r5, r6, pc}
 80006f4:	f1c4 0520 	rsb	r5, r4, #32
 80006f8:	fa00 f205 	lsl.w	r2, r0, r5
 80006fc:	ea4e 0e02 	orr.w	lr, lr, r2
 8000700:	fa20 f304 	lsr.w	r3, r0, r4
 8000704:	fa01 f205 	lsl.w	r2, r1, r5
 8000708:	ea43 0302 	orr.w	r3, r3, r2
 800070c:	fa21 f004 	lsr.w	r0, r1, r4
 8000710:	f001 4100 	and.w	r1, r1, #2147483648	@ 0x80000000
 8000714:	fa21 f204 	lsr.w	r2, r1, r4
 8000718:	ea20 0002 	bic.w	r0, r0, r2
 800071c:	eb00 70d3 	add.w	r0, r0, r3, lsr #31
 8000720:	ea5e 0e43 	orrs.w	lr, lr, r3, lsl #1
 8000724:	bf08      	it	eq
 8000726:	ea20 70d3 	biceq.w	r0, r0, r3, lsr #31
 800072a:	bd70      	pop	{r4, r5, r6, pc}
 800072c:	f094 0f00 	teq	r4, #0
 8000730:	d10f      	bne.n	8000752 <__aeabi_dmul+0x1c2>
 8000732:	f001 4600 	and.w	r6, r1, #2147483648	@ 0x80000000
 8000736:	0040      	lsls	r0, r0, #1
 8000738:	eb41 0101 	adc.w	r1, r1, r1
 800073c:	f411 1f80 	tst.w	r1, #1048576	@ 0x100000
 8000740:	bf08      	it	eq
 8000742:	3c01      	subeq	r4, #1
 8000744:	d0f7      	beq.n	8000736 <__aeabi_dmul+0x1a6>
 8000746:	ea41 0106 	orr.w	r1, r1, r6
 800074a:	f095 0f00 	teq	r5, #0
 800074e:	bf18      	it	ne
 8000750:	4770      	bxne	lr
 8000752:	f003 4600 	and.w	r6, r3, #2147483648	@ 0x80000000
 8000756:	0052      	lsls	r2, r2, #1
 8000758:	eb43 0303 	adc.w	r3, r3, r3
 800075c:	f413 1f80 	tst.w	r3, #1048576	@ 0x100000
 8000760:	bf08      	it	eq
 8000762:	3d01      	subeq	r5, #1
 8000764:	d0f7      	beq.n	8000756 <__aeabi_dmul+0x1c6>
 8000766:	ea43 0306 	orr.w	r3, r3, r6
 800076a:	4770      	bx	lr
 800076c:	ea94 0f0c 	teq	r4, ip
 8000770:	ea0c 5513 	and.w	r5, ip, r3, lsr #20
 8000774:	bf18      	it	ne
 8000776:	ea95 0f0c 	teqne	r5, ip
 800077a:	d00c      	beq.n	8000796 <__aeabi_dmul+0x206>
 800077c:	ea50 0641 	orrs.w	r6, r0, r1, lsl #1
 8000780:	bf18      	it	ne
 8000782:	ea52 0643 	orrsne.w	r6, r2, r3, lsl #1
 8000786:	d1d1      	bne.n	800072c <__aeabi_dmul+0x19c>
 8000788:	ea81 0103 	eor.w	r1, r1, r3
 800078c:	f001 4100 	and.w	r1, r1, #2147483648	@ 0x80000000
 8000790:	f04f 0000 	mov.w	r0, #0
 8000794:	bd70      	pop	{r4, r5, r6, pc}
 8000796:	ea50 0641 	orrs.w	r6, r0, r1, lsl #1
 800079a:	bf06      	itte	eq
 800079c:	4610      	moveq	r0, r2
 800079e:	4619      	moveq	r1, r3
 80007a0:	ea52 0643 	orrsne.w	r6, r2, r3, lsl #1
 80007a4:	d019      	beq.n	80007da <__aeabi_dmul+0x24a>
 80007a6:	ea94 0f0c 	teq	r4, ip
 80007aa:	d102      	bne.n	80007b2 <__aeabi_dmul+0x222>
 80007ac:	ea50 3601 	orrs.w	r6, r0, r1, lsl #12
 80007b0:	d113      	bne.n	80007da <__aeabi_dmul+0x24a>
 80007b2:	ea95 0f0c 	teq	r5, ip
 80007b6:	d105      	bne.n	80007c4 <__aeabi_dmul+0x234>
 80007b8:	ea52 3603 	orrs.w	r6, r2, r3, lsl #12
 80007bc:	bf1c      	itt	ne
 80007be:	4610      	movne	r0, r2
 80007c0:	4619      	movne	r1, r3
 80007c2:	d10a      	bne.n	80007da <__aeabi_dmul+0x24a>
 80007c4:	ea81 0103 	eor.w	r1, r1, r3
 80007c8:	f001 4100 	and.w	r1, r1, #2147483648	@ 0x80000000
 80007cc:	f041 41fe 	orr.w	r1, r1, #2130706432	@ 0x7f000000
 80007d0:	f441 0170 	orr.w	r1, r1, #15728640	@ 0xf00000
 80007d4:	f04f 0000 	mov.w	r0, #0
 80007d8:	bd70      	pop	{r4, r5, r6, pc}
 80007da:	f041 41fe 	orr.w	r1, r1, #2130706432	@ 0x7f000000
 80007de:	f441 0178 	orr.w	r1, r1, #16252928	@ 0xf80000
 80007e2:	bd70      	pop	{r4, r5, r6, pc}

080007e4 <__aeabi_ddiv>:
 80007e4:	b570      	push	{r4, r5, r6, lr}
 80007e6:	f04f 0cff 	mov.w	ip, #255	@ 0xff
 80007ea:	f44c 6ce0 	orr.w	ip, ip, #1792	@ 0x700
 80007ee:	ea1c 5411 	ands.w	r4, ip, r1, lsr #20
 80007f2:	bf1d      	ittte	ne
 80007f4:	ea1c 5513 	andsne.w	r5, ip, r3, lsr #20
 80007f8:	ea94 0f0c 	teqne	r4, ip
 80007fc:	ea95 0f0c 	teqne	r5, ip
 8000800:	f000 f8a7 	bleq	8000952 <__aeabi_ddiv+0x16e>
 8000804:	eba4 0405 	sub.w	r4, r4, r5
 8000808:	ea81 0e03 	eor.w	lr, r1, r3
 800080c:	ea52 3503 	orrs.w	r5, r2, r3, lsl #12
 8000810:	ea4f 3101 	mov.w	r1, r1, lsl #12
 8000814:	f000 8088 	beq.w	8000928 <__aeabi_ddiv+0x144>
 8000818:	ea4f 3303 	mov.w	r3, r3, lsl #12
 800081c:	f04f 5580 	mov.w	r5, #268435456	@ 0x10000000
 8000820:	ea45 1313 	orr.w	r3, r5, r3, lsr #4
 8000824:	ea43 6312 	orr.w	r3, r3, r2, lsr #24
 8000828:	ea4f 2202 	mov.w	r2, r2, lsl #8
 800082c:	ea45 1511 	orr.w	r5, r5, r1, lsr #4
 8000830:	ea45 6510 	orr.w	r5, r5, r0, lsr #24
 8000834:	ea4f 2600 	mov.w	r6, r0, lsl #8
 8000838:	f00e 4100 	and.w	r1, lr, #2147483648	@ 0x80000000
 800083c:	429d      	cmp	r5, r3
 800083e:	bf08      	it	eq
 8000840:	4296      	cmpeq	r6, r2
 8000842:	f144 04fd 	adc.w	r4, r4, #253	@ 0xfd
 8000846:	f504 7440 	add.w	r4, r4, #768	@ 0x300
 800084a:	d202      	bcs.n	8000852 <__aeabi_ddiv+0x6e>
 800084c:	085b      	lsrs	r3, r3, #1
 800084e:	ea4f 0232 	mov.w	r2, r2, rrx
 8000852:	1ab6      	subs	r6, r6, r2
 8000854:	eb65 0503 	sbc.w	r5, r5, r3
 8000858:	085b      	lsrs	r3, r3, #1
 800085a:	ea4f 0232 	mov.w	r2, r2, rrx
 800085e:	f44f 1080 	mov.w	r0, #1048576	@ 0x100000
 8000862:	f44f 2c00 	mov.w	ip, #524288	@ 0x80000
 8000866:	ebb6 0e02 	subs.w	lr, r6, r2
 800086a:	eb75 0e03 	sbcs.w	lr, r5, r3
 800086e:	bf22      	ittt	cs
 8000870:	1ab6      	subcs	r6, r6, r2
 8000872:	4675      	movcs	r5, lr
 8000874:	ea40 000c 	orrcs.w	r0, r0, ip
 8000878:	085b      	lsrs	r3, r3, #1
 800087a:	ea4f 0232 	mov.w	r2, r2, rrx
 800087e:	ebb6 0e02 	subs.w	lr, r6, r2
 8000882:	eb75 0e03 	sbcs.w	lr, r5, r3
 8000886:	bf22      	ittt	cs
 8000888:	1ab6      	subcs	r6, r6, r2
 800088a:	4675      	movcs	r5, lr
 800088c:	ea40 005c 	orrcs.w	r0, r0, ip, lsr #1
 8000890:	085b      	lsrs	r3, r3, #1
 8000892:	ea4f 0232 	mov.w	r2, r2, rrx
 8000896:	ebb6 0e02 	subs.w	lr, r6, r2
 800089a:	eb75 0e03 	sbcs.w	lr, r5, r3
 800089e:	bf22      	ittt	cs
 80008a0:	1ab6      	subcs	r6, r6, r2
 80008a2:	4675      	movcs	r5, lr
 80008a4:	ea40 009c 	orrcs.w	r0, r0, ip, lsr #2
 80008a8:	085b      	lsrs	r3, r3, #1
 80008aa:	ea4f 0232 	mov.w	r2, r2, rrx
 80008ae:	ebb6 0e02 	subs.w	lr, r6, r2
 80008b2:	eb75 0e03 	sbcs.w	lr, r5, r3
 80008b6:	bf22      	ittt	cs
 80008b8:	1ab6      	subcs	r6, r6, r2
 80008ba:	4675      	movcs	r5, lr
 80008bc:	ea40 00dc 	orrcs.w	r0, r0, ip, lsr #3
 80008c0:	ea55 0e06 	orrs.w	lr, r5, r6
 80008c4:	d018      	beq.n	80008f8 <__aeabi_ddiv+0x114>
 80008c6:	ea4f 1505 	mov.w	r5, r5, lsl #4
 80008ca:	ea45 7516 	orr.w	r5, r5, r6, lsr #28
 80008ce:	ea4f 1606 	mov.w	r6, r6, lsl #4
 80008d2:	ea4f 03c3 	mov.w	r3, r3, lsl #3
 80008d6:	ea43 7352 	orr.w	r3, r3, r2, lsr #29
 80008da:	ea4f 02c2 	mov.w	r2, r2, lsl #3
 80008de:	ea5f 1c1c 	movs.w	ip, ip, lsr #4
 80008e2:	d1c0      	bne.n	8000866 <__aeabi_ddiv+0x82>
 80008e4:	f411 1f80 	tst.w	r1, #1048576	@ 0x100000
 80008e8:	d10b      	bne.n	8000902 <__aeabi_ddiv+0x11e>
 80008ea:	ea41 0100 	orr.w	r1, r1, r0
 80008ee:	f04f 0000 	mov.w	r0, #0
 80008f2:	f04f 4c00 	mov.w	ip, #2147483648	@ 0x80000000
 80008f6:	e7b6      	b.n	8000866 <__aeabi_ddiv+0x82>
 80008f8:	f411 1f80 	tst.w	r1, #1048576	@ 0x100000
 80008fc:	bf04      	itt	eq
 80008fe:	4301      	orreq	r1, r0
 8000900:	2000      	moveq	r0, #0
 8000902:	f1b4 0cfd 	subs.w	ip, r4, #253	@ 0xfd
 8000906:	bf88      	it	hi
 8000908:	f5bc 6fe0 	cmphi.w	ip, #1792	@ 0x700
 800090c:	f63f aeaf 	bhi.w	800066e <__aeabi_dmul+0xde>
 8000910:	ebb5 0c03 	subs.w	ip, r5, r3
 8000914:	bf04      	itt	eq
 8000916:	ebb6 0c02 	subseq.w	ip, r6, r2
 800091a:	ea5f 0c50 	movseq.w	ip, r0, lsr #1
 800091e:	f150 0000 	adcs.w	r0, r0, #0
 8000922:	eb41 5104 	adc.w	r1, r1, r4, lsl #20
 8000926:	bd70      	pop	{r4, r5, r6, pc}
 8000928:	f00e 4e00 	and.w	lr, lr, #2147483648	@ 0x80000000
 800092c:	ea4e 3111 	orr.w	r1, lr, r1, lsr #12
 8000930:	eb14 045c 	adds.w	r4, r4, ip, lsr #1
 8000934:	bfc2      	ittt	gt
 8000936:	ebd4 050c 	rsbsgt	r5, r4, ip
 800093a:	ea41 5104 	orrgt.w	r1, r1, r4, lsl #20
 800093e:	bd70      	popgt	{r4, r5, r6, pc}
 8000940:	f441 1180 	orr.w	r1, r1, #1048576	@ 0x100000
 8000944:	f04f 0e00 	mov.w	lr, #0
 8000948:	3c01      	subs	r4, #1
 800094a:	e690      	b.n	800066e <__aeabi_dmul+0xde>
 800094c:	ea45 0e06 	orr.w	lr, r5, r6
 8000950:	e68d      	b.n	800066e <__aeabi_dmul+0xde>
 8000952:	ea0c 5513 	and.w	r5, ip, r3, lsr #20
 8000956:	ea94 0f0c 	teq	r4, ip
 800095a:	bf08      	it	eq
 800095c:	ea95 0f0c 	teqeq	r5, ip
 8000960:	f43f af3b 	beq.w	80007da <__aeabi_dmul+0x24a>
 8000964:	ea94 0f0c 	teq	r4, ip
 8000968:	d10a      	bne.n	8000980 <__aeabi_ddiv+0x19c>
 800096a:	ea50 3401 	orrs.w	r4, r0, r1, lsl #12
 800096e:	f47f af34 	bne.w	80007da <__aeabi_dmul+0x24a>
 8000972:	ea95 0f0c 	teq	r5, ip
 8000976:	f47f af25 	bne.w	80007c4 <__aeabi_dmul+0x234>
 800097a:	4610      	mov	r0, r2
 800097c:	4619      	mov	r1, r3
 800097e:	e72c      	b.n	80007da <__aeabi_dmul+0x24a>
 8000980:	ea95 0f0c 	teq	r5, ip
 8000984:	d106      	bne.n	8000994 <__aeabi_ddiv+0x1b0>
 8000986:	ea52 3503 	orrs.w	r5, r2, r3, lsl #12
 800098a:	f43f aefd 	beq.w	8000788 <__aeabi_dmul+0x1f8>
 800098e:	4610      	mov	r0, r2
 8000990:	4619      	mov	r1, r3
 8000992:	e722      	b.n	80007da <__aeabi_dmul+0x24a>
 8000994:	ea50 0641 	orrs.w	r6, r0, r1, lsl #1
 8000998:	bf18      	it	ne
 800099a:	ea52 0643 	orrsne.w	r6, r2, r3, lsl #1
 800099e:	f47f aec5 	bne.w	800072c <__aeabi_dmul+0x19c>
 80009a2:	ea50 0441 	orrs.w	r4, r0, r1, lsl #1
 80009a6:	f47f af0d 	bne.w	80007c4 <__aeabi_dmul+0x234>
 80009aa:	ea52 0543 	orrs.w	r5, r2, r3, lsl #1
 80009ae:	f47f aeeb 	bne.w	8000788 <__aeabi_dmul+0x1f8>
 80009b2:	e712      	b.n	80007da <__aeabi_dmul+0x24a>

080009b4 <__gedf2>:
 80009b4:	f04f 3cff 	mov.w	ip, #4294967295
 80009b8:	e006      	b.n	80009c8 <__cmpdf2+0x4>
 80009ba:	bf00      	nop

080009bc <__ledf2>:
 80009bc:	f04f 0c01 	mov.w	ip, #1
 80009c0:	e002      	b.n	80009c8 <__cmpdf2+0x4>
 80009c2:	bf00      	nop

080009c4 <__cmpdf2>:
 80009c4:	f04f 0c01 	mov.w	ip, #1
 80009c8:	f84d cd04 	str.w	ip, [sp, #-4]!
 80009cc:	ea4f 0c41 	mov.w	ip, r1, lsl #1
 80009d0:	ea7f 5c6c 	mvns.w	ip, ip, asr #21
 80009d4:	ea4f 0c43 	mov.w	ip, r3, lsl #1
 80009d8:	bf18      	it	ne
 80009da:	ea7f 5c6c 	mvnsne.w	ip, ip, asr #21
 80009de:	d01b      	beq.n	8000a18 <__cmpdf2+0x54>
 80009e0:	b001      	add	sp, #4
 80009e2:	ea50 0c41 	orrs.w	ip, r0, r1, lsl #1
 80009e6:	bf0c      	ite	eq
 80009e8:	ea52 0c43 	orrseq.w	ip, r2, r3, lsl #1
 80009ec:	ea91 0f03 	teqne	r1, r3
 80009f0:	bf02      	ittt	eq
 80009f2:	ea90 0f02 	teqeq	r0, r2
 80009f6:	2000      	moveq	r0, #0
 80009f8:	4770      	bxeq	lr
 80009fa:	f110 0f00 	cmn.w	r0, #0
 80009fe:	ea91 0f03 	teq	r1, r3
 8000a02:	bf58      	it	pl
 8000a04:	4299      	cmppl	r1, r3
 8000a06:	bf08      	it	eq
 8000a08:	4290      	cmpeq	r0, r2
 8000a0a:	bf2c      	ite	cs
 8000a0c:	17d8      	asrcs	r0, r3, #31
 8000a0e:	ea6f 70e3 	mvncc.w	r0, r3, asr #31
 8000a12:	f040 0001 	orr.w	r0, r0, #1
 8000a16:	4770      	bx	lr
 8000a18:	ea4f 0c41 	mov.w	ip, r1, lsl #1
 8000a1c:	ea7f 5c6c 	mvns.w	ip, ip, asr #21
 8000a20:	d102      	bne.n	8000a28 <__cmpdf2+0x64>
 8000a22:	ea50 3c01 	orrs.w	ip, r0, r1, lsl #12
 8000a26:	d107      	bne.n	8000a38 <__cmpdf2+0x74>
 8000a28:	ea4f 0c43 	mov.w	ip, r3, lsl #1
 8000a2c:	ea7f 5c6c 	mvns.w	ip, ip, asr #21
 8000a30:	d1d6      	bne.n	80009e0 <__cmpdf2+0x1c>
 8000a32:	ea52 3c03 	orrs.w	ip, r2, r3, lsl #12
 8000a36:	d0d3      	beq.n	80009e0 <__cmpdf2+0x1c>
 8000a38:	f85d 0b04 	ldr.w	r0, [sp], #4
 8000a3c:	4770      	bx	lr
 8000a3e:	bf00      	nop

08000a40 <__aeabi_cdrcmple>:
 8000a40:	4684      	mov	ip, r0
 8000a42:	4610      	mov	r0, r2
 8000a44:	4662      	mov	r2, ip
 8000a46:	468c      	mov	ip, r1
 8000a48:	4619      	mov	r1, r3
 8000a4a:	4663      	mov	r3, ip
 8000a4c:	e000      	b.n	8000a50 <__aeabi_cdcmpeq>
 8000a4e:	bf00      	nop

08000a50 <__aeabi_cdcmpeq>:
 8000a50:	b501      	push	{r0, lr}
 8000a52:	f7ff ffb7 	bl	80009c4 <__cmpdf2>
 8000a56:	2800      	cmp	r0, #0
 8000a58:	bf48      	it	mi
 8000a5a:	f110 0f00 	cmnmi.w	r0, #0
 8000a5e:	bd01      	pop	{r0, pc}

08000a60 <__aeabi_dcmpeq>:
 8000a60:	f84d ed08 	str.w	lr, [sp, #-8]!
 8000a64:	f7ff fff4 	bl	8000a50 <__aeabi_cdcmpeq>
 8000a68:	bf0c      	ite	eq
 8000a6a:	2001      	moveq	r0, #1
 8000a6c:	2000      	movne	r0, #0
 8000a6e:	f85d fb08 	ldr.w	pc, [sp], #8
 8000a72:	bf00      	nop

08000a74 <__aeabi_dcmplt>:
 8000a74:	f84d ed08 	str.w	lr, [sp, #-8]!
 8000a78:	f7ff ffea 	bl	8000a50 <__aeabi_cdcmpeq>
 8000a7c:	bf34      	ite	cc
 8000a7e:	2001      	movcc	r0, #1
 8000a80:	2000      	movcs	r0, #0
 8000a82:	f85d fb08 	ldr.w	pc, [sp], #8
 8000a86:	bf00      	nop

08000a88 <__aeabi_dcmple>:
 8000a88:	f84d ed08 	str.w	lr, [sp, #-8]!
 8000a8c:	f7ff ffe0 	bl	8000a50 <__aeabi_cdcmpeq>
 8000a90:	bf94      	ite	ls
 8000a92:	2001      	movls	r0, #1
 8000a94:	2000      	movhi	r0, #0
 8000a96:	f85d fb08 	ldr.w	pc, [sp], #8
 8000a9a:	bf00      	nop

08000a9c <__aeabi_dcmpge>:
 8000a9c:	f84d ed08 	str.w	lr, [sp, #-8]!
 8000aa0:	f7ff ffce 	bl	8000a40 <__aeabi_cdrcmple>
 8000aa4:	bf94      	ite	ls
 8000aa6:	2001      	movls	r0, #1
 8000aa8:	2000      	movhi	r0, #0
 8000aaa:	f85d fb08 	ldr.w	pc, [sp], #8
 8000aae:	bf00      	nop

08000ab0 <__aeabi_dcmpgt>:
 8000ab0:	f84d ed08 	str.w	lr, [sp, #-8]!
 8000ab4:	f7ff ffc4 	bl	8000a40 <__aeabi_cdrcmple>
 8000ab8:	bf34      	ite	cc
 8000aba:	2001      	movcc	r0, #1
 8000abc:	2000      	movcs	r0, #0
 8000abe:	f85d fb08 	ldr.w	pc, [sp], #8
 8000ac2:	bf00      	nop

08000ac4 <__aeabi_dcmpun>:
 8000ac4:	ea4f 0c41 	mov.w	ip, r1, lsl #1
 8000ac8:	ea7f 5c6c 	mvns.w	ip, ip, asr #21
 8000acc:	d102      	bne.n	8000ad4 <__aeabi_dcmpun+0x10>
 8000ace:	ea50 3c01 	orrs.w	ip, r0, r1, lsl #12
 8000ad2:	d10a      	bne.n	8000aea <__aeabi_dcmpun+0x26>
 8000ad4:	ea4f 0c43 	mov.w	ip, r3, lsl #1
 8000ad8:	ea7f 5c6c 	mvns.w	ip, ip, asr #21
 8000adc:	d102      	bne.n	8000ae4 <__aeabi_dcmpun+0x20>
 8000ade:	ea52 3c03 	orrs.w	ip, r2, r3, lsl #12
 8000ae2:	d102      	bne.n	8000aea <__aeabi_dcmpun+0x26>
 8000ae4:	f04f 0000 	mov.w	r0, #0
 8000ae8:	4770      	bx	lr
 8000aea:	f04f 0001 	mov.w	r0, #1
 8000aee:	4770      	bx	lr

08000af0 <__aeabi_d2f>:
 8000af0:	ea4f 0241 	mov.w	r2, r1, lsl #1
 8000af4:	f1b2 43e0 	subs.w	r3, r2, #1879048192	@ 0x70000000
 8000af8:	bf24      	itt	cs
 8000afa:	f5b3 1c00 	subscs.w	ip, r3, #2097152	@ 0x200000
 8000afe:	f1dc 5cfe 	rsbscs	ip, ip, #532676608	@ 0x1fc00000
 8000b02:	d90d      	bls.n	8000b20 <__aeabi_d2f+0x30>
 8000b04:	f001 4c00 	and.w	ip, r1, #2147483648	@ 0x80000000
 8000b08:	ea4f 02c0 	mov.w	r2, r0, lsl #3
 8000b0c:	ea4c 7050 	orr.w	r0, ip, r0, lsr #29
 8000b10:	f1b2 4f00 	cmp.w	r2, #2147483648	@ 0x80000000
 8000b14:	eb40 0083 	adc.w	r0, r0, r3, lsl #2
 8000b18:	bf08      	it	eq
 8000b1a:	f020 0001 	biceq.w	r0, r0, #1
 8000b1e:	4770      	bx	lr
 8000b20:	f011 4f80 	tst.w	r1, #1073741824	@ 0x40000000
 8000b24:	d121      	bne.n	8000b6a <__aeabi_d2f+0x7a>
 8000b26:	f113 7238 	adds.w	r2, r3, #48234496	@ 0x2e00000
 8000b2a:	bfbc      	itt	lt
 8000b2c:	f001 4000 	andlt.w	r0, r1, #2147483648	@ 0x80000000
 8000b30:	4770      	bxlt	lr
 8000b32:	f441 1180 	orr.w	r1, r1, #1048576	@ 0x100000
 8000b36:	ea4f 5252 	mov.w	r2, r2, lsr #21
 8000b3a:	f1c2 0218 	rsb	r2, r2, #24
 8000b3e:	f1c2 0c20 	rsb	ip, r2, #32
 8000b42:	fa10 f30c 	lsls.w	r3, r0, ip
 8000b46:	fa20 f002 	lsr.w	r0, r0, r2
 8000b4a:	bf18      	it	ne
 8000b4c:	f040 0001 	orrne.w	r0, r0, #1
 8000b50:	ea4f 23c1 	mov.w	r3, r1, lsl #11
 8000b54:	ea4f 23d3 	mov.w	r3, r3, lsr #11
 8000b58:	fa03 fc0c 	lsl.w	ip, r3, ip
 8000b5c:	ea40 000c 	orr.w	r0, r0, ip
 8000b60:	fa23 f302 	lsr.w	r3, r3, r2
 8000b64:	ea4f 0343 	mov.w	r3, r3, lsl #1
 8000b68:	e7cc      	b.n	8000b04 <__aeabi_d2f+0x14>
 8000b6a:	ea7f 5362 	mvns.w	r3, r2, asr #21
 8000b6e:	d107      	bne.n	8000b80 <__aeabi_d2f+0x90>
 8000b70:	ea50 3301 	orrs.w	r3, r0, r1, lsl #12
 8000b74:	bf1e      	ittt	ne
 8000b76:	f04f 40fe 	movne.w	r0, #2130706432	@ 0x7f000000
 8000b7a:	f440 0040 	orrne.w	r0, r0, #12582912	@ 0xc00000
 8000b7e:	4770      	bxne	lr
 8000b80:	f001 4000 	and.w	r0, r1, #2147483648	@ 0x80000000
 8000b84:	f040 40fe 	orr.w	r0, r0, #2130706432	@ 0x7f000000
 8000b88:	f440 0000 	orr.w	r0, r0, #8388608	@ 0x800000
 8000b8c:	4770      	bx	lr
 8000b8e:	bf00      	nop

08000b90 <get_CAN_transmitter>:
//extern UART_HandleTypeDef huart2;



//The next functions here are to retrieve the correct pattern of bits from the received CAN message
uint8_t get_CAN_transmitter (uint16_t CAN_ID) {
 8000b90:	b480      	push	{r7}
 8000b92:	b083      	sub	sp, #12
 8000b94:	af00      	add	r7, sp, #0
 8000b96:	4603      	mov	r3, r0
 8000b98:	80fb      	strh	r3, [r7, #6]
	return (CAN_ID & SENDER_DEVICE_MASK) >> SENDER_DEVICE_SHIFT;
 8000b9a:	88fb      	ldrh	r3, [r7, #6]
 8000b9c:	0a9b      	lsrs	r3, r3, #10
 8000b9e:	b2db      	uxtb	r3, r3
 8000ba0:	f003 0301 	and.w	r3, r3, #1
 8000ba4:	b2db      	uxtb	r3, r3
}
 8000ba6:	4618      	mov	r0, r3
 8000ba8:	370c      	adds	r7, #12
 8000baa:	46bd      	mov	sp, r7
 8000bac:	f85d 7b04 	ldr.w	r7, [sp], #4
 8000bb0:	4770      	bx	lr

08000bb2 <get_CAN_action>:
uint8_t get_CAN_action (uint16_t CAN_ID) {
 8000bb2:	b480      	push	{r7}
 8000bb4:	b083      	sub	sp, #12
 8000bb6:	af00      	add	r7, sp, #0
 8000bb8:	4603      	mov	r3, r0
 8000bba:	80fb      	strh	r3, [r7, #6]
	return (CAN_ID & NACTION_READ_DEVICE_MASK) >> NACTION_READ_ID_DEVICE_SHIFT;
 8000bbc:	88fb      	ldrh	r3, [r7, #6]
 8000bbe:	0a5b      	lsrs	r3, r3, #9
 8000bc0:	b2db      	uxtb	r3, r3
 8000bc2:	f003 0301 	and.w	r3, r3, #1
 8000bc6:	b2db      	uxtb	r3, r3
}
 8000bc8:	4618      	mov	r0, r3
 8000bca:	370c      	adds	r7, #12
 8000bcc:	46bd      	mov	sp, r7
 8000bce:	f85d 7b04 	ldr.w	r7, [sp], #4
 8000bd2:	4770      	bx	lr

08000bd4 <get_CAN_motor_mov_type>:
uint8_t get_CAN_motor_mov_type (uint16_t CAN_ID) {
 8000bd4:	b480      	push	{r7}
 8000bd6:	b083      	sub	sp, #12
 8000bd8:	af00      	add	r7, sp, #0
 8000bda:	4603      	mov	r3, r0
 8000bdc:	80fb      	strh	r3, [r7, #6]
	return (CAN_ID & NMULTI_SINGLE_DEVICE_MASK) >> NMULTI_SINGLE_SHIFT;
 8000bde:	88fb      	ldrh	r3, [r7, #6]
 8000be0:	121b      	asrs	r3, r3, #8
 8000be2:	b2db      	uxtb	r3, r3
 8000be4:	f003 0301 	and.w	r3, r3, #1
 8000be8:	b2db      	uxtb	r3, r3
}
 8000bea:	4618      	mov	r0, r3
 8000bec:	370c      	adds	r7, #12
 8000bee:	46bd      	mov	sp, r7
 8000bf0:	f85d 7b04 	ldr.w	r7, [sp], #4
 8000bf4:	4770      	bx	lr

08000bf6 <get_CAN_motor_type>:
uint8_t get_CAN_motor_type (uint16_t CAN_ID) {
 8000bf6:	b480      	push	{r7}
 8000bf8:	b083      	sub	sp, #12
 8000bfa:	af00      	add	r7, sp, #0
 8000bfc:	4603      	mov	r3, r0
 8000bfe:	80fb      	strh	r3, [r7, #6]
	return (CAN_ID & NDRIVE_STEETING_DEVICE_MASK) >> NDRIVE_STEERING_SHIFT;
 8000c00:	88fb      	ldrh	r3, [r7, #6]
 8000c02:	11db      	asrs	r3, r3, #7
 8000c04:	b2db      	uxtb	r3, r3
 8000c06:	f003 0301 	and.w	r3, r3, #1
 8000c0a:	b2db      	uxtb	r3, r3
}
 8000c0c:	4618      	mov	r0, r3
 8000c0e:	370c      	adds	r7, #12
 8000c10:	46bd      	mov	sp, r7
 8000c12:	f85d 7b04 	ldr.w	r7, [sp], #4
 8000c16:	4770      	bx	lr

08000c18 <get_CAN_SPEC>:
uint8_t get_CAN_SPEC (uint16_t CAN_ID) {
 8000c18:	b480      	push	{r7}
 8000c1a:	b083      	sub	sp, #12
 8000c1c:	af00      	add	r7, sp, #0
 8000c1e:	4603      	mov	r3, r0
 8000c20:	80fb      	strh	r3, [r7, #6]
	return (CAN_ID & MSG_SPECIFICATION_DEVICE_MASK) >> MSG_SPECIFICATION_SHIFT;
 8000c22:	88fb      	ldrh	r3, [r7, #6]
 8000c24:	111b      	asrs	r3, r3, #4
 8000c26:	b2db      	uxtb	r3, r3
 8000c28:	f003 0307 	and.w	r3, r3, #7
 8000c2c:	b2db      	uxtb	r3, r3
}
 8000c2e:	4618      	mov	r0, r3
 8000c30:	370c      	adds	r7, #12
 8000c32:	46bd      	mov	sp, r7
 8000c34:	f85d 7b04 	ldr.w	r7, [sp], #4
 8000c38:	4770      	bx	lr

08000c3a <get_CAN_device_ID>:
int get_CAN_device_ID (uint16_t CAN_ID) {
 8000c3a:	b480      	push	{r7}
 8000c3c:	b083      	sub	sp, #12
 8000c3e:	af00      	add	r7, sp, #0
 8000c40:	4603      	mov	r3, r0
 8000c42:	80fb      	strh	r3, [r7, #6]
	return (CAN_ID & ID_DEVICE_MASK);
 8000c44:	88fb      	ldrh	r3, [r7, #6]
 8000c46:	f003 030f 	and.w	r3, r3, #15
}
 8000c4a:	4618      	mov	r0, r3
 8000c4c:	370c      	adds	r7, #12
 8000c4e:	46bd      	mov	sp, r7
 8000c50:	f85d 7b04 	ldr.w	r7, [sp], #4
 8000c54:	4770      	bx	lr
	...

08000c58 <CAN_Parse_MSG>:

/*
 * This function includes the main control flow for CAN commands.
 */
void CAN_Parse_MSG (FDCAN_RxHeaderTypeDef*rxHeader, uint8_t *rxData){
 8000c58:	b580      	push	{r7, lr}
 8000c5a:	b08a      	sub	sp, #40	@ 0x28
 8000c5c:	af00      	add	r7, sp, #0
 8000c5e:	6078      	str	r0, [r7, #4]
 8000c60:	6039      	str	r1, [r7, #0]

	////////////////////////////////////////////////////////////////////////////////////////////////////////
//	uart_debug_print("Parsing the ID...\r\n");
	////////////////////////////////////////////////////////////////////////////////////////////////////////

	float information = SingleExtractFloatFromCAN(rxData);
 8000c62:	6838      	ldr	r0, [r7, #0]
 8000c64:	f000 f93c 	bl	8000ee0 <SingleExtractFloatFromCAN>
 8000c68:	ed87 0a09 	vstr	s0, [r7, #36]	@ 0x24

	ParsedCANID CANMessage; //initialize a struct for the received message

	uint16_t msg_ID = rxHeader->Identifier & 0x07ff ; // We only care about the first 11 bits here
 8000c6c:	687b      	ldr	r3, [r7, #4]
 8000c6e:	681b      	ldr	r3, [r3, #0]
 8000c70:	b29b      	uxth	r3, r3
 8000c72:	f3c3 030a 	ubfx	r3, r3, #0, #11
 8000c76:	847b      	strh	r3, [r7, #34]	@ 0x22

	// First check to see who is transmitting --> slaves cannot command other slaves
	CANMessage.messageSender = (Transmitter) get_CAN_transmitter(msg_ID);
 8000c78:	8c7b      	ldrh	r3, [r7, #34]	@ 0x22
 8000c7a:	4618      	mov	r0, r3
 8000c7c:	f7ff ff88 	bl	8000b90 <get_CAN_transmitter>
 8000c80:	4603      	mov	r3, r0
 8000c82:	733b      	strb	r3, [r7, #12]
	if (CANMessage.messageSender == SLAVE){
 8000c84:	7b3b      	ldrb	r3, [r7, #12]
 8000c86:	2b01      	cmp	r3, #1
 8000c88:	d05f      	beq.n	8000d4a <CAN_Parse_MSG+0xf2>
		return;
	}

	//Check to make sure the command is directed toward the motor
	CANMessage.motorType = (MotorType) get_CAN_motor_type(msg_ID);
 8000c8a:	8c7b      	ldrh	r3, [r7, #34]	@ 0x22
 8000c8c:	4618      	mov	r0, r3
 8000c8e:	f7ff ffb2 	bl	8000bf6 <get_CAN_motor_type>
 8000c92:	4603      	mov	r3, r0
 8000c94:	737b      	strb	r3, [r7, #13]
	if (CANMessage.motorType != ARM_BRUSHED_MOTOR){
 8000c96:	7b7b      	ldrb	r3, [r7, #13]
 8000c98:	2b02      	cmp	r3, #2
 8000c9a:	d158      	bne.n	8000d4e <CAN_Parse_MSG+0xf6>
		return;
	}

	// Check the type of action to determine which field of the struct needs to be filled in
	CANMessage.commandType = (Action) get_CAN_action(msg_ID);
 8000c9c:	8c7b      	ldrh	r3, [r7, #34]	@ 0x22
 8000c9e:	4618      	mov	r0, r3
 8000ca0:	f7ff ff87 	bl	8000bb2 <get_CAN_action>
 8000ca4:	4603      	mov	r3, r0
 8000ca6:	73fb      	strb	r3, [r7, #15]
	if (CANMessage.commandType == ACTION_RUN){
 8000ca8:	7bfb      	ldrb	r3, [r7, #15]
 8000caa:	2b00      	cmp	r3, #0
 8000cac:	d106      	bne.n	8000cbc <CAN_Parse_MSG+0x64>

		////////////////////////////////////////////////////////////////////////////////////////////////////////
//		uart_debug_print("Run Command Detected\r\n");
		////////////////////////////////////////////////////////////////////////////////////////////////////////

		CANMessage.runSpec = (RunSpec) get_CAN_SPEC(msg_ID);
 8000cae:	8c7b      	ldrh	r3, [r7, #34]	@ 0x22
 8000cb0:	4618      	mov	r0, r3
 8000cb2:	f7ff ffb1 	bl	8000c18 <get_CAN_SPEC>
 8000cb6:	4603      	mov	r3, r0
 8000cb8:	747b      	strb	r3, [r7, #17]
 8000cba:	e005      	b.n	8000cc8 <CAN_Parse_MSG+0x70>
	else{
		////////////////////////////////////////////////////////////////////////////////////////////////////////
//		uart_debug_print("Read Command Detected\r\n");
		////////////////////////////////////////////////////////////////////////////////////////////////////////

		CANMessage.readSpec = (ReadSpec) get_CAN_SPEC(msg_ID);
 8000cbc:	8c7b      	ldrh	r3, [r7, #34]	@ 0x22
 8000cbe:	4618      	mov	r0, r3
 8000cc0:	f7ff ffaa 	bl	8000c18 <get_CAN_SPEC>
 8000cc4:	4603      	mov	r3, r0
 8000cc6:	743b      	strb	r3, [r7, #16]
	}

	// Determine if the command effects a single, or multiple motors, and call the appropriate helper functions

	Motor *gripper_motor = all_motors_list[0];
 8000cc8:	4b24      	ldr	r3, [pc, #144]	@ (8000d5c <CAN_Parse_MSG+0x104>)
 8000cca:	681b      	ldr	r3, [r3, #0]
 8000ccc:	61fb      	str	r3, [r7, #28]
	Motor *roll_motor = all_motors_list[2];
 8000cce:	4b23      	ldr	r3, [pc, #140]	@ (8000d5c <CAN_Parse_MSG+0x104>)
 8000cd0:	689b      	ldr	r3, [r3, #8]
 8000cd2:	61bb      	str	r3, [r7, #24]
	Motor *pitch_motor = all_motors_list[1];
 8000cd4:	4b21      	ldr	r3, [pc, #132]	@ (8000d5c <CAN_Parse_MSG+0x104>)
 8000cd6:	685b      	ldr	r3, [r3, #4]
 8000cd8:	617b      	str	r3, [r7, #20]

	CANMessage.motorConfig = (MotorConfig) get_CAN_motor_mov_type(msg_ID);
 8000cda:	8c7b      	ldrh	r3, [r7, #34]	@ 0x22
 8000cdc:	4618      	mov	r0, r3
 8000cde:	f7ff ff79 	bl	8000bd4 <get_CAN_motor_mov_type>
 8000ce2:	4603      	mov	r3, r0
 8000ce4:	73bb      	strb	r3, [r7, #14]
	if (CANMessage.motorConfig == SINGLE_MOTOR){
 8000ce6:	7bbb      	ldrb	r3, [r7, #14]
 8000ce8:	2b01      	cmp	r3, #1
 8000cea:	d127      	bne.n	8000d3c <CAN_Parse_MSG+0xe4>
		CANMessage.motorID = (MotorID) get_CAN_device_ID(msg_ID);
 8000cec:	8c7b      	ldrh	r3, [r7, #34]	@ 0x22
 8000cee:	4618      	mov	r0, r3
 8000cf0:	f7ff ffa3 	bl	8000c3a <get_CAN_device_ID>
 8000cf4:	4603      	mov	r3, r0
 8000cf6:	b2db      	uxtb	r3, r3
 8000cf8:	74bb      	strb	r3, [r7, #18]
		if (CANMessage.motorID == GRIPPER_ID){
 8000cfa:	7cbb      	ldrb	r3, [r7, #18]
 8000cfc:	2b00      	cmp	r3, #0
 8000cfe:	d107      	bne.n	8000d10 <CAN_Parse_MSG+0xb8>
			//uart_debug_print("Processing Single Command\r\n");
			Process_Single_Motor_Command(gripper_motor, &CANMessage, rxData);
 8000d00:	f107 030c 	add.w	r3, r7, #12
 8000d04:	683a      	ldr	r2, [r7, #0]
 8000d06:	4619      	mov	r1, r3
 8000d08:	69f8      	ldr	r0, [r7, #28]
 8000d0a:	f000 f829 	bl	8000d60 <Process_Single_Motor_Command>
 8000d0e:	e021      	b.n	8000d54 <CAN_Parse_MSG+0xfc>

		}else if (CANMessage.motorID == PITCH_ID){
 8000d10:	7cbb      	ldrb	r3, [r7, #18]
 8000d12:	2b01      	cmp	r3, #1
 8000d14:	d107      	bne.n	8000d26 <CAN_Parse_MSG+0xce>
			Process_Single_Motor_Command(pitch_motor, &CANMessage, rxData);
 8000d16:	f107 030c 	add.w	r3, r7, #12
 8000d1a:	683a      	ldr	r2, [r7, #0]
 8000d1c:	4619      	mov	r1, r3
 8000d1e:	6978      	ldr	r0, [r7, #20]
 8000d20:	f000 f81e 	bl	8000d60 <Process_Single_Motor_Command>
 8000d24:	e016      	b.n	8000d54 <CAN_Parse_MSG+0xfc>

		}else if (CANMessage.motorID == ROLL_ID){
 8000d26:	7cbb      	ldrb	r3, [r7, #18]
 8000d28:	2b02      	cmp	r3, #2
 8000d2a:	d112      	bne.n	8000d52 <CAN_Parse_MSG+0xfa>
			Process_Single_Motor_Command(roll_motor, &CANMessage, rxData);
 8000d2c:	f107 030c 	add.w	r3, r7, #12
 8000d30:	683a      	ldr	r2, [r7, #0]
 8000d32:	4619      	mov	r1, r3
 8000d34:	69b8      	ldr	r0, [r7, #24]
 8000d36:	f000 f813 	bl	8000d60 <Process_Single_Motor_Command>
 8000d3a:	e00b      	b.n	8000d54 <CAN_Parse_MSG+0xfc>
	}else{ // if not single motor, then multiple motors
		////////////////////////////////////////////////////////////////////////////////////////////////////////
//		uart_debug_print("Processing Multiple Commands\r\n");
		////////////////////////////////////////////////////////////////////////////////////////////////////////

		Process_Multiple_Motor_Command(&CANMessage, rxData);
 8000d3c:	f107 030c 	add.w	r3, r7, #12
 8000d40:	6839      	ldr	r1, [r7, #0]
 8000d42:	4618      	mov	r0, r3
 8000d44:	f000 f85c 	bl	8000e00 <Process_Multiple_Motor_Command>
 8000d48:	e004      	b.n	8000d54 <CAN_Parse_MSG+0xfc>
		return;
 8000d4a:	bf00      	nop
 8000d4c:	e002      	b.n	8000d54 <CAN_Parse_MSG+0xfc>
		return;
 8000d4e:	bf00      	nop
 8000d50:	e000      	b.n	8000d54 <CAN_Parse_MSG+0xfc>
			return;
 8000d52:	bf00      	nop
	}



}
 8000d54:	3728      	adds	r7, #40	@ 0x28
 8000d56:	46bd      	mov	sp, r7
 8000d58:	bd80      	pop	{r7, pc}
 8000d5a:	bf00      	nop
 8000d5c:	200006fc 	.word	0x200006fc

08000d60 <Process_Single_Motor_Command>:


void Process_Single_Motor_Command (Motor * motor, ParsedCANID *CANMessageID, uint8_t *rxData){
 8000d60:	b580      	push	{r7, lr}
 8000d62:	b086      	sub	sp, #24
 8000d64:	af00      	add	r7, sp, #0
 8000d66:	60f8      	str	r0, [r7, #12]
 8000d68:	60b9      	str	r1, [r7, #8]
 8000d6a:	607a      	str	r2, [r7, #4]

	//single information will always come as a float (signed 4 bytes)
	float information = SingleExtractFloatFromCAN(rxData);
 8000d6c:	6878      	ldr	r0, [r7, #4]
 8000d6e:	f000 f8b7 	bl	8000ee0 <SingleExtractFloatFromCAN>
 8000d72:	ed87 0a05 	vstr	s0, [r7, #20]


	if (CANMessageID->commandType == ACTION_RUN){ // for moving action
 8000d76:	68bb      	ldr	r3, [r7, #8]
 8000d78:	78db      	ldrb	r3, [r3, #3]
 8000d7a:	2b00      	cmp	r3, #0
 8000d7c:	d118      	bne.n	8000db0 <Process_Single_Motor_Command+0x50>
		switch(CANMessageID->runSpec){
 8000d7e:	68bb      	ldr	r3, [r7, #8]
 8000d80:	795b      	ldrb	r3, [r3, #5]
 8000d82:	2b03      	cmp	r3, #3
 8000d84:	d832      	bhi.n	8000dec <Process_Single_Motor_Command+0x8c>
 8000d86:	a201      	add	r2, pc, #4	@ (adr r2, 8000d8c <Process_Single_Motor_Command+0x2c>)
 8000d88:	f852 f023 	ldr.w	pc, [r2, r3, lsl #2]
 8000d8c:	08000d9d 	.word	0x08000d9d
 8000d90:	08000ded 	.word	0x08000ded
 8000d94:	08000ded 	.word	0x08000ded
 8000d98:	08000da5 	.word	0x08000da5

		case (RUN_STOP):
				////////////////////////////////////////////////////////////////////////////////////////////////////////
//				uart_debug_print("Motor Stopped \r\n");
				////////////////////////////////////////////////////////////////////////////////////////////////////////
				stop_motor(motor);
 8000d9c:	68f8      	ldr	r0, [r7, #12]
 8000d9e:	f001 fabd 	bl	800231c <stop_motor>
				break;
 8000da2:	e026      	b.n	8000df2 <Process_Single_Motor_Command+0x92>
				break;
		case (RUN_POSITION):
				//uart_debug_print("In case RUN_SPEED\r\n");
				//uart_debug_print("Setpoint %d RPM\r\n", (int)information);
				//uart_debug_print("Previous Direction %d\r\n", (int)s_previousDirection);
				ControlSingleMotor(motor, information);
 8000da4:	ed97 0a05 	vldr	s0, [r7, #20]
 8000da8:	68f8      	ldr	r0, [r7, #12]
 8000daa:	f000 f841 	bl	8000e30 <ControlSingleMotor>
				break;
 8000dae:	e020      	b.n	8000df2 <Process_Single_Motor_Command+0x92>
		}
		//otherwise ignore whatever was received :)
	}

	else{ // We are now in a read command
		switch(CANMessageID->readSpec){
 8000db0:	68bb      	ldr	r3, [r7, #8]
 8000db2:	791b      	ldrb	r3, [r3, #4]
 8000db4:	3b01      	subs	r3, #1
 8000db6:	2b06      	cmp	r3, #6
 8000db8:	d81a      	bhi.n	8000df0 <Process_Single_Motor_Command+0x90>
 8000dba:	a201      	add	r2, pc, #4	@ (adr r2, 8000dc0 <Process_Single_Motor_Command+0x60>)
 8000dbc:	f852 f023 	ldr.w	pc, [r2, r3, lsl #2]
 8000dc0:	08000df1 	.word	0x08000df1
 8000dc4:	08000df1 	.word	0x08000df1
 8000dc8:	08000df1 	.word	0x08000df1
 8000dcc:	08000df1 	.word	0x08000df1
 8000dd0:	08000df1 	.word	0x08000df1
 8000dd4:	08000df1 	.word	0x08000df1
 8000dd8:	08000ddd 	.word	0x08000ddd
				break;
		case(GET_TEMPERATURE):
				// --> need to poll the gpio, check the datasheet later for whichever pin this is
				break;
		case(GET_PING):
				float feedback = 69;// ;)
 8000ddc:	4b07      	ldr	r3, [pc, #28]	@ (8000dfc <Process_Single_Motor_Command+0x9c>)
 8000dde:	613b      	str	r3, [r7, #16]
				sendCANResponse(CANMessageID, feedback);
 8000de0:	ed97 0a04 	vldr	s0, [r7, #16]
 8000de4:	68b8      	ldr	r0, [r7, #8]
 8000de6:	f000 f837 	bl	8000e58 <sendCANResponse>
				break;
 8000dea:	e002      	b.n	8000df2 <Process_Single_Motor_Command+0x92>
			break;
 8000dec:	bf00      	nop
 8000dee:	e000      	b.n	8000df2 <Process_Single_Motor_Command+0x92>
		default:
			break;
 8000df0:	bf00      	nop
		}

	}
}
 8000df2:	bf00      	nop
 8000df4:	3718      	adds	r7, #24
 8000df6:	46bd      	mov	sp, r7
 8000df8:	bd80      	pop	{r7, pc}
 8000dfa:	bf00      	nop
 8000dfc:	428a0000 	.word	0x428a0000

08000e00 <Process_Multiple_Motor_Command>:

void Process_Multiple_Motor_Command (ParsedCANID *CANMessageID, uint8_t *rxData){
 8000e00:	b580      	push	{r7, lr}
 8000e02:	b084      	sub	sp, #16
 8000e04:	af00      	add	r7, sp, #0
 8000e06:	6078      	str	r0, [r7, #4]
 8000e08:	6039      	str	r1, [r7, #0]

	////////////////////////////////////////////////////////////////////////////////////////////////////////
//	 uart_debug_print("Running Multiple Motors...\r\n");
	////////////////////////////////////////////////////////////////////////////////////////////////////////

	switch(CANMessageID->runSpec){
 8000e0a:	687b      	ldr	r3, [r7, #4]
 8000e0c:	795b      	ldrb	r3, [r3, #5]
 8000e0e:	2b00      	cmp	r3, #0
 8000e10:	d007      	beq.n	8000e22 <Process_Multiple_Motor_Command+0x22>
 8000e12:	2b03      	cmp	r3, #3
 8000e14:	d107      	bne.n	8000e26 <Process_Multiple_Motor_Command+0x26>

	case (RUN_POSITION):
			int16_t curESCSpeed = extract_multiple_speeds(rxData);
 8000e16:	6838      	ldr	r0, [r7, #0]
 8000e18:	f000 f87e 	bl	8000f18 <extract_multiple_speeds>
 8000e1c:	4603      	mov	r3, r0
 8000e1e:	81fb      	strh	r3, [r7, #14]
//			 uart_debug_print("Setpoint %d RPM\r\n", (int)curESCSpeed);
//			 uart_debug_print("Previous Direction %d\r\n", (int)s_previousDirection);
			////////////////////////////////////////////////////////////////////////////////////////////////////////

			//ControlSingleMotor(curESCSpeed); //TODO FIX
			break;
 8000e20:	e002      	b.n	8000e28 <Process_Multiple_Motor_Command+0x28>
	case (RUN_STOP):
			////////////////////////////////////////////////////////////////////////////////////////////////////////
//			 uart_debug_print("Stop this motor\r\n");
			////////////////////////////////////////////////////////////////////////////////////////////////////////
			// stop_motor();
			break;
 8000e22:	bf00      	nop
 8000e24:	e000      	b.n	8000e28 <Process_Multiple_Motor_Command+0x28>
	default:
		break;
 8000e26:	bf00      	nop
	}


}
 8000e28:	bf00      	nop
 8000e2a:	3710      	adds	r7, #16
 8000e2c:	46bd      	mov	sp, r7
 8000e2e:	bd80      	pop	{r7, pc}

08000e30 <ControlSingleMotor>:

void ControlSingleMotor(Motor * motor, float angle){
 8000e30:	b580      	push	{r7, lr}
 8000e32:	b082      	sub	sp, #8
 8000e34:	af00      	add	r7, sp, #0
 8000e36:	6078      	str	r0, [r7, #4]
 8000e38:	ed87 0a00 	vstr	s0, [r7]
	setPIDGoalA(motor, angle);
 8000e3c:	6838      	ldr	r0, [r7, #0]
 8000e3e:	f7ff fb4f 	bl	80004e0 <__aeabi_f2d>
 8000e42:	4602      	mov	r2, r0
 8000e44:	460b      	mov	r3, r1
 8000e46:	ec43 2b10 	vmov	d0, r2, r3
 8000e4a:	6878      	ldr	r0, [r7, #4]
 8000e4c:	f001 fb9e 	bl	800258c <setPIDGoalA>
}
 8000e50:	bf00      	nop
 8000e52:	3708      	adds	r7, #8
 8000e54:	46bd      	mov	sp, r7
 8000e56:	bd80      	pop	{r7, pc}

08000e58 <sendCANResponse>:

*/


void sendCANResponse(ParsedCANID *CANMessageID, float information)
{
 8000e58:	b580      	push	{r7, lr}
 8000e5a:	b09c      	sub	sp, #112	@ 0x70
 8000e5c:	af00      	add	r7, sp, #0
 8000e5e:	6078      	str	r0, [r7, #4]
 8000e60:	ed87 0a00 	vstr	s0, [r7]
    FDCAN_TxHeaderTypeDef txHeader;
    uint8_t txData[64] = {0};
 8000e64:	f107 0308 	add.w	r3, r7, #8
 8000e68:	2240      	movs	r2, #64	@ 0x40
 8000e6a:	2100      	movs	r1, #0
 8000e6c:	4618      	mov	r0, r3
 8000e6e:	f007 f8a5 	bl	8007fbc <memset>

    uint8_t spec = (CANMessageID->commandType == ACTION_READ)
 8000e72:	687b      	ldr	r3, [r7, #4]
 8000e74:	78db      	ldrb	r3, [r3, #3]
 8000e76:	2b01      	cmp	r3, #1
 8000e78:	d102      	bne.n	8000e80 <sendCANResponse+0x28>
 8000e7a:	687b      	ldr	r3, [r7, #4]
 8000e7c:	791b      	ldrb	r3, [r3, #4]
 8000e7e:	e001      	b.n	8000e84 <sendCANResponse+0x2c>
 8000e80:	687b      	ldr	r3, [r7, #4]
 8000e82:	795b      	ldrb	r3, [r3, #5]
 8000e84:	f887 306f 	strb.w	r3, [r7, #111]	@ 0x6f
                   ? (uint8_t)(CANMessageID->readSpec)
                   : (uint8_t)(CANMessageID->runSpec);

    uint16_t txID = 0x1;
 8000e88:	2301      	movs	r3, #1
 8000e8a:	f8a7 306c 	strh.w	r3, [r7, #108]	@ 0x6c
//        spec,                                       /* Spec      */
//        (uint8_t)CANMessageID->motorID              /* DeviceID  */
//    );
//

    memcpy(txData, &information, sizeof(float));
 8000e8e:	683b      	ldr	r3, [r7, #0]
 8000e90:	60bb      	str	r3, [r7, #8]

    txHeader.Identifier          = txID;
 8000e92:	f8b7 306c 	ldrh.w	r3, [r7, #108]	@ 0x6c
 8000e96:	64bb      	str	r3, [r7, #72]	@ 0x48
    txHeader.IdType              = FDCAN_CLASSIC_CAN; // Using NOT FD here:
 8000e98:	2300      	movs	r3, #0
 8000e9a:	64fb      	str	r3, [r7, #76]	@ 0x4c
    txHeader.TxFrameType         = FDCAN_DATA_FRAME;
 8000e9c:	2300      	movs	r3, #0
 8000e9e:	653b      	str	r3, [r7, #80]	@ 0x50
    txHeader.DataLength          = FDCAN_DLC_BYTES_8;
 8000ea0:	2308      	movs	r3, #8
 8000ea2:	657b      	str	r3, [r7, #84]	@ 0x54
    txHeader.ErrorStateIndicator = FDCAN_ESI_ACTIVE;
 8000ea4:	2300      	movs	r3, #0
 8000ea6:	65bb      	str	r3, [r7, #88]	@ 0x58
    txHeader.BitRateSwitch       = FDCAN_BRS_OFF;  // Using NOT FD here:
 8000ea8:	2300      	movs	r3, #0
 8000eaa:	65fb      	str	r3, [r7, #92]	@ 0x5c
    txHeader.FDFormat            = FDCAN_FD_CAN;
 8000eac:	f44f 1300 	mov.w	r3, #2097152	@ 0x200000
 8000eb0:	663b      	str	r3, [r7, #96]	@ 0x60
    txHeader.TxEventFifoControl  = FDCAN_NO_TX_EVENTS;
 8000eb2:	2300      	movs	r3, #0
 8000eb4:	667b      	str	r3, [r7, #100]	@ 0x64
    txHeader.MessageMarker       = 0;
 8000eb6:	2300      	movs	r3, #0
 8000eb8:	66bb      	str	r3, [r7, #104]	@ 0x68

    //uart_debug_print("CAN FD Response Sent!\r\n");

    if (HAL_FDCAN_AddMessageToTxFifoQ(&hfdcan2, &txHeader, txData) != HAL_OK) {
 8000eba:	f107 0208 	add.w	r2, r7, #8
 8000ebe:	f107 0348 	add.w	r3, r7, #72	@ 0x48
 8000ec2:	4619      	mov	r1, r3
 8000ec4:	4805      	ldr	r0, [pc, #20]	@ (8000edc <sendCANResponse+0x84>)
 8000ec6:	f003 fc51 	bl	800476c <HAL_FDCAN_AddMessageToTxFifoQ>
 8000eca:	4603      	mov	r3, r0
 8000ecc:	2b00      	cmp	r3, #0
 8000ece:	d001      	beq.n	8000ed4 <sendCANResponse+0x7c>
        Error_Handler();
 8000ed0:	f001 f9f6 	bl	80022c0 <Error_Handler>
    }
}
 8000ed4:	bf00      	nop
 8000ed6:	3770      	adds	r7, #112	@ 0x70
 8000ed8:	46bd      	mov	sp, r7
 8000eda:	bd80      	pop	{r7, pc}
 8000edc:	200000ec 	.word	0x200000ec

08000ee0 <SingleExtractFloatFromCAN>:



// Extracts a float from a CAN data buffer that is expected to be in little-Endian
float SingleExtractFloatFromCAN(uint8_t *data) {
 8000ee0:	b480      	push	{r7}
 8000ee2:	b085      	sub	sp, #20
 8000ee4:	af00      	add	r7, sp, #0
 8000ee6:	6078      	str	r0, [r7, #4]
    float value;
    uint8_t reorderedData[4];

    // The data is already big-endian, so we copy directly:
    reorderedData[0] = data[0];
 8000ee8:	687b      	ldr	r3, [r7, #4]
 8000eea:	781b      	ldrb	r3, [r3, #0]
 8000eec:	723b      	strb	r3, [r7, #8]
    reorderedData[1] = data[1];
 8000eee:	687b      	ldr	r3, [r7, #4]
 8000ef0:	785b      	ldrb	r3, [r3, #1]
 8000ef2:	727b      	strb	r3, [r7, #9]
    reorderedData[2] = data[2];
 8000ef4:	687b      	ldr	r3, [r7, #4]
 8000ef6:	789b      	ldrb	r3, [r3, #2]
 8000ef8:	72bb      	strb	r3, [r7, #10]
    reorderedData[3] = data[3];
 8000efa:	687b      	ldr	r3, [r7, #4]
 8000efc:	78db      	ldrb	r3, [r3, #3]
 8000efe:	72fb      	strb	r3, [r7, #11]

    memcpy(&value, reorderedData, sizeof(float));
 8000f00:	68bb      	ldr	r3, [r7, #8]
 8000f02:	60fb      	str	r3, [r7, #12]
    return value;
 8000f04:	68fb      	ldr	r3, [r7, #12]
 8000f06:	ee07 3a90 	vmov	s15, r3
}
 8000f0a:	eeb0 0a67 	vmov.f32	s0, s15
 8000f0e:	3714      	adds	r7, #20
 8000f10:	46bd      	mov	sp, r7
 8000f12:	f85d 7b04 	ldr.w	r7, [sp], #4
 8000f16:	4770      	bx	lr

08000f18 <extract_multiple_speeds>:


int16_t extract_multiple_speeds(const uint8_t *rxData){
 8000f18:	b480      	push	{r7}
 8000f1a:	b083      	sub	sp, #12
 8000f1c:	af00      	add	r7, sp, #0
 8000f1e:	6078      	str	r0, [r7, #4]

    //uint16_t offset = (STEERING_ID-4) * 2;
    //int16_t value = (int16_t)((rxData[offset + 1] << 8) | rxData[offset]);
    //return value;

	return 0;
 8000f20:	2300      	movs	r3, #0
}
 8000f22:	4618      	mov	r0, r3
 8000f24:	370c      	adds	r7, #12
 8000f26:	46bd      	mov	sp, r7
 8000f28:	f85d 7b04 	ldr.w	r7, [sp], #4
 8000f2c:	4770      	bx	lr

08000f2e <CalibrateMotor>:

//  2. The motor will then move to the new 90 degree point at 100% speed.

// This function is going to trigger on startup (see call in main loop)

void CalibrateMotor(Motor * motor) {
 8000f2e:	b480      	push	{r7}
 8000f30:	b083      	sub	sp, #12
 8000f32:	af00      	add	r7, sp, #0
 8000f34:	6078      	str	r0, [r7, #4]
	motor->steering_state = CALIBRATION;
 8000f36:	687b      	ldr	r3, [r7, #4]
 8000f38:	2201      	movs	r2, #1
 8000f3a:	759a      	strb	r2, [r3, #22]
}
 8000f3c:	bf00      	nop
 8000f3e:	370c      	adds	r7, #12
 8000f40:	46bd      	mov	sp, r7
 8000f42:	f85d 7b04 	ldr.w	r7, [sp], #4
 8000f46:	4770      	bx	lr

08000f48 <set_calibration_motor_movement>:
// Another Note: The speed decrease is accomplished through
// a new vairable "calibrationMode" which is declared/used
// in pid.c, set to one in CalibrateMotor() (above), then
// set back to zero in the limit switch interrupt

void set_calibration_motor_movement(Motor * motor){
 8000f48:	b580      	push	{r7, lr}
 8000f4a:	b082      	sub	sp, #8
 8000f4c:	af00      	add	r7, sp, #0
 8000f4e:	6078      	str	r0, [r7, #4]
	set_motor_direction(motor, 1);
 8000f50:	2101      	movs	r1, #1
 8000f52:	6878      	ldr	r0, [r7, #4]
 8000f54:	f001 fa48 	bl	80023e8 <set_motor_direction>
	set_motor_speed_percent(motor, 80);
 8000f58:	ed9f 0a04 	vldr	s0, [pc, #16]	@ 8000f6c <set_calibration_motor_movement+0x24>
 8000f5c:	6878      	ldr	r0, [r7, #4]
 8000f5e:	f001 fa01 	bl	8002364 <set_motor_speed_percent>
}
 8000f62:	bf00      	nop
 8000f64:	3708      	adds	r7, #8
 8000f66:	46bd      	mov	sp, r7
 8000f68:	bd80      	pop	{r7, pc}
 8000f6a:	bf00      	nop
 8000f6c:	42a00000 	.word	0x42a00000

08000f70 <motor_encoding_struct_init>:
//int need_debounce = 0;
int debounce_buffer = 0; // 32 bits buffer to fill with switch state


void motor_encoding_struct_init(Motor_Encoding_Struct * encoding, int encoder_max_counts,
		int lm_sw_reset_counts){
 8000f70:	b480      	push	{r7}
 8000f72:	b085      	sub	sp, #20
 8000f74:	af00      	add	r7, sp, #0
 8000f76:	60f8      	str	r0, [r7, #12]
 8000f78:	60b9      	str	r1, [r7, #8]
 8000f7a:	607a      	str	r2, [r7, #4]
	encoding->ENCODER_MAX_COUNTS = encoder_max_counts;
 8000f7c:	68fb      	ldr	r3, [r7, #12]
 8000f7e:	68ba      	ldr	r2, [r7, #8]
 8000f80:	601a      	str	r2, [r3, #0]
	encoding->LMSW_RESET_COUNTS = lm_sw_reset_counts;
 8000f82:	68fb      	ldr	r3, [r7, #12]
 8000f84:	687a      	ldr	r2, [r7, #4]
 8000f86:	605a      	str	r2, [r3, #4]
	encoding->curr_counts = 0;
 8000f88:	68fb      	ldr	r3, [r7, #12]
 8000f8a:	2200      	movs	r2, #0
 8000f8c:	609a      	str	r2, [r3, #8]
	encoding->need_debounce = 0;
 8000f8e:	68fb      	ldr	r3, [r7, #12]
 8000f90:	2200      	movs	r2, #0
 8000f92:	60da      	str	r2, [r3, #12]
}
 8000f94:	bf00      	nop
 8000f96:	3714      	adds	r7, #20
 8000f98:	46bd      	mov	sp, r7
 8000f9a:	f85d 7b04 	ldr.w	r7, [sp], #4
 8000f9e:	4770      	bx	lr

08000fa0 <set_counts>:
//void set_debounce(Motor_Encoding_Struct * encoding, int debounce_state){
//	encoding->need_debounce = debounce_state;
//}
//* integrated into main loop

void set_counts(Motor_Encoding_Struct * encoding, int n){
 8000fa0:	b480      	push	{r7}
 8000fa2:	b083      	sub	sp, #12
 8000fa4:	af00      	add	r7, sp, #0
 8000fa6:	6078      	str	r0, [r7, #4]
 8000fa8:	6039      	str	r1, [r7, #0]
//	counts = ((n%MAX_COUNTS)+MAX_COUNTS)%MAX_COUNTS;
	encoding->curr_counts = n;
 8000faa:	687b      	ldr	r3, [r7, #4]
 8000fac:	683a      	ldr	r2, [r7, #0]
 8000fae:	609a      	str	r2, [r3, #8]
}
 8000fb0:	bf00      	nop
 8000fb2:	370c      	adds	r7, #12
 8000fb4:	46bd      	mov	sp, r7
 8000fb6:	f85d 7b04 	ldr.w	r7, [sp], #4
 8000fba:	4770      	bx	lr

08000fbc <get_counts>:

int get_counts(Motor_Encoding_Struct * encoding){
 8000fbc:	b480      	push	{r7}
 8000fbe:	b083      	sub	sp, #12
 8000fc0:	af00      	add	r7, sp, #0
 8000fc2:	6078      	str	r0, [r7, #4]
	return encoding->curr_counts;
 8000fc4:	687b      	ldr	r3, [r7, #4]
 8000fc6:	689b      	ldr	r3, [r3, #8]
}
 8000fc8:	4618      	mov	r0, r3
 8000fca:	370c      	adds	r7, #12
 8000fcc:	46bd      	mov	sp, r7
 8000fce:	f85d 7b04 	ldr.w	r7, [sp], #4
 8000fd2:	4770      	bx	lr

08000fd4 <count_to_angle>:

float count_to_angle(Motor_Encoding_Struct * encoding, int n){
 8000fd4:	b480      	push	{r7}
 8000fd6:	b085      	sub	sp, #20
 8000fd8:	af00      	add	r7, sp, #0
 8000fda:	6078      	str	r0, [r7, #4]
 8000fdc:	6039      	str	r1, [r7, #0]
	//remove the offset from the angle to get the raw count
	int no_offset = n-(encoding->LMSW_RESET_COUNTS - encoding->ENCODER_MAX_COUNTS/2);
 8000fde:	687b      	ldr	r3, [r7, #4]
 8000fe0:	685a      	ldr	r2, [r3, #4]
 8000fe2:	687b      	ldr	r3, [r7, #4]
 8000fe4:	681b      	ldr	r3, [r3, #0]
 8000fe6:	0fd9      	lsrs	r1, r3, #31
 8000fe8:	440b      	add	r3, r1
 8000fea:	105b      	asrs	r3, r3, #1
 8000fec:	425b      	negs	r3, r3
 8000fee:	4413      	add	r3, r2
 8000ff0:	683a      	ldr	r2, [r7, #0]
 8000ff2:	1ad3      	subs	r3, r2, r3
 8000ff4:	60fb      	str	r3, [r7, #12]
//	int new_n = abs(no_offset%MAX_COUNTS);

	float angle=((float)no_offset/(float) encoding->ENCODER_MAX_COUNTS)*360;
 8000ff6:	68fb      	ldr	r3, [r7, #12]
 8000ff8:	ee07 3a90 	vmov	s15, r3
 8000ffc:	eef8 6ae7 	vcvt.f32.s32	s13, s15
 8001000:	687b      	ldr	r3, [r7, #4]
 8001002:	681b      	ldr	r3, [r3, #0]
 8001004:	ee07 3a90 	vmov	s15, r3
 8001008:	eeb8 7ae7 	vcvt.f32.s32	s14, s15
 800100c:	eec6 7a87 	vdiv.f32	s15, s13, s14
 8001010:	ed9f 7a07 	vldr	s14, [pc, #28]	@ 8001030 <count_to_angle+0x5c>
 8001014:	ee67 7a87 	vmul.f32	s15, s15, s14
 8001018:	edc7 7a02 	vstr	s15, [r7, #8]
	return angle;
 800101c:	68bb      	ldr	r3, [r7, #8]
 800101e:	ee07 3a90 	vmov	s15, r3
}
 8001022:	eeb0 0a67 	vmov.f32	s0, s15
 8001026:	3714      	adds	r7, #20
 8001028:	46bd      	mov	sp, r7
 800102a:	f85d 7b04 	ldr.w	r7, [sp], #4
 800102e:	4770      	bx	lr
 8001030:	43b40000 	.word	0x43b40000
 8001034:	00000000 	.word	0x00000000

08001038 <angle_to_count>:

int angle_to_count(Motor_Encoding_Struct * encoding, double n){
 8001038:	b580      	push	{r7, lr}
 800103a:	b086      	sub	sp, #24
 800103c:	af00      	add	r7, sp, #0
 800103e:	60f8      	str	r0, [r7, #12]
 8001040:	ed87 0b00 	vstr	d0, [r7]
	float new_n = fabs(fmod(n,360));
 8001044:	ed9f 1b1a 	vldr	d1, [pc, #104]	@ 80010b0 <angle_to_count+0x78>
 8001048:	ed97 0b00 	vldr	d0, [r7]
 800104c:	f006 ffe8 	bl	8008020 <fmod>
 8001050:	ec53 2b10 	vmov	r2, r3, d0
 8001054:	4610      	mov	r0, r2
 8001056:	4619      	mov	r1, r3
 8001058:	f7ff fd4a 	bl	8000af0 <__aeabi_d2f>
 800105c:	ee07 0a90 	vmov	s15, r0
 8001060:	eef0 7ae7 	vabs.f32	s15, s15
 8001064:	edc7 7a05 	vstr	s15, [r7, #20]
	int offset = (encoding->LMSW_RESET_COUNTS - encoding->ENCODER_MAX_COUNTS/2);
 8001068:	68fb      	ldr	r3, [r7, #12]
 800106a:	685a      	ldr	r2, [r3, #4]
 800106c:	68fb      	ldr	r3, [r7, #12]
 800106e:	681b      	ldr	r3, [r3, #0]
 8001070:	0fd9      	lsrs	r1, r3, #31
 8001072:	440b      	add	r3, r1
 8001074:	105b      	asrs	r3, r3, #1
 8001076:	425b      	negs	r3, r3
 8001078:	4413      	add	r3, r2
 800107a:	613b      	str	r3, [r7, #16]
	return (int) ((new_n/(360)) * encoding->ENCODER_MAX_COUNTS) + offset;
 800107c:	edd7 7a05 	vldr	s15, [r7, #20]
 8001080:	eddf 6a0d 	vldr	s13, [pc, #52]	@ 80010b8 <angle_to_count+0x80>
 8001084:	ee87 7aa6 	vdiv.f32	s14, s15, s13
 8001088:	68fb      	ldr	r3, [r7, #12]
 800108a:	681b      	ldr	r3, [r3, #0]
 800108c:	ee07 3a90 	vmov	s15, r3
 8001090:	eef8 7ae7 	vcvt.f32.s32	s15, s15
 8001094:	ee67 7a27 	vmul.f32	s15, s14, s15
 8001098:	eefd 7ae7 	vcvt.s32.f32	s15, s15
 800109c:	ee17 2a90 	vmov	r2, s15
 80010a0:	693b      	ldr	r3, [r7, #16]
 80010a2:	4413      	add	r3, r2
}
 80010a4:	4618      	mov	r0, r3
 80010a6:	3718      	adds	r7, #24
 80010a8:	46bd      	mov	sp, r7
 80010aa:	bd80      	pop	{r7, pc}
 80010ac:	f3af 8000 	nop.w
 80010b0:	00000000 	.word	0x00000000
 80010b4:	40768000 	.word	0x40768000
 80010b8:	43b40000 	.word	0x43b40000

080010bc <lmsw_pitch_up_recalibrate>:
//}
//*integrated into main



int lmsw_pitch_up_recalibrate(Motor * motor){
 80010bc:	b580      	push	{r7, lr}
 80010be:	b082      	sub	sp, #8
 80010c0:	af00      	add	r7, sp, #0
 80010c2:	6078      	str	r0, [r7, #4]
	//reset the maximum number of counts
	//set the current number of counts to the MAX
	motor->ENCODER_type->CNT = motor->Motor_Encoding_Struct->LMSW_RESET_COUNTS;
 80010c4:	687b      	ldr	r3, [r7, #4]
 80010c6:	689b      	ldr	r3, [r3, #8]
 80010c8:	685a      	ldr	r2, [r3, #4]
 80010ca:	687b      	ldr	r3, [r7, #4]
 80010cc:	685b      	ldr	r3, [r3, #4]
 80010ce:	625a      	str	r2, [r3, #36]	@ 0x24
	set_counts(motor->Motor_Encoding_Struct, (uint16_t) TIM2->CNT);
 80010d0:	687b      	ldr	r3, [r7, #4]
 80010d2:	689b      	ldr	r3, [r3, #8]
 80010d4:	f04f 4280 	mov.w	r2, #1073741824	@ 0x40000000
 80010d8:	6a52      	ldr	r2, [r2, #36]	@ 0x24
 80010da:	b292      	uxth	r2, r2
 80010dc:	4611      	mov	r1, r2
 80010de:	4618      	mov	r0, r3
 80010e0:	f7ff ff5e 	bl	8000fa0 <set_counts>
	return 1;
 80010e4:	2301      	movs	r3, #1
}
 80010e6:	4618      	mov	r0, r3
 80010e8:	3708      	adds	r7, #8
 80010ea:	46bd      	mov	sp, r7
 80010ec:	bd80      	pop	{r7, pc}

080010ee <lmsw_pitch_down_recalibrate>:

int lmsw_pitch_down_recalibrate(Motor * motor){
 80010ee:	b580      	push	{r7, lr}
 80010f0:	b084      	sub	sp, #16
 80010f2:	af00      	add	r7, sp, #0
 80010f4:	6078      	str	r0, [r7, #4]
	//reset to minimum number of counts
	//TODO: ITS NOT SUPPOSED TO BE 0, WHATS THE ACTUAL MIN VALUE????
	int offset = motor->Motor_Encoding_Struct->LMSW_RESET_COUNTS - motor->Motor_Encoding_Struct->ENCODER_MAX_COUNTS/2;
 80010f6:	687b      	ldr	r3, [r7, #4]
 80010f8:	689b      	ldr	r3, [r3, #8]
 80010fa:	685a      	ldr	r2, [r3, #4]
 80010fc:	687b      	ldr	r3, [r7, #4]
 80010fe:	689b      	ldr	r3, [r3, #8]
 8001100:	681b      	ldr	r3, [r3, #0]
 8001102:	0fd9      	lsrs	r1, r3, #31
 8001104:	440b      	add	r3, r1
 8001106:	105b      	asrs	r3, r3, #1
 8001108:	425b      	negs	r3, r3
 800110a:	4413      	add	r3, r2
 800110c:	60fb      	str	r3, [r7, #12]
	set_counts(motor->Motor_Encoding_Struct, offset);
 800110e:	687b      	ldr	r3, [r7, #4]
 8001110:	689b      	ldr	r3, [r3, #8]
 8001112:	68f9      	ldr	r1, [r7, #12]
 8001114:	4618      	mov	r0, r3
 8001116:	f7ff ff43 	bl	8000fa0 <set_counts>
	return 1;
 800111a:	2301      	movs	r3, #1
}
 800111c:	4618      	mov	r0, r3
 800111e:	3710      	adds	r7, #16
 8001120:	46bd      	mov	sp, r7
 8001122:	bd80      	pop	{r7, pc}

08001124 <lmsw_roll_recalibrate>:

int lmsw_roll_recalibrate(Motor * motor){
 8001124:	b580      	push	{r7, lr}
 8001126:	b084      	sub	sp, #16
 8001128:	af00      	add	r7, sp, #0
 800112a:	6078      	str	r0, [r7, #4]
	//reset to minimum number of counts
		//reset counts to 0 -> offset-ed
		int offset = motor->Motor_Encoding_Struct->LMSW_RESET_COUNTS - motor->Motor_Encoding_Struct->ENCODER_MAX_COUNTS/2;
 800112c:	687b      	ldr	r3, [r7, #4]
 800112e:	689b      	ldr	r3, [r3, #8]
 8001130:	685a      	ldr	r2, [r3, #4]
 8001132:	687b      	ldr	r3, [r7, #4]
 8001134:	689b      	ldr	r3, [r3, #8]
 8001136:	681b      	ldr	r3, [r3, #0]
 8001138:	0fd9      	lsrs	r1, r3, #31
 800113a:	440b      	add	r3, r1
 800113c:	105b      	asrs	r3, r3, #1
 800113e:	425b      	negs	r3, r3
 8001140:	4413      	add	r3, r2
 8001142:	60fb      	str	r3, [r7, #12]
		set_counts(motor->Motor_Encoding_Struct, offset);
 8001144:	687b      	ldr	r3, [r7, #4]
 8001146:	689b      	ldr	r3, [r3, #8]
 8001148:	68f9      	ldr	r1, [r7, #12]
 800114a:	4618      	mov	r0, r3
 800114c:	f7ff ff28 	bl	8000fa0 <set_counts>
		return 1;
 8001150:	2301      	movs	r3, #1
}
 8001152:	4618      	mov	r0, r3
 8001154:	3710      	adds	r7, #16
 8001156:	46bd      	mov	sp, r7
 8001158:	bd80      	pop	{r7, pc}

0800115a <lmsw_gripper_recalibrate>:

int lmsw_gripper_recalibrate(Motor * motor){
 800115a:	b580      	push	{r7, lr}
 800115c:	b082      	sub	sp, #8
 800115e:	af00      	add	r7, sp, #0
 8001160:	6078      	str	r0, [r7, #4]
	//reset calibration & set current number of counts to MAX
	motor->ENCODER_type->CNT = motor->Motor_Encoding_Struct->LMSW_RESET_COUNTS;
 8001162:	687b      	ldr	r3, [r7, #4]
 8001164:	689b      	ldr	r3, [r3, #8]
 8001166:	685a      	ldr	r2, [r3, #4]
 8001168:	687b      	ldr	r3, [r7, #4]
 800116a:	685b      	ldr	r3, [r3, #4]
 800116c:	625a      	str	r2, [r3, #36]	@ 0x24
	set_counts(motor->Motor_Encoding_Struct, (uint16_t) TIM2->CNT);
 800116e:	687b      	ldr	r3, [r7, #4]
 8001170:	689b      	ldr	r3, [r3, #8]
 8001172:	f04f 4280 	mov.w	r2, #1073741824	@ 0x40000000
 8001176:	6a52      	ldr	r2, [r2, #36]	@ 0x24
 8001178:	b292      	uxth	r2, r2
 800117a:	4611      	mov	r1, r2
 800117c:	4618      	mov	r0, r3
 800117e:	f7ff ff0f 	bl	8000fa0 <set_counts>
	return 1;
 8001182:	2301      	movs	r3, #1
}
 8001184:	4618      	mov	r0, r3
 8001186:	3708      	adds	r7, #8
 8001188:	46bd      	mov	sp, r7
 800118a:	bd80      	pop	{r7, pc}
 800118c:	0000      	movs	r0, r0
	...

08001190 <main>:
/**
  * @brief  The application entry point.
  * @retval int
  */
int main(void)
{
 8001190:	b580      	push	{r7, lr}
 8001192:	b0c4      	sub	sp, #272	@ 0x110
 8001194:	af06      	add	r7, sp, #24
  /* USER CODE END 1 */

  /* MCU Configuration--------------------------------------------------------*/

  /* Reset of all peripherals, Initializes the Flash interface and the Systick. */
  HAL_Init();
 8001196:	f001 fe6a 	bl	8002e6e <HAL_Init>
  /* USER CODE BEGIN Init */

  /* USER CODE END Init */

  /* Configure the system clock */
  SystemClock_Config();
 800119a:	f000 fa89 	bl	80016b0 <SystemClock_Config>
  /* USER CODE BEGIN SysInit */

  /* USER CODE END SysInit */

  /* Initialize all configured peripherals */
  MX_GPIO_Init();
 800119e:	f000 ff21 	bl	8001fe4 <MX_GPIO_Init>
  MX_ADC1_Init();
 80011a2:	f000 facf 	bl	8001744 <MX_ADC1_Init>
  MX_FDCAN2_Init();
 80011a6:	f000 fb45 	bl	8001834 <MX_FDCAN2_Init>
  MX_TIM1_Init();
 80011aa:	f000 fbcb 	bl	8001944 <MX_TIM1_Init>
  MX_TIM2_Init();
 80011ae:	f000 fc5d 	bl	8001a6c <MX_TIM2_Init>
  MX_TIM3_Init();
 80011b2:	f000 fca9 	bl	8001b08 <MX_TIM3_Init>
  MX_TIM5_Init();
 80011b6:	f000 fd53 	bl	8001c60 <MX_TIM5_Init>
  MX_TIM20_Init();
 80011ba:	f000 fe3b 	bl	8001e34 <MX_TIM20_Init>
  MX_USB_PCD_Init();
 80011be:	f000 fee9 	bl	8001f94 <MX_USB_PCD_Init>
  MX_I2C3_Init();
 80011c2:	f000 fb7f 	bl	80018c4 <MX_I2C3_Init>
  MX_TIM4_Init();
 80011c6:	f000 fcf5 	bl	8001bb4 <MX_TIM4_Init>
  MX_TIM8_Init();
 80011ca:	f000 fd9f 	bl	8001d0c <MX_TIM8_Init>
  /*
   * (int encoder_max_counts, int lm_sw_reset_counts, GPIO_TypeDef* limit_port, uint16_t limit_pin)
   * - encoder max counts: Find the one specific with gear ratio of motors (i.e. more than 1 MAX_COUNT)
   * - limit switch reset counts: depends how angles defined -- corresponds to 180
   */
  motor_encoding_struct_init(&gripper_encoding, 33024, 50000);
 80011ce:	f107 0344 	add.w	r3, r7, #68	@ 0x44
 80011d2:	f24c 3250 	movw	r2, #50000	@ 0xc350
 80011d6:	f44f 4101 	mov.w	r1, #33024	@ 0x8100
 80011da:	4618      	mov	r0, r3
 80011dc:	f7ff fec8 	bl	8000f70 <motor_encoding_struct_init>
  motor_encoding_struct_init(&pitch_encoding, 33024, 50000);
 80011e0:	f107 0334 	add.w	r3, r7, #52	@ 0x34
 80011e4:	f24c 3250 	movw	r2, #50000	@ 0xc350
 80011e8:	f44f 4101 	mov.w	r1, #33024	@ 0x8100
 80011ec:	4618      	mov	r0, r3
 80011ee:	f7ff febf 	bl	8000f70 <motor_encoding_struct_init>
  motor_encoding_struct_init(&roll_encoding, 33024, 50000);
 80011f2:	f107 0324 	add.w	r3, r7, #36	@ 0x24
 80011f6:	f24c 3250 	movw	r2, #50000	@ 0xc350
 80011fa:	f44f 4101 	mov.w	r1, #33024	@ 0x8100
 80011fe:	4618      	mov	r0, r3
 8001200:	f7ff feb6 	bl	8000f70 <motor_encoding_struct_init>
   * 		GPIO_TypeDef* DIR_port, uint16_t DIR_pin, int kPw, int kDw)
   * - motorName: as defined by the motorName enum.
   * - kPw; // proportional gain (how far away from goal)
   * - kDw; //derivative gain (smoothing)
   */
  motor_struct_init(&gripper_motor, TIM20, TIM3, &gripper_encoding, 0, DIR_gripper_GPIO_Port, DIR_gripper_Pin, 50, 5);
 8001204:	f107 0344 	add.w	r3, r7, #68	@ 0x44
 8001208:	f107 0094 	add.w	r0, r7, #148	@ 0x94
 800120c:	2205      	movs	r2, #5
 800120e:	9204      	str	r2, [sp, #16]
 8001210:	2232      	movs	r2, #50	@ 0x32
 8001212:	9203      	str	r2, [sp, #12]
 8001214:	2202      	movs	r2, #2
 8001216:	9202      	str	r2, [sp, #8]
 8001218:	4acf      	ldr	r2, [pc, #828]	@ (8001558 <main+0x3c8>)
 800121a:	9201      	str	r2, [sp, #4]
 800121c:	2200      	movs	r2, #0
 800121e:	9200      	str	r2, [sp, #0]
 8001220:	4ace      	ldr	r2, [pc, #824]	@ (800155c <main+0x3cc>)
 8001222:	49cf      	ldr	r1, [pc, #828]	@ (8001560 <main+0x3d0>)
 8001224:	f001 f852 	bl	80022cc <motor_struct_init>
  motor_struct_init(&roll_motor, TIM8, TIM4, &pitch_encoding, 2, DIR_roll_GPIO_Port, DIR_roll_Pin, 50, 5);
 8001228:	f107 0334 	add.w	r3, r7, #52	@ 0x34
 800122c:	f107 0054 	add.w	r0, r7, #84	@ 0x54
 8001230:	2205      	movs	r2, #5
 8001232:	9204      	str	r2, [sp, #16]
 8001234:	2232      	movs	r2, #50	@ 0x32
 8001236:	9203      	str	r2, [sp, #12]
 8001238:	2280      	movs	r2, #128	@ 0x80
 800123a:	9202      	str	r2, [sp, #8]
 800123c:	4ac9      	ldr	r2, [pc, #804]	@ (8001564 <main+0x3d4>)
 800123e:	9201      	str	r2, [sp, #4]
 8001240:	2202      	movs	r2, #2
 8001242:	9200      	str	r2, [sp, #0]
 8001244:	4ac8      	ldr	r2, [pc, #800]	@ (8001568 <main+0x3d8>)
 8001246:	49c9      	ldr	r1, [pc, #804]	@ (800156c <main+0x3dc>)
 8001248:	f001 f840 	bl	80022cc <motor_struct_init>
  motor_struct_init(&pitch_motor, TIM1, TIM5, &roll_encoding, 1, DIR_pitch_GPIO_Port, DIR_pitch_Pin, 50, 5);
 800124c:	f107 0324 	add.w	r3, r7, #36	@ 0x24
 8001250:	f107 0074 	add.w	r0, r7, #116	@ 0x74
 8001254:	2205      	movs	r2, #5
 8001256:	9204      	str	r2, [sp, #16]
 8001258:	2232      	movs	r2, #50	@ 0x32
 800125a:	9203      	str	r2, [sp, #12]
 800125c:	2204      	movs	r2, #4
 800125e:	9202      	str	r2, [sp, #8]
 8001260:	f04f 4290 	mov.w	r2, #1207959552	@ 0x48000000
 8001264:	9201      	str	r2, [sp, #4]
 8001266:	2201      	movs	r2, #1
 8001268:	9200      	str	r2, [sp, #0]
 800126a:	4ac1      	ldr	r2, [pc, #772]	@ (8001570 <main+0x3e0>)
 800126c:	49c1      	ldr	r1, [pc, #772]	@ (8001574 <main+0x3e4>)
 800126e:	f001 f82d 	bl	80022cc <motor_struct_init>


  all_motors_list[0] = &gripper_motor;
 8001272:	4ac1      	ldr	r2, [pc, #772]	@ (8001578 <main+0x3e8>)
 8001274:	f107 0394 	add.w	r3, r7, #148	@ 0x94
 8001278:	6013      	str	r3, [r2, #0]
  all_motors_list[1] = &roll_motor;
 800127a:	4abf      	ldr	r2, [pc, #764]	@ (8001578 <main+0x3e8>)
 800127c:	f107 0354 	add.w	r3, r7, #84	@ 0x54
 8001280:	6053      	str	r3, [r2, #4]
  all_motors_list[2] = &pitch_motor;
 8001282:	4abd      	ldr	r2, [pc, #756]	@ (8001578 <main+0x3e8>)
 8001284:	f107 0374 	add.w	r3, r7, #116	@ 0x74
 8001288:	6093      	str	r3, [r2, #8]

  //set up Encoders
  HAL_TIM_Encoder_Start(&htim3, TIM_CHANNEL_ALL); // gripper encoder
 800128a:	213c      	movs	r1, #60	@ 0x3c
 800128c:	48bb      	ldr	r0, [pc, #748]	@ (800157c <main+0x3ec>)
 800128e:	f005 fcf2 	bl	8006c76 <HAL_TIM_Encoder_Start>
  HAL_TIM_Encoder_Start(&htim4, TIM_CHANNEL_ALL); // roll encoder
 8001292:	213c      	movs	r1, #60	@ 0x3c
 8001294:	48ba      	ldr	r0, [pc, #744]	@ (8001580 <main+0x3f0>)
 8001296:	f005 fcee 	bl	8006c76 <HAL_TIM_Encoder_Start>
  HAL_TIM_Encoder_Start(&htim5, TIM_CHANNEL_ALL); // pitch encoder
 800129a:	213c      	movs	r1, #60	@ 0x3c
 800129c:	48b9      	ldr	r0, [pc, #740]	@ (8001584 <main+0x3f4>)
 800129e:	f005 fcea 	bl	8006c76 <HAL_TIM_Encoder_Start>
  	  //TIM_CHANNEL_ALL: Enable both channel needed for encoder

  //Setup Motor PWM
  HAL_TIMEx_PWMN_Start(&htim1, TIM_CHANNEL_1); // pitch PWM
 80012a2:	2100      	movs	r1, #0
 80012a4:	48b8      	ldr	r0, [pc, #736]	@ (8001588 <main+0x3f8>)
 80012a6:	f006 fc3f 	bl	8007b28 <HAL_TIMEx_PWMN_Start>
  HAL_TIMEx_PWMN_Start(&htim8, TIM_CHANNEL_1); // roll PWM
 80012aa:	2100      	movs	r1, #0
 80012ac:	48b7      	ldr	r0, [pc, #732]	@ (800158c <main+0x3fc>)
 80012ae:	f006 fc3b 	bl	8007b28 <HAL_TIMEx_PWMN_Start>
  HAL_TIMEx_PWMN_Start(&htim20, TIM_CHANNEL_1); // gripper PWM
 80012b2:	2100      	movs	r1, #0
 80012b4:	48b6      	ldr	r0, [pc, #728]	@ (8001590 <main+0x400>)
 80012b6:	f006 fc37 	bl	8007b28 <HAL_TIMEx_PWMN_Start>
  //setting encoder positions
  //change depending on gear ratio of the motor
  /*
   * offset such that can go 180 right and 180 left without getting to 0 counts(- values)
   */
  gripper_motor.ENCODER_type->CNT = 41744; //gripper
 80012ba:	f8d7 3098 	ldr.w	r3, [r7, #152]	@ 0x98
 80012be:	f24a 3210 	movw	r2, #41744	@ 0xa310
 80012c2:	625a      	str	r2, [r3, #36]	@ 0x24
  roll_motor.ENCODER_type->CNT = 41744; //roll
 80012c4:	6dbb      	ldr	r3, [r7, #88]	@ 0x58
 80012c6:	f24a 3210 	movw	r2, #41744	@ 0xa310
 80012ca:	625a      	str	r2, [r3, #36]	@ 0x24
  pitch_motor.ENCODER_type->CNT = 41744; //pitch
 80012cc:	6fbb      	ldr	r3, [r7, #120]	@ 0x78
 80012ce:	f24a 3210 	movw	r2, #41744	@ 0xa310
 80012d2:	625a      	str	r2, [r3, #36]	@ 0x24

  set_motor_speed_raw(&gripper_motor, 0);
 80012d4:	f107 0394 	add.w	r3, r7, #148	@ 0x94
 80012d8:	2100      	movs	r1, #0
 80012da:	4618      	mov	r0, r3
 80012dc:	f001 f866 	bl	80023ac <set_motor_speed_raw>
  set_motor_speed_raw(&pitch_motor, 0);
 80012e0:	f107 0374 	add.w	r3, r7, #116	@ 0x74
 80012e4:	2100      	movs	r1, #0
 80012e6:	4618      	mov	r0, r3
 80012e8:	f001 f860 	bl	80023ac <set_motor_speed_raw>
  set_motor_speed_raw(&roll_motor, 0);
 80012ec:	f107 0354 	add.w	r3, r7, #84	@ 0x54
 80012f0:	2100      	movs	r1, #0
 80012f2:	4618      	mov	r0, r3
 80012f4:	f001 f85a 	bl	80023ac <set_motor_speed_raw>

  //change to set directions for all 3 motors
  set_motor_direction(&gripper_motor, 1);
 80012f8:	f107 0394 	add.w	r3, r7, #148	@ 0x94
 80012fc:	2101      	movs	r1, #1
 80012fe:	4618      	mov	r0, r3
 8001300:	f001 f872 	bl	80023e8 <set_motor_direction>
  set_motor_direction(&pitch_motor, 1);
 8001304:	f107 0374 	add.w	r3, r7, #116	@ 0x74
 8001308:	2101      	movs	r1, #1
 800130a:	4618      	mov	r0, r3
 800130c:	f001 f86c 	bl	80023e8 <set_motor_direction>
  set_motor_direction(&roll_motor, 1);
 8001310:	f107 0354 	add.w	r3, r7, #84	@ 0x54
 8001314:	2101      	movs	r1, #1
 8001316:	4618      	mov	r0, r3
 8001318:	f001 f866 	bl	80023e8 <set_motor_direction>


  set_counts(&gripper_encoding, 41744);
 800131c:	f107 0344 	add.w	r3, r7, #68	@ 0x44
 8001320:	f24a 3110 	movw	r1, #41744	@ 0xa310
 8001324:	4618      	mov	r0, r3
 8001326:	f7ff fe3b 	bl	8000fa0 <set_counts>
  set_counts(&pitch_encoding, 41744);
 800132a:	f107 0334 	add.w	r3, r7, #52	@ 0x34
 800132e:	f24a 3110 	movw	r1, #41744	@ 0xa310
 8001332:	4618      	mov	r0, r3
 8001334:	f7ff fe34 	bl	8000fa0 <set_counts>
  set_counts(&roll_encoding, 41744);
 8001338:	f107 0324 	add.w	r3, r7, #36	@ 0x24
 800133c:	f24a 3110 	movw	r1, #41744	@ 0xa310
 8001340:	4618      	mov	r0, r3
 8001342:	f7ff fe2d 	bl	8000fa0 <set_counts>


  setPIDGoalA(&gripper_motor, 90);
 8001346:	f107 0394 	add.w	r3, r7, #148	@ 0x94
 800134a:	ed9f 0b81 	vldr	d0, [pc, #516]	@ 8001550 <main+0x3c0>
 800134e:	4618      	mov	r0, r3
 8001350:	f001 f91c 	bl	800258c <setPIDGoalA>
  setPIDGoalA(&pitch_motor, 90);
 8001354:	f107 0374 	add.w	r3, r7, #116	@ 0x74
 8001358:	ed9f 0b7d 	vldr	d0, [pc, #500]	@ 8001550 <main+0x3c0>
 800135c:	4618      	mov	r0, r3
 800135e:	f001 f915 	bl	800258c <setPIDGoalA>
  setPIDGoalA(&roll_motor, 90);
 8001362:	f107 0354 	add.w	r3, r7, #84	@ 0x54
 8001366:	ed9f 0b7a 	vldr	d0, [pc, #488]	@ 8001550 <main+0x3c0>
 800136a:	4618      	mov	r0, r3
 800136c:	f001 f90e 	bl	800258c <setPIDGoalA>



  CalibrateMotor(&gripper_motor); // Calibrate the motor (see Calibration.c).
 8001370:	f107 0394 	add.w	r3, r7, #148	@ 0x94
 8001374:	4618      	mov	r0, r3
 8001376:	f7ff fdda 	bl	8000f2e <CalibrateMotor>
  CalibrateMotor(&roll_motor);
 800137a:	f107 0354 	add.w	r3, r7, #84	@ 0x54
 800137e:	4618      	mov	r0, r3
 8001380:	f7ff fdd5 	bl	8000f2e <CalibrateMotor>
  CalibrateMotor(&pitch_motor);
 8001384:	f107 0374 	add.w	r3, r7, #116	@ 0x74
 8001388:	4618      	mov	r0, r3
 800138a:	f7ff fdd0 	bl	8000f2e <CalibrateMotor>

    // CAN initialization
  // Configure accept-all filter for standard IDs into FIFO0 /
      FDCAN_FilterTypeDef filter;
      //filter.IdType = FDCAN_STANDARD_ID;
      filter.IdType = FDCAN_CLASSIC_CAN;
 800138e:	2300      	movs	r3, #0
 8001390:	60fb      	str	r3, [r7, #12]
      filter.FilterIndex = 0;
 8001392:	2300      	movs	r3, #0
 8001394:	613b      	str	r3, [r7, #16]
      filter.FilterType = FDCAN_FILTER_MASK;
 8001396:	2302      	movs	r3, #2
 8001398:	617b      	str	r3, [r7, #20]
      filter.FilterConfig = FDCAN_FILTER_TO_RXFIFO0;
 800139a:	2301      	movs	r3, #1
 800139c:	61bb      	str	r3, [r7, #24]
      filter.FilterID1 = 0x000; // ID pattern: don't care /
 800139e:	2300      	movs	r3, #0
 80013a0:	61fb      	str	r3, [r7, #28]
      filter.FilterID2 = 0x000; // Mask: 0 = all bits ignored = accept all /
 80013a2:	2300      	movs	r3, #0
 80013a4:	623b      	str	r3, [r7, #32]
      if (HAL_FDCAN_ConfigFilter(&hfdcan2, &filter) != HAL_OK) {
 80013a6:	f107 030c 	add.w	r3, r7, #12
 80013aa:	4619      	mov	r1, r3
 80013ac:	4879      	ldr	r0, [pc, #484]	@ (8001594 <main+0x404>)
 80013ae:	f003 f95b 	bl	8004668 <HAL_FDCAN_ConfigFilter>
 80013b2:	4603      	mov	r3, r0
 80013b4:	2b00      	cmp	r3, #0
 80013b6:	d001      	beq.n	80013bc <main+0x22c>
          Error_Handler();
 80013b8:	f000 ff82 	bl	80022c0 <Error_Handler>
      }

      if (HAL_FDCAN_Start(&hfdcan2) != HAL_OK) {
 80013bc:	4875      	ldr	r0, [pc, #468]	@ (8001594 <main+0x404>)
 80013be:	f003 f9ad 	bl	800471c <HAL_FDCAN_Start>
 80013c2:	4603      	mov	r3, r0
 80013c4:	2b00      	cmp	r3, #0
 80013c6:	d001      	beq.n	80013cc <main+0x23c>
          Error_Handler();
 80013c8:	f000 ff7a 	bl	80022c0 <Error_Handler>
      }

      // Activate RX FIFO0 new message notification //
      if (HAL_FDCAN_ActivateNotification(&hfdcan2, FDCAN_IT_RX_FIFO0_NEW_MESSAGE,
 80013cc:	2200      	movs	r2, #0
 80013ce:	2101      	movs	r1, #1
 80013d0:	4870      	ldr	r0, [pc, #448]	@ (8001594 <main+0x404>)
 80013d2:	f003 fb17 	bl	8004a04 <HAL_FDCAN_ActivateNotification>
 80013d6:	4603      	mov	r3, r0
 80013d8:	2b00      	cmp	r3, #0
 80013da:	d001      	beq.n	80013e0 <main+0x250>
              0) != HAL_OK) {
          Error_Handler();
 80013dc:	f000 ff70 	bl	80022c0 <Error_Handler>
      }




      if (HAL_TIM_Base_Start_IT(&htim2) != HAL_OK) {
 80013e0:	486d      	ldr	r0, [pc, #436]	@ (8001598 <main+0x408>)
 80013e2:	f005 fad3 	bl	800698c <HAL_TIM_Base_Start_IT>
 80013e6:	4603      	mov	r3, r0
 80013e8:	2b00      	cmp	r3, #0
 80013ea:	d001      	beq.n	80013f0 <main+0x260>
          Error_Handler();
 80013ec:	f000 ff68 	bl	80022c0 <Error_Handler>

  /* USER CODE END 2 */

  /* Infinite loop */
  /* USER CODE BEGIN WHILE */
  int LMSW1_buffer = 0;
 80013f0:	2300      	movs	r3, #0
 80013f2:	f8c7 30f4 	str.w	r3, [r7, #244]	@ 0xf4
  int LMSW2_buffer = 0;
 80013f6:	2300      	movs	r3, #0
 80013f8:	f8c7 30f0 	str.w	r3, [r7, #240]	@ 0xf0
  int LMSW5_buffer = 0;
 80013fc:	2300      	movs	r3, #0
 80013fe:	f8c7 30ec 	str.w	r3, [r7, #236]	@ 0xec
  int LMSW6_buffer = 0;
 8001402:	2300      	movs	r3, #0
 8001404:	f8c7 30e8 	str.w	r3, [r7, #232]	@ 0xe8

  int LMSW1_isDebouncing = 0;
 8001408:	2300      	movs	r3, #0
 800140a:	f8c7 30e4 	str.w	r3, [r7, #228]	@ 0xe4
  int LMSW2_isDebouncing = 0;
 800140e:	2300      	movs	r3, #0
 8001410:	f8c7 30e0 	str.w	r3, [r7, #224]	@ 0xe0
  int LMSW5_isDebouncing = 0;
 8001414:	2300      	movs	r3, #0
 8001416:	f8c7 30dc 	str.w	r3, [r7, #220]	@ 0xdc
  int LMSW6_isDebouncing = 0;
 800141a:	2300      	movs	r3, #0
 800141c:	f8c7 30d8 	str.w	r3, [r7, #216]	@ 0xd8
	  //HAL_GPIO_TogglePin(LED_comms_GPIO_Port , LED_comms_Pin);
	  //HAL_Delay(500); // wait 1000 ms (1 second)

	  ParsedCANID header;

	  header.messageSender = 1;
 8001420:	2301      	movs	r3, #1
 8001422:	713b      	strb	r3, [r7, #4]
	  header.motorType = 0;
 8001424:	2300      	movs	r3, #0
 8001426:	717b      	strb	r3, [r7, #5]
	  header.motorConfig = 0;
 8001428:	2300      	movs	r3, #0
 800142a:	71bb      	strb	r3, [r7, #6]
	  header.commandType = 1;
 800142c:	2301      	movs	r3, #1
 800142e:	71fb      	strb	r3, [r7, #7]
	  header.readSpec = 1;
 8001430:	2301      	movs	r3, #1
 8001432:	723b      	strb	r3, [r7, #8]
	  header.runSpec = 1;
 8001434:	2301      	movs	r3, #1
 8001436:	727b      	strb	r3, [r7, #9]
	  header.motorID = 0;
 8001438:	2300      	movs	r3, #0
 800143a:	72bb      	strb	r3, [r7, #10]

	  float message = 69.0f;
 800143c:	4b57      	ldr	r3, [pc, #348]	@ (800159c <main+0x40c>)
 800143e:	f8c7 30d4 	str.w	r3, [r7, #212]	@ 0xd4

	  sendCANResponse(&header, message);
 8001442:	1d3b      	adds	r3, r7, #4
 8001444:	ed97 0a35 	vldr	s0, [r7, #212]	@ 0xd4
 8001448:	4618      	mov	r0, r3
 800144a:	f7ff fd05 	bl	8000e58 <sendCANResponse>
	  HAL_Delay(1000);
 800144e:	f44f 707a 	mov.w	r0, #1000	@ 0x3e8
 8001452:	f001 fd7d 	bl	8002f50 <HAL_Delay>

	  // Process Message if available
	  if (CAN_flag){
 8001456:	4b52      	ldr	r3, [pc, #328]	@ (80015a0 <main+0x410>)
 8001458:	681b      	ldr	r3, [r3, #0]
 800145a:	2b00      	cmp	r3, #0
 800145c:	d006      	beq.n	800146c <main+0x2dc>

		CAN_flag = 0;
 800145e:	4b50      	ldr	r3, [pc, #320]	@ (80015a0 <main+0x410>)
 8001460:	2200      	movs	r2, #0
 8001462:	601a      	str	r2, [r3, #0]
		//HAL_GPIO_TogglePin(LED_pitch_GPIO_Port, LED_pitch_Pin);
		//HAL_GPIO_TogglePin(LED_comms_GPIO_Port , LED_comms_Pin);

		//if (steering_state != CALIBRATION){
		CAN_Parse_MSG(&RxHeader, RxData);
 8001464:	494f      	ldr	r1, [pc, #316]	@ (80015a4 <main+0x414>)
 8001466:	4850      	ldr	r0, [pc, #320]	@ (80015a8 <main+0x418>)
 8001468:	f7ff fbf6 	bl	8000c58 <CAN_Parse_MSG>

		//HAL_Delay(1000);
	  }


	  if (LMSW1_flag_pitch_up){
 800146c:	4b4f      	ldr	r3, [pc, #316]	@ (80015ac <main+0x41c>)
 800146e:	681b      	ldr	r3, [r3, #0]
 8001470:	2b00      	cmp	r3, #0
 8001472:	d010      	beq.n	8001496 <main+0x306>
		  int switch_state = HAL_GPIO_ReadPin(Limit_switch_1_GPIO_Port, Limit_switch_1_Pin);
 8001474:	2120      	movs	r1, #32
 8001476:	4838      	ldr	r0, [pc, #224]	@ (8001558 <main+0x3c8>)
 8001478:	f003 ffb0 	bl	80053dc <HAL_GPIO_ReadPin>
 800147c:	4603      	mov	r3, r0
 800147e:	f8c7 30d0 	str.w	r3, [r7, #208]	@ 0xd0
			if (!switch_state){
 8001482:	f8d7 30d0 	ldr.w	r3, [r7, #208]	@ 0xd0
 8001486:	2b00      	cmp	r3, #0
 8001488:	d102      	bne.n	8001490 <main+0x300>
				LMSW1_isDebouncing = 1;// 1st trigger detected: following code for debouncing
 800148a:	2301      	movs	r3, #1
 800148c:	f8c7 30e4 	str.w	r3, [r7, #228]	@ 0xe4
			}

		  LMSW1_flag_pitch_up = 0;
 8001490:	4b46      	ldr	r3, [pc, #280]	@ (80015ac <main+0x41c>)
 8001492:	2200      	movs	r2, #0
 8001494:	601a      	str	r2, [r3, #0]
	  }

	  if (LMSW1_isDebouncing){
 8001496:	f8d7 30e4 	ldr.w	r3, [r7, #228]	@ 0xe4
 800149a:	2b00      	cmp	r3, #0
 800149c:	d01e      	beq.n	80014dc <main+0x34c>
		 //check that at–– least 32 consecutive readings of switch = 1
		 //ensures that the switch reading is stabilized
		 int current_switch_reading = HAL_GPIO_ReadPin(Limit_switch_1_GPIO_Port, Limit_switch_1_Pin);
 800149e:	2120      	movs	r1, #32
 80014a0:	482d      	ldr	r0, [pc, #180]	@ (8001558 <main+0x3c8>)
 80014a2:	f003 ff9b 	bl	80053dc <HAL_GPIO_ReadPin>
 80014a6:	4603      	mov	r3, r0
 80014a8:	f8c7 30cc 	str.w	r3, [r7, #204]	@ 0xcc
			LMSW1_buffer = (LMSW1_buffer<<1) | current_switch_reading;
 80014ac:	f8d7 30f4 	ldr.w	r3, [r7, #244]	@ 0xf4
 80014b0:	005b      	lsls	r3, r3, #1
 80014b2:	f8d7 20cc 	ldr.w	r2, [r7, #204]	@ 0xcc
 80014b6:	4313      	orrs	r3, r2
 80014b8:	f8c7 30f4 	str.w	r3, [r7, #244]	@ 0xf4

		 //only once stable switch reading that perform switch actions
		 if (LMSW1_buffer == 0xFFFFFFFF){
 80014bc:	f8d7 30f4 	ldr.w	r3, [r7, #244]	@ 0xf4
 80014c0:	f1b3 3fff 	cmp.w	r3, #4294967295
 80014c4:	d10a      	bne.n	80014dc <main+0x34c>
			LMSW1_isDebouncing = 0;
 80014c6:	2300      	movs	r3, #0
 80014c8:	f8c7 30e4 	str.w	r3, [r7, #228]	@ 0xe4
			LMSW1_buffer = 0;
 80014cc:	2300      	movs	r3, #0
 80014ce:	f8c7 30f4 	str.w	r3, [r7, #244]	@ 0xf4
			lmsw_pitch_up_recalibrate(&pitch_motor); // actual action to do on switch
 80014d2:	f107 0374 	add.w	r3, r7, #116	@ 0x74
 80014d6:	4618      	mov	r0, r3
 80014d8:	f7ff fdf0 	bl	80010bc <lmsw_pitch_up_recalibrate>
		 }
	  }



	  if (LMSW2_flag_pitch_down){
 80014dc:	4b34      	ldr	r3, [pc, #208]	@ (80015b0 <main+0x420>)
 80014de:	681b      	ldr	r3, [r3, #0]
 80014e0:	2b00      	cmp	r3, #0
 80014e2:	d010      	beq.n	8001506 <main+0x376>
		  int switch_state = HAL_GPIO_ReadPin(Limit_switch_2_GPIO_Port, Limit_switch_2_Pin);
 80014e4:	2110      	movs	r1, #16
 80014e6:	481c      	ldr	r0, [pc, #112]	@ (8001558 <main+0x3c8>)
 80014e8:	f003 ff78 	bl	80053dc <HAL_GPIO_ReadPin>
 80014ec:	4603      	mov	r3, r0
 80014ee:	f8c7 30c8 	str.w	r3, [r7, #200]	@ 0xc8
			if (!switch_state){
 80014f2:	f8d7 30c8 	ldr.w	r3, [r7, #200]	@ 0xc8
 80014f6:	2b00      	cmp	r3, #0
 80014f8:	d102      	bne.n	8001500 <main+0x370>
				LMSW2_isDebouncing = 1;
 80014fa:	2301      	movs	r3, #1
 80014fc:	f8c7 30e0 	str.w	r3, [r7, #224]	@ 0xe0
			}
		  LMSW2_flag_pitch_down = 0;
 8001500:	4b2b      	ldr	r3, [pc, #172]	@ (80015b0 <main+0x420>)
 8001502:	2200      	movs	r2, #0
 8001504:	601a      	str	r2, [r3, #0]
	  }

	  if (LMSW2_isDebouncing){
 8001506:	f8d7 30e0 	ldr.w	r3, [r7, #224]	@ 0xe0
 800150a:	2b00      	cmp	r3, #0
 800150c:	d052      	beq.n	80015b4 <main+0x424>
	  		 //check that at–– least 32 consecutive readings of switch = 1
	  		 //ensures that the switch reading is stabilized
	  		 int current_switch_reading = HAL_GPIO_ReadPin(Limit_switch_2_GPIO_Port, Limit_switch_2_Pin);
 800150e:	2110      	movs	r1, #16
 8001510:	4811      	ldr	r0, [pc, #68]	@ (8001558 <main+0x3c8>)
 8001512:	f003 ff63 	bl	80053dc <HAL_GPIO_ReadPin>
 8001516:	4603      	mov	r3, r0
 8001518:	f8c7 30c4 	str.w	r3, [r7, #196]	@ 0xc4
	  			LMSW2_buffer = (LMSW2_buffer<<1) | current_switch_reading;
 800151c:	f8d7 30f0 	ldr.w	r3, [r7, #240]	@ 0xf0
 8001520:	005b      	lsls	r3, r3, #1
 8001522:	f8d7 20c4 	ldr.w	r2, [r7, #196]	@ 0xc4
 8001526:	4313      	orrs	r3, r2
 8001528:	f8c7 30f0 	str.w	r3, [r7, #240]	@ 0xf0

	  		 //only once stable switch reading that perform switch actions
	  		 if (LMSW2_buffer == 0xFFFFFFFF){
 800152c:	f8d7 30f0 	ldr.w	r3, [r7, #240]	@ 0xf0
 8001530:	f1b3 3fff 	cmp.w	r3, #4294967295
 8001534:	d13e      	bne.n	80015b4 <main+0x424>
	  			LMSW2_isDebouncing = 0;
 8001536:	2300      	movs	r3, #0
 8001538:	f8c7 30e0 	str.w	r3, [r7, #224]	@ 0xe0
	  			LMSW2_buffer = 0;
 800153c:	2300      	movs	r3, #0
 800153e:	f8c7 30f0 	str.w	r3, [r7, #240]	@ 0xf0
	  			lmsw_pitch_down_recalibrate(&pitch_motor); // actual action to do on switch
 8001542:	f107 0374 	add.w	r3, r7, #116	@ 0x74
 8001546:	4618      	mov	r0, r3
 8001548:	f7ff fdd1 	bl	80010ee <lmsw_pitch_down_recalibrate>
 800154c:	e032      	b.n	80015b4 <main+0x424>
 800154e:	bf00      	nop
 8001550:	00000000 	.word	0x00000000
 8001554:	40568000 	.word	0x40568000
 8001558:	48000400 	.word	0x48000400
 800155c:	40000400 	.word	0x40000400
 8001560:	40015000 	.word	0x40015000
 8001564:	48000800 	.word	0x48000800
 8001568:	40000800 	.word	0x40000800
 800156c:	40013400 	.word	0x40013400
 8001570:	40000c00 	.word	0x40000c00
 8001574:	40012c00 	.word	0x40012c00
 8001578:	200006fc 	.word	0x200006fc
 800157c:	2000023c 	.word	0x2000023c
 8001580:	20000288 	.word	0x20000288
 8001584:	200002d4 	.word	0x200002d4
 8001588:	200001a4 	.word	0x200001a4
 800158c:	20000320 	.word	0x20000320
 8001590:	2000036c 	.word	0x2000036c
 8001594:	200000ec 	.word	0x200000ec
 8001598:	200001f0 	.word	0x200001f0
 800159c:	428a0000 	.word	0x428a0000
 80015a0:	20000708 	.word	0x20000708
 80015a4:	200006bc 	.word	0x200006bc
 80015a8:	20000694 	.word	0x20000694
 80015ac:	2000070c 	.word	0x2000070c
 80015b0:	20000710 	.word	0x20000710
	  		 }
	  }



	  if (LMSW5_flag_roll){
 80015b4:	4b3b      	ldr	r3, [pc, #236]	@ (80016a4 <main+0x514>)
 80015b6:	681b      	ldr	r3, [r3, #0]
 80015b8:	2b00      	cmp	r3, #0
 80015ba:	d011      	beq.n	80015e0 <main+0x450>
		  int switch_state = HAL_GPIO_ReadPin(Limit_switch_5_GPIO_Port, Limit_switch_5_Pin);
 80015bc:	f44f 6100 	mov.w	r1, #2048	@ 0x800
 80015c0:	4839      	ldr	r0, [pc, #228]	@ (80016a8 <main+0x518>)
 80015c2:	f003 ff0b 	bl	80053dc <HAL_GPIO_ReadPin>
 80015c6:	4603      	mov	r3, r0
 80015c8:	f8c7 30c0 	str.w	r3, [r7, #192]	@ 0xc0
			if (!switch_state){
 80015cc:	f8d7 30c0 	ldr.w	r3, [r7, #192]	@ 0xc0
 80015d0:	2b00      	cmp	r3, #0
 80015d2:	d102      	bne.n	80015da <main+0x44a>
				LMSW5_isDebouncing = 1;
 80015d4:	2301      	movs	r3, #1
 80015d6:	f8c7 30dc 	str.w	r3, [r7, #220]	@ 0xdc
			}
		  LMSW5_flag_roll = 0;
 80015da:	4b32      	ldr	r3, [pc, #200]	@ (80016a4 <main+0x514>)
 80015dc:	2200      	movs	r2, #0
 80015de:	601a      	str	r2, [r3, #0]
	  }
	  if (LMSW5_isDebouncing){
 80015e0:	f8d7 30dc 	ldr.w	r3, [r7, #220]	@ 0xdc
 80015e4:	2b00      	cmp	r3, #0
 80015e6:	d01f      	beq.n	8001628 <main+0x498>
	  		 //check that at–– least 32 consecutive readings of switch = 1
	  		 //ensures that the switch reading is stabilized
	  		 int current_switch_reading = HAL_GPIO_ReadPin(Limit_switch_5_GPIO_Port, Limit_switch_5_Pin);
 80015e8:	f44f 6100 	mov.w	r1, #2048	@ 0x800
 80015ec:	482e      	ldr	r0, [pc, #184]	@ (80016a8 <main+0x518>)
 80015ee:	f003 fef5 	bl	80053dc <HAL_GPIO_ReadPin>
 80015f2:	4603      	mov	r3, r0
 80015f4:	f8c7 30bc 	str.w	r3, [r7, #188]	@ 0xbc
	  			LMSW5_buffer = (LMSW5_buffer<<1) | current_switch_reading;
 80015f8:	f8d7 30ec 	ldr.w	r3, [r7, #236]	@ 0xec
 80015fc:	005b      	lsls	r3, r3, #1
 80015fe:	f8d7 20bc 	ldr.w	r2, [r7, #188]	@ 0xbc
 8001602:	4313      	orrs	r3, r2
 8001604:	f8c7 30ec 	str.w	r3, [r7, #236]	@ 0xec

	  		 //only once stable switch reading that perform switch actions
	  		 if (LMSW5_buffer == 0xFFFFFFFF){
 8001608:	f8d7 30ec 	ldr.w	r3, [r7, #236]	@ 0xec
 800160c:	f1b3 3fff 	cmp.w	r3, #4294967295
 8001610:	d10a      	bne.n	8001628 <main+0x498>
	  			LMSW5_isDebouncing = 0;
 8001612:	2300      	movs	r3, #0
 8001614:	f8c7 30dc 	str.w	r3, [r7, #220]	@ 0xdc
	  			LMSW5_buffer = 0;
 8001618:	2300      	movs	r3, #0
 800161a:	f8c7 30ec 	str.w	r3, [r7, #236]	@ 0xec
	  			lmsw_roll_recalibrate(&roll_motor); // actual action to do on switch
 800161e:	f107 0354 	add.w	r3, r7, #84	@ 0x54
 8001622:	4618      	mov	r0, r3
 8001624:	f7ff fd7e 	bl	8001124 <lmsw_roll_recalibrate>
	  		 }
	  }


	  if (LMSW6_flag_gripper){
 8001628:	4b20      	ldr	r3, [pc, #128]	@ (80016ac <main+0x51c>)
 800162a:	681b      	ldr	r3, [r3, #0]
 800162c:	2b00      	cmp	r3, #0
 800162e:	d011      	beq.n	8001654 <main+0x4c4>
		  int switch_state = HAL_GPIO_ReadPin(Limit_switch_6_GPIO_Port, Limit_switch_6_Pin);
 8001630:	f44f 6180 	mov.w	r1, #1024	@ 0x400
 8001634:	481c      	ldr	r0, [pc, #112]	@ (80016a8 <main+0x518>)
 8001636:	f003 fed1 	bl	80053dc <HAL_GPIO_ReadPin>
 800163a:	4603      	mov	r3, r0
 800163c:	f8c7 30b8 	str.w	r3, [r7, #184]	@ 0xb8
			if (!switch_state){
 8001640:	f8d7 30b8 	ldr.w	r3, [r7, #184]	@ 0xb8
 8001644:	2b00      	cmp	r3, #0
 8001646:	d102      	bne.n	800164e <main+0x4be>
				LMSW6_isDebouncing = 1;
 8001648:	2301      	movs	r3, #1
 800164a:	f8c7 30d8 	str.w	r3, [r7, #216]	@ 0xd8
			}
		  LMSW6_flag_gripper = 0;
 800164e:	4b17      	ldr	r3, [pc, #92]	@ (80016ac <main+0x51c>)
 8001650:	2200      	movs	r2, #0
 8001652:	601a      	str	r2, [r3, #0]
	  }

	  if (LMSW6_isDebouncing){
 8001654:	f8d7 30d8 	ldr.w	r3, [r7, #216]	@ 0xd8
 8001658:	2b00      	cmp	r3, #0
 800165a:	f43f aee1 	beq.w	8001420 <main+0x290>
	  		 //check that at–– least 32 consecutive readings of switch = 1
	  		 //ensures that the switch reading is stabilized
	  		 int current_switch_reading = HAL_GPIO_ReadPin(Limit_switch_6_GPIO_Port, Limit_switch_6_Pin);
 800165e:	f44f 6180 	mov.w	r1, #1024	@ 0x400
 8001662:	4811      	ldr	r0, [pc, #68]	@ (80016a8 <main+0x518>)
 8001664:	f003 feba 	bl	80053dc <HAL_GPIO_ReadPin>
 8001668:	4603      	mov	r3, r0
 800166a:	f8c7 30b4 	str.w	r3, [r7, #180]	@ 0xb4
	  			LMSW6_buffer = (LMSW6_buffer<<1) | current_switch_reading;
 800166e:	f8d7 30e8 	ldr.w	r3, [r7, #232]	@ 0xe8
 8001672:	005b      	lsls	r3, r3, #1
 8001674:	f8d7 20b4 	ldr.w	r2, [r7, #180]	@ 0xb4
 8001678:	4313      	orrs	r3, r2
 800167a:	f8c7 30e8 	str.w	r3, [r7, #232]	@ 0xe8

	  		 //only once stable switch reading that perform switch actions
	  		 if (LMSW6_buffer == 0xFFFFFFFF){
 800167e:	f8d7 30e8 	ldr.w	r3, [r7, #232]	@ 0xe8
 8001682:	f1b3 3fff 	cmp.w	r3, #4294967295
 8001686:	f47f aecb 	bne.w	8001420 <main+0x290>
	  			LMSW6_isDebouncing = 0;
 800168a:	2300      	movs	r3, #0
 800168c:	f8c7 30d8 	str.w	r3, [r7, #216]	@ 0xd8
	  			LMSW6_buffer = 0;
 8001690:	2300      	movs	r3, #0
 8001692:	f8c7 30e8 	str.w	r3, [r7, #232]	@ 0xe8
	  			lmsw_gripper_recalibrate(&gripper_motor); // actual action to do on switch
 8001696:	f107 0394 	add.w	r3, r7, #148	@ 0x94
 800169a:	4618      	mov	r0, r3
 800169c:	f7ff fd5d 	bl	800115a <lmsw_gripper_recalibrate>
  {
 80016a0:	e6be      	b.n	8001420 <main+0x290>
 80016a2:	bf00      	nop
 80016a4:	20000714 	.word	0x20000714
 80016a8:	48000800 	.word	0x48000800
 80016ac:	20000718 	.word	0x20000718

080016b0 <SystemClock_Config>:
/**
  * @brief System Clock Configuration
  * @retval None
  */
void SystemClock_Config(void)
{
 80016b0:	b580      	push	{r7, lr}
 80016b2:	b094      	sub	sp, #80	@ 0x50
 80016b4:	af00      	add	r7, sp, #0
  RCC_OscInitTypeDef RCC_OscInitStruct = {0};
 80016b6:	f107 0318 	add.w	r3, r7, #24
 80016ba:	2238      	movs	r2, #56	@ 0x38
 80016bc:	2100      	movs	r1, #0
 80016be:	4618      	mov	r0, r3
 80016c0:	f006 fc7c 	bl	8007fbc <memset>
  RCC_ClkInitTypeDef RCC_ClkInitStruct = {0};
 80016c4:	1d3b      	adds	r3, r7, #4
 80016c6:	2200      	movs	r2, #0
 80016c8:	601a      	str	r2, [r3, #0]
 80016ca:	605a      	str	r2, [r3, #4]
 80016cc:	609a      	str	r2, [r3, #8]
 80016ce:	60da      	str	r2, [r3, #12]
 80016d0:	611a      	str	r2, [r3, #16]

  /** Configure the main internal regulator output voltage
  */
  HAL_PWREx_ControlVoltageScaling(PWR_REGULATOR_VOLTAGE_SCALE1);
 80016d2:	f44f 7000 	mov.w	r0, #512	@ 0x200
 80016d6:	f004 f90d 	bl	80058f4 <HAL_PWREx_ControlVoltageScaling>

  /** Initializes the RCC Oscillators according to the specified parameters
  * in the RCC_OscInitTypeDef structure.
  */
  RCC_OscInitStruct.OscillatorType = RCC_OSCILLATORTYPE_HSE;
 80016da:	2301      	movs	r3, #1
 80016dc:	61bb      	str	r3, [r7, #24]
  RCC_OscInitStruct.HSEState = RCC_HSE_ON;
 80016de:	f44f 3380 	mov.w	r3, #65536	@ 0x10000
 80016e2:	61fb      	str	r3, [r7, #28]
  RCC_OscInitStruct.PLL.PLLState = RCC_PLL_ON;
 80016e4:	2302      	movs	r3, #2
 80016e6:	637b      	str	r3, [r7, #52]	@ 0x34
  RCC_OscInitStruct.PLL.PLLSource = RCC_PLLSOURCE_HSE;
 80016e8:	2303      	movs	r3, #3
 80016ea:	63bb      	str	r3, [r7, #56]	@ 0x38
  RCC_OscInitStruct.PLL.PLLM = RCC_PLLM_DIV1;
 80016ec:	2301      	movs	r3, #1
 80016ee:	63fb      	str	r3, [r7, #60]	@ 0x3c
  RCC_OscInitStruct.PLL.PLLN = 18;
 80016f0:	2312      	movs	r3, #18
 80016f2:	643b      	str	r3, [r7, #64]	@ 0x40
  RCC_OscInitStruct.PLL.PLLP = RCC_PLLP_DIV2;
 80016f4:	2302      	movs	r3, #2
 80016f6:	647b      	str	r3, [r7, #68]	@ 0x44
  RCC_OscInitStruct.PLL.PLLQ = RCC_PLLQ_DIV6;
 80016f8:	2306      	movs	r3, #6
 80016fa:	64bb      	str	r3, [r7, #72]	@ 0x48
  RCC_OscInitStruct.PLL.PLLR = RCC_PLLR_DIV4;
 80016fc:	2304      	movs	r3, #4
 80016fe:	64fb      	str	r3, [r7, #76]	@ 0x4c
  if (HAL_RCC_OscConfig(&RCC_OscInitStruct) != HAL_OK)
 8001700:	f107 0318 	add.w	r3, r7, #24
 8001704:	4618      	mov	r0, r3
 8001706:	f004 f9a9 	bl	8005a5c <HAL_RCC_OscConfig>
 800170a:	4603      	mov	r3, r0
 800170c:	2b00      	cmp	r3, #0
 800170e:	d001      	beq.n	8001714 <SystemClock_Config+0x64>
  {
    Error_Handler();
 8001710:	f000 fdd6 	bl	80022c0 <Error_Handler>
  }

  /** Initializes the CPU, AHB and APB buses clocks
  */
  RCC_ClkInitStruct.ClockType = RCC_CLOCKTYPE_HCLK|RCC_CLOCKTYPE_SYSCLK
 8001714:	230f      	movs	r3, #15
 8001716:	607b      	str	r3, [r7, #4]
                              |RCC_CLOCKTYPE_PCLK1|RCC_CLOCKTYPE_PCLK2;
  RCC_ClkInitStruct.SYSCLKSource = RCC_SYSCLKSOURCE_PLLCLK;
 8001718:	2303      	movs	r3, #3
 800171a:	60bb      	str	r3, [r7, #8]
  RCC_ClkInitStruct.AHBCLKDivider = RCC_SYSCLK_DIV1;
 800171c:	2300      	movs	r3, #0
 800171e:	60fb      	str	r3, [r7, #12]
  RCC_ClkInitStruct.APB1CLKDivider = RCC_HCLK_DIV1;
 8001720:	2300      	movs	r3, #0
 8001722:	613b      	str	r3, [r7, #16]
  RCC_ClkInitStruct.APB2CLKDivider = RCC_HCLK_DIV1;
 8001724:	2300      	movs	r3, #0
 8001726:	617b      	str	r3, [r7, #20]

  if (HAL_RCC_ClockConfig(&RCC_ClkInitStruct, FLASH_LATENCY_2) != HAL_OK)
 8001728:	1d3b      	adds	r3, r7, #4
 800172a:	2102      	movs	r1, #2
 800172c:	4618      	mov	r0, r3
 800172e:	f004 fca7 	bl	8006080 <HAL_RCC_ClockConfig>
 8001732:	4603      	mov	r3, r0
 8001734:	2b00      	cmp	r3, #0
 8001736:	d001      	beq.n	800173c <SystemClock_Config+0x8c>
  {
    Error_Handler();
 8001738:	f000 fdc2 	bl	80022c0 <Error_Handler>
  }
}
 800173c:	bf00      	nop
 800173e:	3750      	adds	r7, #80	@ 0x50
 8001740:	46bd      	mov	sp, r7
 8001742:	bd80      	pop	{r7, pc}

08001744 <MX_ADC1_Init>:
  * @brief ADC1 Initialization Function
  * @param None
  * @retval None
  */
static void MX_ADC1_Init(void)
{
 8001744:	b580      	push	{r7, lr}
 8001746:	b08c      	sub	sp, #48	@ 0x30
 8001748:	af00      	add	r7, sp, #0

  /* USER CODE BEGIN ADC1_Init 0 */

  /* USER CODE END ADC1_Init 0 */

  ADC_MultiModeTypeDef multimode = {0};
 800174a:	f107 0324 	add.w	r3, r7, #36	@ 0x24
 800174e:	2200      	movs	r2, #0
 8001750:	601a      	str	r2, [r3, #0]
 8001752:	605a      	str	r2, [r3, #4]
 8001754:	609a      	str	r2, [r3, #8]
  ADC_ChannelConfTypeDef sConfig = {0};
 8001756:	1d3b      	adds	r3, r7, #4
 8001758:	2220      	movs	r2, #32
 800175a:	2100      	movs	r1, #0
 800175c:	4618      	mov	r0, r3
 800175e:	f006 fc2d 	bl	8007fbc <memset>

  /* USER CODE END ADC1_Init 1 */

  /** Common config
  */
  hadc1.Instance = ADC1;
 8001762:	4b32      	ldr	r3, [pc, #200]	@ (800182c <MX_ADC1_Init+0xe8>)
 8001764:	f04f 42a0 	mov.w	r2, #1342177280	@ 0x50000000
 8001768:	601a      	str	r2, [r3, #0]
  hadc1.Init.ClockPrescaler = ADC_CLOCK_SYNC_PCLK_DIV2;
 800176a:	4b30      	ldr	r3, [pc, #192]	@ (800182c <MX_ADC1_Init+0xe8>)
 800176c:	f44f 3200 	mov.w	r2, #131072	@ 0x20000
 8001770:	605a      	str	r2, [r3, #4]
  hadc1.Init.Resolution = ADC_RESOLUTION_12B;
 8001772:	4b2e      	ldr	r3, [pc, #184]	@ (800182c <MX_ADC1_Init+0xe8>)
 8001774:	2200      	movs	r2, #0
 8001776:	609a      	str	r2, [r3, #8]
  hadc1.Init.DataAlign = ADC_DATAALIGN_RIGHT;
 8001778:	4b2c      	ldr	r3, [pc, #176]	@ (800182c <MX_ADC1_Init+0xe8>)
 800177a:	2200      	movs	r2, #0
 800177c:	60da      	str	r2, [r3, #12]
  hadc1.Init.GainCompensation = 0;
 800177e:	4b2b      	ldr	r3, [pc, #172]	@ (800182c <MX_ADC1_Init+0xe8>)
 8001780:	2200      	movs	r2, #0
 8001782:	611a      	str	r2, [r3, #16]
  hadc1.Init.ScanConvMode = ADC_SCAN_DISABLE;
 8001784:	4b29      	ldr	r3, [pc, #164]	@ (800182c <MX_ADC1_Init+0xe8>)
 8001786:	2200      	movs	r2, #0
 8001788:	615a      	str	r2, [r3, #20]
  hadc1.Init.EOCSelection = ADC_EOC_SINGLE_CONV;
 800178a:	4b28      	ldr	r3, [pc, #160]	@ (800182c <MX_ADC1_Init+0xe8>)
 800178c:	2204      	movs	r2, #4
 800178e:	619a      	str	r2, [r3, #24]
  hadc1.Init.LowPowerAutoWait = DISABLE;
 8001790:	4b26      	ldr	r3, [pc, #152]	@ (800182c <MX_ADC1_Init+0xe8>)
 8001792:	2200      	movs	r2, #0
 8001794:	771a      	strb	r2, [r3, #28]
  hadc1.Init.ContinuousConvMode = DISABLE;
 8001796:	4b25      	ldr	r3, [pc, #148]	@ (800182c <MX_ADC1_Init+0xe8>)
 8001798:	2200      	movs	r2, #0
 800179a:	775a      	strb	r2, [r3, #29]
  hadc1.Init.NbrOfConversion = 1;
 800179c:	4b23      	ldr	r3, [pc, #140]	@ (800182c <MX_ADC1_Init+0xe8>)
 800179e:	2201      	movs	r2, #1
 80017a0:	621a      	str	r2, [r3, #32]
  hadc1.Init.DiscontinuousConvMode = DISABLE;
 80017a2:	4b22      	ldr	r3, [pc, #136]	@ (800182c <MX_ADC1_Init+0xe8>)
 80017a4:	2200      	movs	r2, #0
 80017a6:	f883 2024 	strb.w	r2, [r3, #36]	@ 0x24
  hadc1.Init.ExternalTrigConv = ADC_SOFTWARE_START;
 80017aa:	4b20      	ldr	r3, [pc, #128]	@ (800182c <MX_ADC1_Init+0xe8>)
 80017ac:	2200      	movs	r2, #0
 80017ae:	62da      	str	r2, [r3, #44]	@ 0x2c
  hadc1.Init.ExternalTrigConvEdge = ADC_EXTERNALTRIGCONVEDGE_NONE;
 80017b0:	4b1e      	ldr	r3, [pc, #120]	@ (800182c <MX_ADC1_Init+0xe8>)
 80017b2:	2200      	movs	r2, #0
 80017b4:	631a      	str	r2, [r3, #48]	@ 0x30
  hadc1.Init.DMAContinuousRequests = DISABLE;
 80017b6:	4b1d      	ldr	r3, [pc, #116]	@ (800182c <MX_ADC1_Init+0xe8>)
 80017b8:	2200      	movs	r2, #0
 80017ba:	f883 2038 	strb.w	r2, [r3, #56]	@ 0x38
  hadc1.Init.Overrun = ADC_OVR_DATA_PRESERVED;
 80017be:	4b1b      	ldr	r3, [pc, #108]	@ (800182c <MX_ADC1_Init+0xe8>)
 80017c0:	2200      	movs	r2, #0
 80017c2:	63da      	str	r2, [r3, #60]	@ 0x3c
  hadc1.Init.OversamplingMode = DISABLE;
 80017c4:	4b19      	ldr	r3, [pc, #100]	@ (800182c <MX_ADC1_Init+0xe8>)
 80017c6:	2200      	movs	r2, #0
 80017c8:	f883 2040 	strb.w	r2, [r3, #64]	@ 0x40
  if (HAL_ADC_Init(&hadc1) != HAL_OK)
 80017cc:	4817      	ldr	r0, [pc, #92]	@ (800182c <MX_ADC1_Init+0xe8>)
 80017ce:	f001 fdb7 	bl	8003340 <HAL_ADC_Init>
 80017d2:	4603      	mov	r3, r0
 80017d4:	2b00      	cmp	r3, #0
 80017d6:	d001      	beq.n	80017dc <MX_ADC1_Init+0x98>
  {
    Error_Handler();
 80017d8:	f000 fd72 	bl	80022c0 <Error_Handler>
  }

  /** Configure the ADC multi-mode
  */
  multimode.Mode = ADC_MODE_INDEPENDENT;
 80017dc:	2300      	movs	r3, #0
 80017de:	627b      	str	r3, [r7, #36]	@ 0x24
  if (HAL_ADCEx_MultiModeConfigChannel(&hadc1, &multimode) != HAL_OK)
 80017e0:	f107 0324 	add.w	r3, r7, #36	@ 0x24
 80017e4:	4619      	mov	r1, r3
 80017e6:	4811      	ldr	r0, [pc, #68]	@ (800182c <MX_ADC1_Init+0xe8>)
 80017e8:	f002 fbcc 	bl	8003f84 <HAL_ADCEx_MultiModeConfigChannel>
 80017ec:	4603      	mov	r3, r0
 80017ee:	2b00      	cmp	r3, #0
 80017f0:	d001      	beq.n	80017f6 <MX_ADC1_Init+0xb2>
  {
    Error_Handler();
 80017f2:	f000 fd65 	bl	80022c0 <Error_Handler>
  }

  /** Configure Regular Channel
  */
  sConfig.Channel = ADC_CHANNEL_7;
 80017f6:	4b0e      	ldr	r3, [pc, #56]	@ (8001830 <MX_ADC1_Init+0xec>)
 80017f8:	607b      	str	r3, [r7, #4]
  sConfig.Rank = ADC_REGULAR_RANK_1;
 80017fa:	2306      	movs	r3, #6
 80017fc:	60bb      	str	r3, [r7, #8]
  sConfig.SamplingTime = ADC_SAMPLETIME_2CYCLES_5;
 80017fe:	2300      	movs	r3, #0
 8001800:	60fb      	str	r3, [r7, #12]
  sConfig.SingleDiff = ADC_SINGLE_ENDED;
 8001802:	237f      	movs	r3, #127	@ 0x7f
 8001804:	613b      	str	r3, [r7, #16]
  sConfig.OffsetNumber = ADC_OFFSET_NONE;
 8001806:	2304      	movs	r3, #4
 8001808:	617b      	str	r3, [r7, #20]
  sConfig.Offset = 0;
 800180a:	2300      	movs	r3, #0
 800180c:	61bb      	str	r3, [r7, #24]
  if (HAL_ADC_ConfigChannel(&hadc1, &sConfig) != HAL_OK)
 800180e:	1d3b      	adds	r3, r7, #4
 8001810:	4619      	mov	r1, r3
 8001812:	4806      	ldr	r0, [pc, #24]	@ (800182c <MX_ADC1_Init+0xe8>)
 8001814:	f001 ff50 	bl	80036b8 <HAL_ADC_ConfigChannel>
 8001818:	4603      	mov	r3, r0
 800181a:	2b00      	cmp	r3, #0
 800181c:	d001      	beq.n	8001822 <MX_ADC1_Init+0xde>
  {
    Error_Handler();
 800181e:	f000 fd4f 	bl	80022c0 <Error_Handler>
  }
  /* USER CODE BEGIN ADC1_Init 2 */

  /* USER CODE END ADC1_Init 2 */

}
 8001822:	bf00      	nop
 8001824:	3730      	adds	r7, #48	@ 0x30
 8001826:	46bd      	mov	sp, r7
 8001828:	bd80      	pop	{r7, pc}
 800182a:	bf00      	nop
 800182c:	20000080 	.word	0x20000080
 8001830:	1d500080 	.word	0x1d500080

08001834 <MX_FDCAN2_Init>:
  * @brief FDCAN2 Initialization Function
  * @param None
  * @retval None
  */
static void MX_FDCAN2_Init(void)
{
 8001834:	b580      	push	{r7, lr}
 8001836:	af00      	add	r7, sp, #0
  /* USER CODE END FDCAN2_Init 0 */

  /* USER CODE BEGIN FDCAN2_Init 1 */

  /* USER CODE END FDCAN2_Init 1 */
  hfdcan2.Instance = FDCAN2;
 8001838:	4b20      	ldr	r3, [pc, #128]	@ (80018bc <MX_FDCAN2_Init+0x88>)
 800183a:	4a21      	ldr	r2, [pc, #132]	@ (80018c0 <MX_FDCAN2_Init+0x8c>)
 800183c:	601a      	str	r2, [r3, #0]
  hfdcan2.Init.ClockDivider = FDCAN_CLOCK_DIV1;
 800183e:	4b1f      	ldr	r3, [pc, #124]	@ (80018bc <MX_FDCAN2_Init+0x88>)
 8001840:	2200      	movs	r2, #0
 8001842:	605a      	str	r2, [r3, #4]
  hfdcan2.Init.FrameFormat = FDCAN_FRAME_FD_NO_BRS;
 8001844:	4b1d      	ldr	r3, [pc, #116]	@ (80018bc <MX_FDCAN2_Init+0x88>)
 8001846:	f44f 7280 	mov.w	r2, #256	@ 0x100
 800184a:	609a      	str	r2, [r3, #8]
  hfdcan2.Init.Mode = FDCAN_MODE_NORMAL;
 800184c:	4b1b      	ldr	r3, [pc, #108]	@ (80018bc <MX_FDCAN2_Init+0x88>)
 800184e:	2200      	movs	r2, #0
 8001850:	60da      	str	r2, [r3, #12]
  hfdcan2.Init.AutoRetransmission = ENABLE;
 8001852:	4b1a      	ldr	r3, [pc, #104]	@ (80018bc <MX_FDCAN2_Init+0x88>)
 8001854:	2201      	movs	r2, #1
 8001856:	741a      	strb	r2, [r3, #16]
  hfdcan2.Init.TransmitPause = ENABLE;
 8001858:	4b18      	ldr	r3, [pc, #96]	@ (80018bc <MX_FDCAN2_Init+0x88>)
 800185a:	2201      	movs	r2, #1
 800185c:	745a      	strb	r2, [r3, #17]
  hfdcan2.Init.ProtocolException = DISABLE;
 800185e:	4b17      	ldr	r3, [pc, #92]	@ (80018bc <MX_FDCAN2_Init+0x88>)
 8001860:	2200      	movs	r2, #0
 8001862:	749a      	strb	r2, [r3, #18]
  hfdcan2.Init.NominalPrescaler = 2;
 8001864:	4b15      	ldr	r3, [pc, #84]	@ (80018bc <MX_FDCAN2_Init+0x88>)
 8001866:	2202      	movs	r2, #2
 8001868:	615a      	str	r2, [r3, #20]
  hfdcan2.Init.NominalSyncJumpWidth = 3;
 800186a:	4b14      	ldr	r3, [pc, #80]	@ (80018bc <MX_FDCAN2_Init+0x88>)
 800186c:	2203      	movs	r2, #3
 800186e:	619a      	str	r2, [r3, #24]
  hfdcan2.Init.NominalTimeSeg1 = 13;
 8001870:	4b12      	ldr	r3, [pc, #72]	@ (80018bc <MX_FDCAN2_Init+0x88>)
 8001872:	220d      	movs	r2, #13
 8001874:	61da      	str	r2, [r3, #28]
  hfdcan2.Init.NominalTimeSeg2 = 2;
 8001876:	4b11      	ldr	r3, [pc, #68]	@ (80018bc <MX_FDCAN2_Init+0x88>)
 8001878:	2202      	movs	r2, #2
 800187a:	621a      	str	r2, [r3, #32]
  hfdcan2.Init.DataPrescaler = 5;
 800187c:	4b0f      	ldr	r3, [pc, #60]	@ (80018bc <MX_FDCAN2_Init+0x88>)
 800187e:	2205      	movs	r2, #5
 8001880:	625a      	str	r2, [r3, #36]	@ 0x24
  hfdcan2.Init.DataSyncJumpWidth = 3;
 8001882:	4b0e      	ldr	r3, [pc, #56]	@ (80018bc <MX_FDCAN2_Init+0x88>)
 8001884:	2203      	movs	r2, #3
 8001886:	629a      	str	r2, [r3, #40]	@ 0x28
  hfdcan2.Init.DataTimeSeg1 = 13;
 8001888:	4b0c      	ldr	r3, [pc, #48]	@ (80018bc <MX_FDCAN2_Init+0x88>)
 800188a:	220d      	movs	r2, #13
 800188c:	62da      	str	r2, [r3, #44]	@ 0x2c
  hfdcan2.Init.DataTimeSeg2 = 1;
 800188e:	4b0b      	ldr	r3, [pc, #44]	@ (80018bc <MX_FDCAN2_Init+0x88>)
 8001890:	2201      	movs	r2, #1
 8001892:	631a      	str	r2, [r3, #48]	@ 0x30
  hfdcan2.Init.StdFiltersNbr = 1;
 8001894:	4b09      	ldr	r3, [pc, #36]	@ (80018bc <MX_FDCAN2_Init+0x88>)
 8001896:	2201      	movs	r2, #1
 8001898:	635a      	str	r2, [r3, #52]	@ 0x34
  hfdcan2.Init.ExtFiltersNbr = 0;
 800189a:	4b08      	ldr	r3, [pc, #32]	@ (80018bc <MX_FDCAN2_Init+0x88>)
 800189c:	2200      	movs	r2, #0
 800189e:	639a      	str	r2, [r3, #56]	@ 0x38
  hfdcan2.Init.TxFifoQueueMode = FDCAN_TX_FIFO_OPERATION;
 80018a0:	4b06      	ldr	r3, [pc, #24]	@ (80018bc <MX_FDCAN2_Init+0x88>)
 80018a2:	2200      	movs	r2, #0
 80018a4:	63da      	str	r2, [r3, #60]	@ 0x3c
  if (HAL_FDCAN_Init(&hfdcan2) != HAL_OK)
 80018a6:	4805      	ldr	r0, [pc, #20]	@ (80018bc <MX_FDCAN2_Init+0x88>)
 80018a8:	f002 fd84 	bl	80043b4 <HAL_FDCAN_Init>
 80018ac:	4603      	mov	r3, r0
 80018ae:	2b00      	cmp	r3, #0
 80018b0:	d001      	beq.n	80018b6 <MX_FDCAN2_Init+0x82>
  {
    Error_Handler();
 80018b2:	f000 fd05 	bl	80022c0 <Error_Handler>
  }
  /* USER CODE BEGIN FDCAN2_Init 2 */

  /* USER CODE END FDCAN2_Init 2 */

}
 80018b6:	bf00      	nop
 80018b8:	bd80      	pop	{r7, pc}
 80018ba:	bf00      	nop
 80018bc:	200000ec 	.word	0x200000ec
 80018c0:	40006800 	.word	0x40006800

080018c4 <MX_I2C3_Init>:
  * @brief I2C3 Initialization Function
  * @param None
  * @retval None
  */
static void MX_I2C3_Init(void)
{
 80018c4:	b580      	push	{r7, lr}
 80018c6:	af00      	add	r7, sp, #0
  /* USER CODE END I2C3_Init 0 */

  /* USER CODE BEGIN I2C3_Init 1 */

  /* USER CODE END I2C3_Init 1 */
  hi2c3.Instance = I2C3;
 80018c8:	4b1b      	ldr	r3, [pc, #108]	@ (8001938 <MX_I2C3_Init+0x74>)
 80018ca:	4a1c      	ldr	r2, [pc, #112]	@ (800193c <MX_I2C3_Init+0x78>)
 80018cc:	601a      	str	r2, [r3, #0]
  hi2c3.Init.Timing = 0x10C18DCC;
 80018ce:	4b1a      	ldr	r3, [pc, #104]	@ (8001938 <MX_I2C3_Init+0x74>)
 80018d0:	4a1b      	ldr	r2, [pc, #108]	@ (8001940 <MX_I2C3_Init+0x7c>)
 80018d2:	605a      	str	r2, [r3, #4]
  hi2c3.Init.OwnAddress1 = 0;
 80018d4:	4b18      	ldr	r3, [pc, #96]	@ (8001938 <MX_I2C3_Init+0x74>)
 80018d6:	2200      	movs	r2, #0
 80018d8:	609a      	str	r2, [r3, #8]
  hi2c3.Init.AddressingMode = I2C_ADDRESSINGMODE_7BIT;
 80018da:	4b17      	ldr	r3, [pc, #92]	@ (8001938 <MX_I2C3_Init+0x74>)
 80018dc:	2201      	movs	r2, #1
 80018de:	60da      	str	r2, [r3, #12]
  hi2c3.Init.DualAddressMode = I2C_DUALADDRESS_DISABLE;
 80018e0:	4b15      	ldr	r3, [pc, #84]	@ (8001938 <MX_I2C3_Init+0x74>)
 80018e2:	2200      	movs	r2, #0
 80018e4:	611a      	str	r2, [r3, #16]
  hi2c3.Init.OwnAddress2 = 0;
 80018e6:	4b14      	ldr	r3, [pc, #80]	@ (8001938 <MX_I2C3_Init+0x74>)
 80018e8:	2200      	movs	r2, #0
 80018ea:	615a      	str	r2, [r3, #20]
  hi2c3.Init.OwnAddress2Masks = I2C_OA2_NOMASK;
 80018ec:	4b12      	ldr	r3, [pc, #72]	@ (8001938 <MX_I2C3_Init+0x74>)
 80018ee:	2200      	movs	r2, #0
 80018f0:	619a      	str	r2, [r3, #24]
  hi2c3.Init.GeneralCallMode = I2C_GENERALCALL_DISABLE;
 80018f2:	4b11      	ldr	r3, [pc, #68]	@ (8001938 <MX_I2C3_Init+0x74>)
 80018f4:	2200      	movs	r2, #0
 80018f6:	61da      	str	r2, [r3, #28]
  hi2c3.Init.NoStretchMode = I2C_NOSTRETCH_DISABLE;
 80018f8:	4b0f      	ldr	r3, [pc, #60]	@ (8001938 <MX_I2C3_Init+0x74>)
 80018fa:	2200      	movs	r2, #0
 80018fc:	621a      	str	r2, [r3, #32]
  if (HAL_I2C_Init(&hi2c3) != HAL_OK)
 80018fe:	480e      	ldr	r0, [pc, #56]	@ (8001938 <MX_I2C3_Init+0x74>)
 8001900:	f003 fdce 	bl	80054a0 <HAL_I2C_Init>
 8001904:	4603      	mov	r3, r0
 8001906:	2b00      	cmp	r3, #0
 8001908:	d001      	beq.n	800190e <MX_I2C3_Init+0x4a>
  {
    Error_Handler();
 800190a:	f000 fcd9 	bl	80022c0 <Error_Handler>
  }

  /** Configure Analogue filter
  */
  if (HAL_I2CEx_ConfigAnalogFilter(&hi2c3, I2C_ANALOGFILTER_ENABLE) != HAL_OK)
 800190e:	2100      	movs	r1, #0
 8001910:	4809      	ldr	r0, [pc, #36]	@ (8001938 <MX_I2C3_Init+0x74>)
 8001912:	f003 fe60 	bl	80055d6 <HAL_I2CEx_ConfigAnalogFilter>
 8001916:	4603      	mov	r3, r0
 8001918:	2b00      	cmp	r3, #0
 800191a:	d001      	beq.n	8001920 <MX_I2C3_Init+0x5c>
  {
    Error_Handler();
 800191c:	f000 fcd0 	bl	80022c0 <Error_Handler>
  }

  /** Configure Digital filter
  */
  if (HAL_I2CEx_ConfigDigitalFilter(&hi2c3, 0) != HAL_OK)
 8001920:	2100      	movs	r1, #0
 8001922:	4805      	ldr	r0, [pc, #20]	@ (8001938 <MX_I2C3_Init+0x74>)
 8001924:	f003 fea2 	bl	800566c <HAL_I2CEx_ConfigDigitalFilter>
 8001928:	4603      	mov	r3, r0
 800192a:	2b00      	cmp	r3, #0
 800192c:	d001      	beq.n	8001932 <MX_I2C3_Init+0x6e>
  {
    Error_Handler();
 800192e:	f000 fcc7 	bl	80022c0 <Error_Handler>
  }
  /* USER CODE BEGIN I2C3_Init 2 */

  /* USER CODE END I2C3_Init 2 */

}
 8001932:	bf00      	nop
 8001934:	bd80      	pop	{r7, pc}
 8001936:	bf00      	nop
 8001938:	20000150 	.word	0x20000150
 800193c:	40007800 	.word	0x40007800
 8001940:	10c18dcc 	.word	0x10c18dcc

08001944 <MX_TIM1_Init>:
  * @brief TIM1 Initialization Function
  * @param None
  * @retval None
  */
static void MX_TIM1_Init(void)
{
 8001944:	b580      	push	{r7, lr}
 8001946:	b098      	sub	sp, #96	@ 0x60
 8001948:	af00      	add	r7, sp, #0

  /* USER CODE BEGIN TIM1_Init 0 */

  /* USER CODE END TIM1_Init 0 */

  TIM_MasterConfigTypeDef sMasterConfig = {0};
 800194a:	f107 0354 	add.w	r3, r7, #84	@ 0x54
 800194e:	2200      	movs	r2, #0
 8001950:	601a      	str	r2, [r3, #0]
 8001952:	605a      	str	r2, [r3, #4]
 8001954:	609a      	str	r2, [r3, #8]
  TIM_OC_InitTypeDef sConfigOC = {0};
 8001956:	f107 0338 	add.w	r3, r7, #56	@ 0x38
 800195a:	2200      	movs	r2, #0
 800195c:	601a      	str	r2, [r3, #0]
 800195e:	605a      	str	r2, [r3, #4]
 8001960:	609a      	str	r2, [r3, #8]
 8001962:	60da      	str	r2, [r3, #12]
 8001964:	611a      	str	r2, [r3, #16]
 8001966:	615a      	str	r2, [r3, #20]
 8001968:	619a      	str	r2, [r3, #24]
  TIM_BreakDeadTimeConfigTypeDef sBreakDeadTimeConfig = {0};
 800196a:	1d3b      	adds	r3, r7, #4
 800196c:	2234      	movs	r2, #52	@ 0x34
 800196e:	2100      	movs	r1, #0
 8001970:	4618      	mov	r0, r3
 8001972:	f006 fb23 	bl	8007fbc <memset>

  /* USER CODE BEGIN TIM1_Init 1 */

  /* USER CODE END TIM1_Init 1 */
  htim1.Instance = TIM1;
 8001976:	4b3b      	ldr	r3, [pc, #236]	@ (8001a64 <MX_TIM1_Init+0x120>)
 8001978:	4a3b      	ldr	r2, [pc, #236]	@ (8001a68 <MX_TIM1_Init+0x124>)
 800197a:	601a      	str	r2, [r3, #0]
  htim1.Init.Prescaler = 0;
 800197c:	4b39      	ldr	r3, [pc, #228]	@ (8001a64 <MX_TIM1_Init+0x120>)
 800197e:	2200      	movs	r2, #0
 8001980:	605a      	str	r2, [r3, #4]
  htim1.Init.CounterMode = TIM_COUNTERMODE_UP;
 8001982:	4b38      	ldr	r3, [pc, #224]	@ (8001a64 <MX_TIM1_Init+0x120>)
 8001984:	2200      	movs	r2, #0
 8001986:	609a      	str	r2, [r3, #8]
  htim1.Init.Period = 65535;
 8001988:	4b36      	ldr	r3, [pc, #216]	@ (8001a64 <MX_TIM1_Init+0x120>)
 800198a:	f64f 72ff 	movw	r2, #65535	@ 0xffff
 800198e:	60da      	str	r2, [r3, #12]
  htim1.Init.ClockDivision = TIM_CLOCKDIVISION_DIV1;
 8001990:	4b34      	ldr	r3, [pc, #208]	@ (8001a64 <MX_TIM1_Init+0x120>)
 8001992:	2200      	movs	r2, #0
 8001994:	611a      	str	r2, [r3, #16]
  htim1.Init.RepetitionCounter = 0;
 8001996:	4b33      	ldr	r3, [pc, #204]	@ (8001a64 <MX_TIM1_Init+0x120>)
 8001998:	2200      	movs	r2, #0
 800199a:	615a      	str	r2, [r3, #20]
  htim1.Init.AutoReloadPreload = TIM_AUTORELOAD_PRELOAD_DISABLE;
 800199c:	4b31      	ldr	r3, [pc, #196]	@ (8001a64 <MX_TIM1_Init+0x120>)
 800199e:	2200      	movs	r2, #0
 80019a0:	619a      	str	r2, [r3, #24]
  if (HAL_TIM_PWM_Init(&htim1) != HAL_OK)
 80019a2:	4830      	ldr	r0, [pc, #192]	@ (8001a64 <MX_TIM1_Init+0x120>)
 80019a4:	f005 f86a 	bl	8006a7c <HAL_TIM_PWM_Init>
 80019a8:	4603      	mov	r3, r0
 80019aa:	2b00      	cmp	r3, #0
 80019ac:	d001      	beq.n	80019b2 <MX_TIM1_Init+0x6e>
  {
    Error_Handler();
 80019ae:	f000 fc87 	bl	80022c0 <Error_Handler>
  }
  sMasterConfig.MasterOutputTrigger = TIM_TRGO_RESET;
 80019b2:	2300      	movs	r3, #0
 80019b4:	657b      	str	r3, [r7, #84]	@ 0x54
  sMasterConfig.MasterOutputTrigger2 = TIM_TRGO2_RESET;
 80019b6:	2300      	movs	r3, #0
 80019b8:	65bb      	str	r3, [r7, #88]	@ 0x58
  sMasterConfig.MasterSlaveMode = TIM_MASTERSLAVEMODE_DISABLE;
 80019ba:	2300      	movs	r3, #0
 80019bc:	65fb      	str	r3, [r7, #92]	@ 0x5c
  if (HAL_TIMEx_MasterConfigSynchronization(&htim1, &sMasterConfig) != HAL_OK)
 80019be:	f107 0354 	add.w	r3, r7, #84	@ 0x54
 80019c2:	4619      	mov	r1, r3
 80019c4:	4827      	ldr	r0, [pc, #156]	@ (8001a64 <MX_TIM1_Init+0x120>)
 80019c6:	f006 f971 	bl	8007cac <HAL_TIMEx_MasterConfigSynchronization>
 80019ca:	4603      	mov	r3, r0
 80019cc:	2b00      	cmp	r3, #0
 80019ce:	d001      	beq.n	80019d4 <MX_TIM1_Init+0x90>
  {
    Error_Handler();
 80019d0:	f000 fc76 	bl	80022c0 <Error_Handler>
  }
  sConfigOC.OCMode = TIM_OCMODE_PWM1;
 80019d4:	2360      	movs	r3, #96	@ 0x60
 80019d6:	63bb      	str	r3, [r7, #56]	@ 0x38
  sConfigOC.Pulse = 0;
 80019d8:	2300      	movs	r3, #0
 80019da:	63fb      	str	r3, [r7, #60]	@ 0x3c
  sConfigOC.OCPolarity = TIM_OCPOLARITY_HIGH;
 80019dc:	2300      	movs	r3, #0
 80019de:	643b      	str	r3, [r7, #64]	@ 0x40
  sConfigOC.OCNPolarity = TIM_OCNPOLARITY_HIGH;
 80019e0:	2300      	movs	r3, #0
 80019e2:	647b      	str	r3, [r7, #68]	@ 0x44
  sConfigOC.OCFastMode = TIM_OCFAST_DISABLE;
 80019e4:	2300      	movs	r3, #0
 80019e6:	64bb      	str	r3, [r7, #72]	@ 0x48
  sConfigOC.OCIdleState = TIM_OCIDLESTATE_RESET;
 80019e8:	2300      	movs	r3, #0
 80019ea:	64fb      	str	r3, [r7, #76]	@ 0x4c
  sConfigOC.OCNIdleState = TIM_OCNIDLESTATE_RESET;
 80019ec:	2300      	movs	r3, #0
 80019ee:	653b      	str	r3, [r7, #80]	@ 0x50
  if (HAL_TIM_PWM_ConfigChannel(&htim1, &sConfigOC, TIM_CHANNEL_1) != HAL_OK)
 80019f0:	f107 0338 	add.w	r3, r7, #56	@ 0x38
 80019f4:	2200      	movs	r2, #0
 80019f6:	4619      	mov	r1, r3
 80019f8:	481a      	ldr	r0, [pc, #104]	@ (8001a64 <MX_TIM1_Init+0x120>)
 80019fa:	f005 f9cb 	bl	8006d94 <HAL_TIM_PWM_ConfigChannel>
 80019fe:	4603      	mov	r3, r0
 8001a00:	2b00      	cmp	r3, #0
 8001a02:	d001      	beq.n	8001a08 <MX_TIM1_Init+0xc4>
  {
    Error_Handler();
 8001a04:	f000 fc5c 	bl	80022c0 <Error_Handler>
  }
  sBreakDeadTimeConfig.OffStateRunMode = TIM_OSSR_DISABLE;
 8001a08:	2300      	movs	r3, #0
 8001a0a:	607b      	str	r3, [r7, #4]
  sBreakDeadTimeConfig.OffStateIDLEMode = TIM_OSSI_DISABLE;
 8001a0c:	2300      	movs	r3, #0
 8001a0e:	60bb      	str	r3, [r7, #8]
  sBreakDeadTimeConfig.LockLevel = TIM_LOCKLEVEL_OFF;
 8001a10:	2300      	movs	r3, #0
 8001a12:	60fb      	str	r3, [r7, #12]
  sBreakDeadTimeConfig.DeadTime = 0;
 8001a14:	2300      	movs	r3, #0
 8001a16:	613b      	str	r3, [r7, #16]
  sBreakDeadTimeConfig.BreakState = TIM_BREAK_DISABLE;
 8001a18:	2300      	movs	r3, #0
 8001a1a:	617b      	str	r3, [r7, #20]
  sBreakDeadTimeConfig.BreakPolarity = TIM_BREAKPOLARITY_HIGH;
 8001a1c:	f44f 5300 	mov.w	r3, #8192	@ 0x2000
 8001a20:	61bb      	str	r3, [r7, #24]
  sBreakDeadTimeConfig.BreakFilter = 0;
 8001a22:	2300      	movs	r3, #0
 8001a24:	61fb      	str	r3, [r7, #28]
  sBreakDeadTimeConfig.BreakAFMode = TIM_BREAK_AFMODE_INPUT;
 8001a26:	2300      	movs	r3, #0
 8001a28:	623b      	str	r3, [r7, #32]
  sBreakDeadTimeConfig.Break2State = TIM_BREAK2_DISABLE;
 8001a2a:	2300      	movs	r3, #0
 8001a2c:	627b      	str	r3, [r7, #36]	@ 0x24
  sBreakDeadTimeConfig.Break2Polarity = TIM_BREAK2POLARITY_HIGH;
 8001a2e:	f04f 7300 	mov.w	r3, #33554432	@ 0x2000000
 8001a32:	62bb      	str	r3, [r7, #40]	@ 0x28
  sBreakDeadTimeConfig.Break2Filter = 0;
 8001a34:	2300      	movs	r3, #0
 8001a36:	62fb      	str	r3, [r7, #44]	@ 0x2c
  sBreakDeadTimeConfig.Break2AFMode = TIM_BREAK_AFMODE_INPUT;
 8001a38:	2300      	movs	r3, #0
 8001a3a:	633b      	str	r3, [r7, #48]	@ 0x30
  sBreakDeadTimeConfig.AutomaticOutput = TIM_AUTOMATICOUTPUT_DISABLE;
 8001a3c:	2300      	movs	r3, #0
 8001a3e:	637b      	str	r3, [r7, #52]	@ 0x34
  if (HAL_TIMEx_ConfigBreakDeadTime(&htim1, &sBreakDeadTimeConfig) != HAL_OK)
 8001a40:	1d3b      	adds	r3, r7, #4
 8001a42:	4619      	mov	r1, r3
 8001a44:	4807      	ldr	r0, [pc, #28]	@ (8001a64 <MX_TIM1_Init+0x120>)
 8001a46:	f006 f9c7 	bl	8007dd8 <HAL_TIMEx_ConfigBreakDeadTime>
 8001a4a:	4603      	mov	r3, r0
 8001a4c:	2b00      	cmp	r3, #0
 8001a4e:	d001      	beq.n	8001a54 <MX_TIM1_Init+0x110>
  {
    Error_Handler();
 8001a50:	f000 fc36 	bl	80022c0 <Error_Handler>
  }
  /* USER CODE BEGIN TIM1_Init 2 */

  /* USER CODE END TIM1_Init 2 */
  HAL_TIM_MspPostInit(&htim1);
 8001a54:	4803      	ldr	r0, [pc, #12]	@ (8001a64 <MX_TIM1_Init+0x120>)
 8001a56:	f001 f857 	bl	8002b08 <HAL_TIM_MspPostInit>

}
 8001a5a:	bf00      	nop
 8001a5c:	3760      	adds	r7, #96	@ 0x60
 8001a5e:	46bd      	mov	sp, r7
 8001a60:	bd80      	pop	{r7, pc}
 8001a62:	bf00      	nop
 8001a64:	200001a4 	.word	0x200001a4
 8001a68:	40012c00 	.word	0x40012c00

08001a6c <MX_TIM2_Init>:
  * @brief TIM2 Initialization Function
  * @param None
  * @retval None
  */
static void MX_TIM2_Init(void)
{
 8001a6c:	b580      	push	{r7, lr}
 8001a6e:	b088      	sub	sp, #32
 8001a70:	af00      	add	r7, sp, #0

  /* USER CODE BEGIN TIM2_Init 0 */

  /* USER CODE END TIM2_Init 0 */

  TIM_ClockConfigTypeDef sClockSourceConfig = {0};
 8001a72:	f107 0310 	add.w	r3, r7, #16
 8001a76:	2200      	movs	r2, #0
 8001a78:	601a      	str	r2, [r3, #0]
 8001a7a:	605a      	str	r2, [r3, #4]
 8001a7c:	609a      	str	r2, [r3, #8]
 8001a7e:	60da      	str	r2, [r3, #12]
  TIM_MasterConfigTypeDef sMasterConfig = {0};
 8001a80:	1d3b      	adds	r3, r7, #4
 8001a82:	2200      	movs	r2, #0
 8001a84:	601a      	str	r2, [r3, #0]
 8001a86:	605a      	str	r2, [r3, #4]
 8001a88:	609a      	str	r2, [r3, #8]

  /* USER CODE BEGIN TIM2_Init 1 */

  /* USER CODE END TIM2_Init 1 */
  htim2.Instance = TIM2;
 8001a8a:	4b1e      	ldr	r3, [pc, #120]	@ (8001b04 <MX_TIM2_Init+0x98>)
 8001a8c:	f04f 4280 	mov.w	r2, #1073741824	@ 0x40000000
 8001a90:	601a      	str	r2, [r3, #0]
  htim2.Init.Prescaler = 0;
 8001a92:	4b1c      	ldr	r3, [pc, #112]	@ (8001b04 <MX_TIM2_Init+0x98>)
 8001a94:	2200      	movs	r2, #0
 8001a96:	605a      	str	r2, [r3, #4]
  htim2.Init.CounterMode = TIM_COUNTERMODE_UP;
 8001a98:	4b1a      	ldr	r3, [pc, #104]	@ (8001b04 <MX_TIM2_Init+0x98>)
 8001a9a:	2200      	movs	r2, #0
 8001a9c:	609a      	str	r2, [r3, #8]
  htim2.Init.Period = 4294967295;
 8001a9e:	4b19      	ldr	r3, [pc, #100]	@ (8001b04 <MX_TIM2_Init+0x98>)
 8001aa0:	f04f 32ff 	mov.w	r2, #4294967295
 8001aa4:	60da      	str	r2, [r3, #12]
  htim2.Init.ClockDivision = TIM_CLOCKDIVISION_DIV1;
 8001aa6:	4b17      	ldr	r3, [pc, #92]	@ (8001b04 <MX_TIM2_Init+0x98>)
 8001aa8:	2200      	movs	r2, #0
 8001aaa:	611a      	str	r2, [r3, #16]
  htim2.Init.AutoReloadPreload = TIM_AUTORELOAD_PRELOAD_DISABLE;
 8001aac:	4b15      	ldr	r3, [pc, #84]	@ (8001b04 <MX_TIM2_Init+0x98>)
 8001aae:	2200      	movs	r2, #0
 8001ab0:	619a      	str	r2, [r3, #24]
  if (HAL_TIM_Base_Init(&htim2) != HAL_OK)
 8001ab2:	4814      	ldr	r0, [pc, #80]	@ (8001b04 <MX_TIM2_Init+0x98>)
 8001ab4:	f004 ff12 	bl	80068dc <HAL_TIM_Base_Init>
 8001ab8:	4603      	mov	r3, r0
 8001aba:	2b00      	cmp	r3, #0
 8001abc:	d001      	beq.n	8001ac2 <MX_TIM2_Init+0x56>
  {
    Error_Handler();
 8001abe:	f000 fbff 	bl	80022c0 <Error_Handler>
  }
  sClockSourceConfig.ClockSource = TIM_CLOCKSOURCE_INTERNAL;
 8001ac2:	f44f 5380 	mov.w	r3, #4096	@ 0x1000
 8001ac6:	613b      	str	r3, [r7, #16]
  if (HAL_TIM_ConfigClockSource(&htim2, &sClockSourceConfig) != HAL_OK)
 8001ac8:	f107 0310 	add.w	r3, r7, #16
 8001acc:	4619      	mov	r1, r3
 8001ace:	480d      	ldr	r0, [pc, #52]	@ (8001b04 <MX_TIM2_Init+0x98>)
 8001ad0:	f005 fa74 	bl	8006fbc <HAL_TIM_ConfigClockSource>
 8001ad4:	4603      	mov	r3, r0
 8001ad6:	2b00      	cmp	r3, #0
 8001ad8:	d001      	beq.n	8001ade <MX_TIM2_Init+0x72>
  {
    Error_Handler();
 8001ada:	f000 fbf1 	bl	80022c0 <Error_Handler>
  }
  sMasterConfig.MasterOutputTrigger = TIM_TRGO_RESET;
 8001ade:	2300      	movs	r3, #0
 8001ae0:	607b      	str	r3, [r7, #4]
  sMasterConfig.MasterSlaveMode = TIM_MASTERSLAVEMODE_DISABLE;
 8001ae2:	2300      	movs	r3, #0
 8001ae4:	60fb      	str	r3, [r7, #12]
  if (HAL_TIMEx_MasterConfigSynchronization(&htim2, &sMasterConfig) != HAL_OK)
 8001ae6:	1d3b      	adds	r3, r7, #4
 8001ae8:	4619      	mov	r1, r3
 8001aea:	4806      	ldr	r0, [pc, #24]	@ (8001b04 <MX_TIM2_Init+0x98>)
 8001aec:	f006 f8de 	bl	8007cac <HAL_TIMEx_MasterConfigSynchronization>
 8001af0:	4603      	mov	r3, r0
 8001af2:	2b00      	cmp	r3, #0
 8001af4:	d001      	beq.n	8001afa <MX_TIM2_Init+0x8e>
  {
    Error_Handler();
 8001af6:	f000 fbe3 	bl	80022c0 <Error_Handler>
  }
  /* USER CODE BEGIN TIM2_Init 2 */

  /* USER CODE END TIM2_Init 2 */

}
 8001afa:	bf00      	nop
 8001afc:	3720      	adds	r7, #32
 8001afe:	46bd      	mov	sp, r7
 8001b00:	bd80      	pop	{r7, pc}
 8001b02:	bf00      	nop
 8001b04:	200001f0 	.word	0x200001f0

08001b08 <MX_TIM3_Init>:
  * @brief TIM3 Initialization Function
  * @param None
  * @retval None
  */
static void MX_TIM3_Init(void)
{
 8001b08:	b580      	push	{r7, lr}
 8001b0a:	b08c      	sub	sp, #48	@ 0x30
 8001b0c:	af00      	add	r7, sp, #0

  /* USER CODE BEGIN TIM3_Init 0 */

  /* USER CODE END TIM3_Init 0 */

  TIM_Encoder_InitTypeDef sConfig = {0};
 8001b0e:	f107 030c 	add.w	r3, r7, #12
 8001b12:	2224      	movs	r2, #36	@ 0x24
 8001b14:	2100      	movs	r1, #0
 8001b16:	4618      	mov	r0, r3
 8001b18:	f006 fa50 	bl	8007fbc <memset>
  TIM_MasterConfigTypeDef sMasterConfig = {0};
 8001b1c:	463b      	mov	r3, r7
 8001b1e:	2200      	movs	r2, #0
 8001b20:	601a      	str	r2, [r3, #0]
 8001b22:	605a      	str	r2, [r3, #4]
 8001b24:	609a      	str	r2, [r3, #8]

  /* USER CODE BEGIN TIM3_Init 1 */

  /* USER CODE END TIM3_Init 1 */
  htim3.Instance = TIM3;
 8001b26:	4b21      	ldr	r3, [pc, #132]	@ (8001bac <MX_TIM3_Init+0xa4>)
 8001b28:	4a21      	ldr	r2, [pc, #132]	@ (8001bb0 <MX_TIM3_Init+0xa8>)
 8001b2a:	601a      	str	r2, [r3, #0]
  htim3.Init.Prescaler = 0;
 8001b2c:	4b1f      	ldr	r3, [pc, #124]	@ (8001bac <MX_TIM3_Init+0xa4>)
 8001b2e:	2200      	movs	r2, #0
 8001b30:	605a      	str	r2, [r3, #4]
  htim3.Init.CounterMode = TIM_COUNTERMODE_UP;
 8001b32:	4b1e      	ldr	r3, [pc, #120]	@ (8001bac <MX_TIM3_Init+0xa4>)
 8001b34:	2200      	movs	r2, #0
 8001b36:	609a      	str	r2, [r3, #8]
  htim3.Init.Period = 65535;
 8001b38:	4b1c      	ldr	r3, [pc, #112]	@ (8001bac <MX_TIM3_Init+0xa4>)
 8001b3a:	f64f 72ff 	movw	r2, #65535	@ 0xffff
 8001b3e:	60da      	str	r2, [r3, #12]
  htim3.Init.ClockDivision = TIM_CLOCKDIVISION_DIV1;
 8001b40:	4b1a      	ldr	r3, [pc, #104]	@ (8001bac <MX_TIM3_Init+0xa4>)
 8001b42:	2200      	movs	r2, #0
 8001b44:	611a      	str	r2, [r3, #16]
  htim3.Init.AutoReloadPreload = TIM_AUTORELOAD_PRELOAD_DISABLE;
 8001b46:	4b19      	ldr	r3, [pc, #100]	@ (8001bac <MX_TIM3_Init+0xa4>)
 8001b48:	2200      	movs	r2, #0
 8001b4a:	619a      	str	r2, [r3, #24]
  sConfig.EncoderMode = TIM_ENCODERMODE_TI1;
 8001b4c:	2301      	movs	r3, #1
 8001b4e:	60fb      	str	r3, [r7, #12]
  sConfig.IC1Polarity = TIM_ICPOLARITY_RISING;
 8001b50:	2300      	movs	r3, #0
 8001b52:	613b      	str	r3, [r7, #16]
  sConfig.IC1Selection = TIM_ICSELECTION_DIRECTTI;
 8001b54:	2301      	movs	r3, #1
 8001b56:	617b      	str	r3, [r7, #20]
  sConfig.IC1Prescaler = TIM_ICPSC_DIV1;
 8001b58:	2300      	movs	r3, #0
 8001b5a:	61bb      	str	r3, [r7, #24]
  sConfig.IC1Filter = 0;
 8001b5c:	2300      	movs	r3, #0
 8001b5e:	61fb      	str	r3, [r7, #28]
  sConfig.IC2Polarity = TIM_ICPOLARITY_RISING;
 8001b60:	2300      	movs	r3, #0
 8001b62:	623b      	str	r3, [r7, #32]
  sConfig.IC2Selection = TIM_ICSELECTION_DIRECTTI;
 8001b64:	2301      	movs	r3, #1
 8001b66:	627b      	str	r3, [r7, #36]	@ 0x24
  sConfig.IC2Prescaler = TIM_ICPSC_DIV1;
 8001b68:	2300      	movs	r3, #0
 8001b6a:	62bb      	str	r3, [r7, #40]	@ 0x28
  sConfig.IC2Filter = 0;
 8001b6c:	2300      	movs	r3, #0
 8001b6e:	62fb      	str	r3, [r7, #44]	@ 0x2c
  if (HAL_TIM_Encoder_Init(&htim3, &sConfig) != HAL_OK)
 8001b70:	f107 030c 	add.w	r3, r7, #12
 8001b74:	4619      	mov	r1, r3
 8001b76:	480d      	ldr	r0, [pc, #52]	@ (8001bac <MX_TIM3_Init+0xa4>)
 8001b78:	f004 ffd7 	bl	8006b2a <HAL_TIM_Encoder_Init>
 8001b7c:	4603      	mov	r3, r0
 8001b7e:	2b00      	cmp	r3, #0
 8001b80:	d001      	beq.n	8001b86 <MX_TIM3_Init+0x7e>
  {
    Error_Handler();
 8001b82:	f000 fb9d 	bl	80022c0 <Error_Handler>
  }
  sMasterConfig.MasterOutputTrigger = TIM_TRGO_RESET;
 8001b86:	2300      	movs	r3, #0
 8001b88:	603b      	str	r3, [r7, #0]
  sMasterConfig.MasterSlaveMode = TIM_MASTERSLAVEMODE_DISABLE;
 8001b8a:	2300      	movs	r3, #0
 8001b8c:	60bb      	str	r3, [r7, #8]
  if (HAL_TIMEx_MasterConfigSynchronization(&htim3, &sMasterConfig) != HAL_OK)
 8001b8e:	463b      	mov	r3, r7
 8001b90:	4619      	mov	r1, r3
 8001b92:	4806      	ldr	r0, [pc, #24]	@ (8001bac <MX_TIM3_Init+0xa4>)
 8001b94:	f006 f88a 	bl	8007cac <HAL_TIMEx_MasterConfigSynchronization>
 8001b98:	4603      	mov	r3, r0
 8001b9a:	2b00      	cmp	r3, #0
 8001b9c:	d001      	beq.n	8001ba2 <MX_TIM3_Init+0x9a>
  {
    Error_Handler();
 8001b9e:	f000 fb8f 	bl	80022c0 <Error_Handler>
  }
  /* USER CODE BEGIN TIM3_Init 2 */

  /* USER CODE END TIM3_Init 2 */

}
 8001ba2:	bf00      	nop
 8001ba4:	3730      	adds	r7, #48	@ 0x30
 8001ba6:	46bd      	mov	sp, r7
 8001ba8:	bd80      	pop	{r7, pc}
 8001baa:	bf00      	nop
 8001bac:	2000023c 	.word	0x2000023c
 8001bb0:	40000400 	.word	0x40000400

08001bb4 <MX_TIM4_Init>:
  * @brief TIM4 Initialization Function
  * @param None
  * @retval None
  */
static void MX_TIM4_Init(void)
{
 8001bb4:	b580      	push	{r7, lr}
 8001bb6:	b08c      	sub	sp, #48	@ 0x30
 8001bb8:	af00      	add	r7, sp, #0

  /* USER CODE BEGIN TIM4_Init 0 */

  /* USER CODE END TIM4_Init 0 */

  TIM_Encoder_InitTypeDef sConfig = {0};
 8001bba:	f107 030c 	add.w	r3, r7, #12
 8001bbe:	2224      	movs	r2, #36	@ 0x24
 8001bc0:	2100      	movs	r1, #0
 8001bc2:	4618      	mov	r0, r3
 8001bc4:	f006 f9fa 	bl	8007fbc <memset>
  TIM_MasterConfigTypeDef sMasterConfig = {0};
 8001bc8:	463b      	mov	r3, r7
 8001bca:	2200      	movs	r2, #0
 8001bcc:	601a      	str	r2, [r3, #0]
 8001bce:	605a      	str	r2, [r3, #4]
 8001bd0:	609a      	str	r2, [r3, #8]

  /* USER CODE BEGIN TIM4_Init 1 */

  /* USER CODE END TIM4_Init 1 */
  htim4.Instance = TIM4;
 8001bd2:	4b21      	ldr	r3, [pc, #132]	@ (8001c58 <MX_TIM4_Init+0xa4>)
 8001bd4:	4a21      	ldr	r2, [pc, #132]	@ (8001c5c <MX_TIM4_Init+0xa8>)
 8001bd6:	601a      	str	r2, [r3, #0]
  htim4.Init.Prescaler = 0;
 8001bd8:	4b1f      	ldr	r3, [pc, #124]	@ (8001c58 <MX_TIM4_Init+0xa4>)
 8001bda:	2200      	movs	r2, #0
 8001bdc:	605a      	str	r2, [r3, #4]
  htim4.Init.CounterMode = TIM_COUNTERMODE_UP;
 8001bde:	4b1e      	ldr	r3, [pc, #120]	@ (8001c58 <MX_TIM4_Init+0xa4>)
 8001be0:	2200      	movs	r2, #0
 8001be2:	609a      	str	r2, [r3, #8]
  htim4.Init.Period = 65535;
 8001be4:	4b1c      	ldr	r3, [pc, #112]	@ (8001c58 <MX_TIM4_Init+0xa4>)
 8001be6:	f64f 72ff 	movw	r2, #65535	@ 0xffff
 8001bea:	60da      	str	r2, [r3, #12]
  htim4.Init.ClockDivision = TIM_CLOCKDIVISION_DIV1;
 8001bec:	4b1a      	ldr	r3, [pc, #104]	@ (8001c58 <MX_TIM4_Init+0xa4>)
 8001bee:	2200      	movs	r2, #0
 8001bf0:	611a      	str	r2, [r3, #16]
  htim4.Init.AutoReloadPreload = TIM_AUTORELOAD_PRELOAD_DISABLE;
 8001bf2:	4b19      	ldr	r3, [pc, #100]	@ (8001c58 <MX_TIM4_Init+0xa4>)
 8001bf4:	2200      	movs	r2, #0
 8001bf6:	619a      	str	r2, [r3, #24]
  sConfig.EncoderMode = TIM_ENCODERMODE_TI1;
 8001bf8:	2301      	movs	r3, #1
 8001bfa:	60fb      	str	r3, [r7, #12]
  sConfig.IC1Polarity = TIM_ICPOLARITY_RISING;
 8001bfc:	2300      	movs	r3, #0
 8001bfe:	613b      	str	r3, [r7, #16]
  sConfig.IC1Selection = TIM_ICSELECTION_DIRECTTI;
 8001c00:	2301      	movs	r3, #1
 8001c02:	617b      	str	r3, [r7, #20]
  sConfig.IC1Prescaler = TIM_ICPSC_DIV1;
 8001c04:	2300      	movs	r3, #0
 8001c06:	61bb      	str	r3, [r7, #24]
  sConfig.IC1Filter = 0;
 8001c08:	2300      	movs	r3, #0
 8001c0a:	61fb      	str	r3, [r7, #28]
  sConfig.IC2Polarity = TIM_ICPOLARITY_RISING;
 8001c0c:	2300      	movs	r3, #0
 8001c0e:	623b      	str	r3, [r7, #32]
  sConfig.IC2Selection = TIM_ICSELECTION_DIRECTTI;
 8001c10:	2301      	movs	r3, #1
 8001c12:	627b      	str	r3, [r7, #36]	@ 0x24
  sConfig.IC2Prescaler = TIM_ICPSC_DIV1;
 8001c14:	2300      	movs	r3, #0
 8001c16:	62bb      	str	r3, [r7, #40]	@ 0x28
  sConfig.IC2Filter = 0;
 8001c18:	2300      	movs	r3, #0
 8001c1a:	62fb      	str	r3, [r7, #44]	@ 0x2c
  if (HAL_TIM_Encoder_Init(&htim4, &sConfig) != HAL_OK)
 8001c1c:	f107 030c 	add.w	r3, r7, #12
 8001c20:	4619      	mov	r1, r3
 8001c22:	480d      	ldr	r0, [pc, #52]	@ (8001c58 <MX_TIM4_Init+0xa4>)
 8001c24:	f004 ff81 	bl	8006b2a <HAL_TIM_Encoder_Init>
 8001c28:	4603      	mov	r3, r0
 8001c2a:	2b00      	cmp	r3, #0
 8001c2c:	d001      	beq.n	8001c32 <MX_TIM4_Init+0x7e>
  {
    Error_Handler();
 8001c2e:	f000 fb47 	bl	80022c0 <Error_Handler>
  }
  sMasterConfig.MasterOutputTrigger = TIM_TRGO_RESET;
 8001c32:	2300      	movs	r3, #0
 8001c34:	603b      	str	r3, [r7, #0]
  sMasterConfig.MasterSlaveMode = TIM_MASTERSLAVEMODE_DISABLE;
 8001c36:	2300      	movs	r3, #0
 8001c38:	60bb      	str	r3, [r7, #8]
  if (HAL_TIMEx_MasterConfigSynchronization(&htim4, &sMasterConfig) != HAL_OK)
 8001c3a:	463b      	mov	r3, r7
 8001c3c:	4619      	mov	r1, r3
 8001c3e:	4806      	ldr	r0, [pc, #24]	@ (8001c58 <MX_TIM4_Init+0xa4>)
 8001c40:	f006 f834 	bl	8007cac <HAL_TIMEx_MasterConfigSynchronization>
 8001c44:	4603      	mov	r3, r0
 8001c46:	2b00      	cmp	r3, #0
 8001c48:	d001      	beq.n	8001c4e <MX_TIM4_Init+0x9a>
  {
    Error_Handler();
 8001c4a:	f000 fb39 	bl	80022c0 <Error_Handler>
  }
  /* USER CODE BEGIN TIM4_Init 2 */

  /* USER CODE END TIM4_Init 2 */

}
 8001c4e:	bf00      	nop
 8001c50:	3730      	adds	r7, #48	@ 0x30
 8001c52:	46bd      	mov	sp, r7
 8001c54:	bd80      	pop	{r7, pc}
 8001c56:	bf00      	nop
 8001c58:	20000288 	.word	0x20000288
 8001c5c:	40000800 	.word	0x40000800

08001c60 <MX_TIM5_Init>:
  * @brief TIM5 Initialization Function
  * @param None
  * @retval None
  */
static void MX_TIM5_Init(void)
{
 8001c60:	b580      	push	{r7, lr}
 8001c62:	b08c      	sub	sp, #48	@ 0x30
 8001c64:	af00      	add	r7, sp, #0

  /* USER CODE BEGIN TIM5_Init 0 */

  /* USER CODE END TIM5_Init 0 */

  TIM_Encoder_InitTypeDef sConfig = {0};
 8001c66:	f107 030c 	add.w	r3, r7, #12
 8001c6a:	2224      	movs	r2, #36	@ 0x24
 8001c6c:	2100      	movs	r1, #0
 8001c6e:	4618      	mov	r0, r3
 8001c70:	f006 f9a4 	bl	8007fbc <memset>
  TIM_MasterConfigTypeDef sMasterConfig = {0};
 8001c74:	463b      	mov	r3, r7
 8001c76:	2200      	movs	r2, #0
 8001c78:	601a      	str	r2, [r3, #0]
 8001c7a:	605a      	str	r2, [r3, #4]
 8001c7c:	609a      	str	r2, [r3, #8]

  /* USER CODE BEGIN TIM5_Init 1 */

  /* USER CODE END TIM5_Init 1 */
  htim5.Instance = TIM5;
 8001c7e:	4b21      	ldr	r3, [pc, #132]	@ (8001d04 <MX_TIM5_Init+0xa4>)
 8001c80:	4a21      	ldr	r2, [pc, #132]	@ (8001d08 <MX_TIM5_Init+0xa8>)
 8001c82:	601a      	str	r2, [r3, #0]
  htim5.Init.Prescaler = 0;
 8001c84:	4b1f      	ldr	r3, [pc, #124]	@ (8001d04 <MX_TIM5_Init+0xa4>)
 8001c86:	2200      	movs	r2, #0
 8001c88:	605a      	str	r2, [r3, #4]
  htim5.Init.CounterMode = TIM_COUNTERMODE_UP;
 8001c8a:	4b1e      	ldr	r3, [pc, #120]	@ (8001d04 <MX_TIM5_Init+0xa4>)
 8001c8c:	2200      	movs	r2, #0
 8001c8e:	609a      	str	r2, [r3, #8]
  htim5.Init.Period = 4294967295;
 8001c90:	4b1c      	ldr	r3, [pc, #112]	@ (8001d04 <MX_TIM5_Init+0xa4>)
 8001c92:	f04f 32ff 	mov.w	r2, #4294967295
 8001c96:	60da      	str	r2, [r3, #12]
  htim5.Init.ClockDivision = TIM_CLOCKDIVISION_DIV1;
 8001c98:	4b1a      	ldr	r3, [pc, #104]	@ (8001d04 <MX_TIM5_Init+0xa4>)
 8001c9a:	2200      	movs	r2, #0
 8001c9c:	611a      	str	r2, [r3, #16]
  htim5.Init.AutoReloadPreload = TIM_AUTORELOAD_PRELOAD_DISABLE;
 8001c9e:	4b19      	ldr	r3, [pc, #100]	@ (8001d04 <MX_TIM5_Init+0xa4>)
 8001ca0:	2200      	movs	r2, #0
 8001ca2:	619a      	str	r2, [r3, #24]
  sConfig.EncoderMode = TIM_ENCODERMODE_TI1;
 8001ca4:	2301      	movs	r3, #1
 8001ca6:	60fb      	str	r3, [r7, #12]
  sConfig.IC1Polarity = TIM_ICPOLARITY_RISING;
 8001ca8:	2300      	movs	r3, #0
 8001caa:	613b      	str	r3, [r7, #16]
  sConfig.IC1Selection = TIM_ICSELECTION_DIRECTTI;
 8001cac:	2301      	movs	r3, #1
 8001cae:	617b      	str	r3, [r7, #20]
  sConfig.IC1Prescaler = TIM_ICPSC_DIV1;
 8001cb0:	2300      	movs	r3, #0
 8001cb2:	61bb      	str	r3, [r7, #24]
  sConfig.IC1Filter = 0;
 8001cb4:	2300      	movs	r3, #0
 8001cb6:	61fb      	str	r3, [r7, #28]
  sConfig.IC2Polarity = TIM_ICPOLARITY_RISING;
 8001cb8:	2300      	movs	r3, #0
 8001cba:	623b      	str	r3, [r7, #32]
  sConfig.IC2Selection = TIM_ICSELECTION_DIRECTTI;
 8001cbc:	2301      	movs	r3, #1
 8001cbe:	627b      	str	r3, [r7, #36]	@ 0x24
  sConfig.IC2Prescaler = TIM_ICPSC_DIV1;
 8001cc0:	2300      	movs	r3, #0
 8001cc2:	62bb      	str	r3, [r7, #40]	@ 0x28
  sConfig.IC2Filter = 0;
 8001cc4:	2300      	movs	r3, #0
 8001cc6:	62fb      	str	r3, [r7, #44]	@ 0x2c
  if (HAL_TIM_Encoder_Init(&htim5, &sConfig) != HAL_OK)
 8001cc8:	f107 030c 	add.w	r3, r7, #12
 8001ccc:	4619      	mov	r1, r3
 8001cce:	480d      	ldr	r0, [pc, #52]	@ (8001d04 <MX_TIM5_Init+0xa4>)
 8001cd0:	f004 ff2b 	bl	8006b2a <HAL_TIM_Encoder_Init>
 8001cd4:	4603      	mov	r3, r0
 8001cd6:	2b00      	cmp	r3, #0
 8001cd8:	d001      	beq.n	8001cde <MX_TIM5_Init+0x7e>
  {
    Error_Handler();
 8001cda:	f000 faf1 	bl	80022c0 <Error_Handler>
  }
  sMasterConfig.MasterOutputTrigger = TIM_TRGO_RESET;
 8001cde:	2300      	movs	r3, #0
 8001ce0:	603b      	str	r3, [r7, #0]
  sMasterConfig.MasterSlaveMode = TIM_MASTERSLAVEMODE_DISABLE;
 8001ce2:	2300      	movs	r3, #0
 8001ce4:	60bb      	str	r3, [r7, #8]
  if (HAL_TIMEx_MasterConfigSynchronization(&htim5, &sMasterConfig) != HAL_OK)
 8001ce6:	463b      	mov	r3, r7
 8001ce8:	4619      	mov	r1, r3
 8001cea:	4806      	ldr	r0, [pc, #24]	@ (8001d04 <MX_TIM5_Init+0xa4>)
 8001cec:	f005 ffde 	bl	8007cac <HAL_TIMEx_MasterConfigSynchronization>
 8001cf0:	4603      	mov	r3, r0
 8001cf2:	2b00      	cmp	r3, #0
 8001cf4:	d001      	beq.n	8001cfa <MX_TIM5_Init+0x9a>
  {
    Error_Handler();
 8001cf6:	f000 fae3 	bl	80022c0 <Error_Handler>
  }
  /* USER CODE BEGIN TIM5_Init 2 */

  /* USER CODE END TIM5_Init 2 */

}
 8001cfa:	bf00      	nop
 8001cfc:	3730      	adds	r7, #48	@ 0x30
 8001cfe:	46bd      	mov	sp, r7
 8001d00:	bd80      	pop	{r7, pc}
 8001d02:	bf00      	nop
 8001d04:	200002d4 	.word	0x200002d4
 8001d08:	40000c00 	.word	0x40000c00

08001d0c <MX_TIM8_Init>:
  * @brief TIM8 Initialization Function
  * @param None
  * @retval None
  */
static void MX_TIM8_Init(void)
{
 8001d0c:	b580      	push	{r7, lr}
 8001d0e:	b098      	sub	sp, #96	@ 0x60
 8001d10:	af00      	add	r7, sp, #0

  /* USER CODE BEGIN TIM8_Init 0 */

  /* USER CODE END TIM8_Init 0 */

  TIM_MasterConfigTypeDef sMasterConfig = {0};
 8001d12:	f107 0354 	add.w	r3, r7, #84	@ 0x54
 8001d16:	2200      	movs	r2, #0
 8001d18:	601a      	str	r2, [r3, #0]
 8001d1a:	605a      	str	r2, [r3, #4]
 8001d1c:	609a      	str	r2, [r3, #8]
  TIM_OC_InitTypeDef sConfigOC = {0};
 8001d1e:	f107 0338 	add.w	r3, r7, #56	@ 0x38
 8001d22:	2200      	movs	r2, #0
 8001d24:	601a      	str	r2, [r3, #0]
 8001d26:	605a      	str	r2, [r3, #4]
 8001d28:	609a      	str	r2, [r3, #8]
 8001d2a:	60da      	str	r2, [r3, #12]
 8001d2c:	611a      	str	r2, [r3, #16]
 8001d2e:	615a      	str	r2, [r3, #20]
 8001d30:	619a      	str	r2, [r3, #24]
  TIM_BreakDeadTimeConfigTypeDef sBreakDeadTimeConfig = {0};
 8001d32:	1d3b      	adds	r3, r7, #4
 8001d34:	2234      	movs	r2, #52	@ 0x34
 8001d36:	2100      	movs	r1, #0
 8001d38:	4618      	mov	r0, r3
 8001d3a:	f006 f93f 	bl	8007fbc <memset>

  /* USER CODE BEGIN TIM8_Init 1 */

  /* USER CODE END TIM8_Init 1 */
  htim8.Instance = TIM8;
 8001d3e:	4b3b      	ldr	r3, [pc, #236]	@ (8001e2c <MX_TIM8_Init+0x120>)
 8001d40:	4a3b      	ldr	r2, [pc, #236]	@ (8001e30 <MX_TIM8_Init+0x124>)
 8001d42:	601a      	str	r2, [r3, #0]
  htim8.Init.Prescaler = 0;
 8001d44:	4b39      	ldr	r3, [pc, #228]	@ (8001e2c <MX_TIM8_Init+0x120>)
 8001d46:	2200      	movs	r2, #0
 8001d48:	605a      	str	r2, [r3, #4]
  htim8.Init.CounterMode = TIM_COUNTERMODE_UP;
 8001d4a:	4b38      	ldr	r3, [pc, #224]	@ (8001e2c <MX_TIM8_Init+0x120>)
 8001d4c:	2200      	movs	r2, #0
 8001d4e:	609a      	str	r2, [r3, #8]
  htim8.Init.Period = 65535;
 8001d50:	4b36      	ldr	r3, [pc, #216]	@ (8001e2c <MX_TIM8_Init+0x120>)
 8001d52:	f64f 72ff 	movw	r2, #65535	@ 0xffff
 8001d56:	60da      	str	r2, [r3, #12]
  htim8.Init.ClockDivision = TIM_CLOCKDIVISION_DIV1;
 8001d58:	4b34      	ldr	r3, [pc, #208]	@ (8001e2c <MX_TIM8_Init+0x120>)
 8001d5a:	2200      	movs	r2, #0
 8001d5c:	611a      	str	r2, [r3, #16]
  htim8.Init.RepetitionCounter = 0;
 8001d5e:	4b33      	ldr	r3, [pc, #204]	@ (8001e2c <MX_TIM8_Init+0x120>)
 8001d60:	2200      	movs	r2, #0
 8001d62:	615a      	str	r2, [r3, #20]
  htim8.Init.AutoReloadPreload = TIM_AUTORELOAD_PRELOAD_DISABLE;
 8001d64:	4b31      	ldr	r3, [pc, #196]	@ (8001e2c <MX_TIM8_Init+0x120>)
 8001d66:	2200      	movs	r2, #0
 8001d68:	619a      	str	r2, [r3, #24]
  if (HAL_TIM_PWM_Init(&htim8) != HAL_OK)
 8001d6a:	4830      	ldr	r0, [pc, #192]	@ (8001e2c <MX_TIM8_Init+0x120>)
 8001d6c:	f004 fe86 	bl	8006a7c <HAL_TIM_PWM_Init>
 8001d70:	4603      	mov	r3, r0
 8001d72:	2b00      	cmp	r3, #0
 8001d74:	d001      	beq.n	8001d7a <MX_TIM8_Init+0x6e>
  {
    Error_Handler();
 8001d76:	f000 faa3 	bl	80022c0 <Error_Handler>
  }
  sMasterConfig.MasterOutputTrigger = TIM_TRGO_RESET;
 8001d7a:	2300      	movs	r3, #0
 8001d7c:	657b      	str	r3, [r7, #84]	@ 0x54
  sMasterConfig.MasterOutputTrigger2 = TIM_TRGO2_RESET;
 8001d7e:	2300      	movs	r3, #0
 8001d80:	65bb      	str	r3, [r7, #88]	@ 0x58
  sMasterConfig.MasterSlaveMode = TIM_MASTERSLAVEMODE_DISABLE;
 8001d82:	2300      	movs	r3, #0
 8001d84:	65fb      	str	r3, [r7, #92]	@ 0x5c
  if (HAL_TIMEx_MasterConfigSynchronization(&htim8, &sMasterConfig) != HAL_OK)
 8001d86:	f107 0354 	add.w	r3, r7, #84	@ 0x54
 8001d8a:	4619      	mov	r1, r3
 8001d8c:	4827      	ldr	r0, [pc, #156]	@ (8001e2c <MX_TIM8_Init+0x120>)
 8001d8e:	f005 ff8d 	bl	8007cac <HAL_TIMEx_MasterConfigSynchronization>
 8001d92:	4603      	mov	r3, r0
 8001d94:	2b00      	cmp	r3, #0
 8001d96:	d001      	beq.n	8001d9c <MX_TIM8_Init+0x90>
  {
    Error_Handler();
 8001d98:	f000 fa92 	bl	80022c0 <Error_Handler>
  }
  sConfigOC.OCMode = TIM_OCMODE_PWM1;
 8001d9c:	2360      	movs	r3, #96	@ 0x60
 8001d9e:	63bb      	str	r3, [r7, #56]	@ 0x38
  sConfigOC.Pulse = 0;
 8001da0:	2300      	movs	r3, #0
 8001da2:	63fb      	str	r3, [r7, #60]	@ 0x3c
  sConfigOC.OCPolarity = TIM_OCPOLARITY_HIGH;
 8001da4:	2300      	movs	r3, #0
 8001da6:	643b      	str	r3, [r7, #64]	@ 0x40
  sConfigOC.OCNPolarity = TIM_OCNPOLARITY_HIGH;
 8001da8:	2300      	movs	r3, #0
 8001daa:	647b      	str	r3, [r7, #68]	@ 0x44
  sConfigOC.OCFastMode = TIM_OCFAST_DISABLE;
 8001dac:	2300      	movs	r3, #0
 8001dae:	64bb      	str	r3, [r7, #72]	@ 0x48
  sConfigOC.OCIdleState = TIM_OCIDLESTATE_RESET;
 8001db0:	2300      	movs	r3, #0
 8001db2:	64fb      	str	r3, [r7, #76]	@ 0x4c
  sConfigOC.OCNIdleState = TIM_OCNIDLESTATE_RESET;
 8001db4:	2300      	movs	r3, #0
 8001db6:	653b      	str	r3, [r7, #80]	@ 0x50
  if (HAL_TIM_PWM_ConfigChannel(&htim8, &sConfigOC, TIM_CHANNEL_1) != HAL_OK)
 8001db8:	f107 0338 	add.w	r3, r7, #56	@ 0x38
 8001dbc:	2200      	movs	r2, #0
 8001dbe:	4619      	mov	r1, r3
 8001dc0:	481a      	ldr	r0, [pc, #104]	@ (8001e2c <MX_TIM8_Init+0x120>)
 8001dc2:	f004 ffe7 	bl	8006d94 <HAL_TIM_PWM_ConfigChannel>
 8001dc6:	4603      	mov	r3, r0
 8001dc8:	2b00      	cmp	r3, #0
 8001dca:	d001      	beq.n	8001dd0 <MX_TIM8_Init+0xc4>
  {
    Error_Handler();
 8001dcc:	f000 fa78 	bl	80022c0 <Error_Handler>
  }
  sBreakDeadTimeConfig.OffStateRunMode = TIM_OSSR_DISABLE;
 8001dd0:	2300      	movs	r3, #0
 8001dd2:	607b      	str	r3, [r7, #4]
  sBreakDeadTimeConfig.OffStateIDLEMode = TIM_OSSI_DISABLE;
 8001dd4:	2300      	movs	r3, #0
 8001dd6:	60bb      	str	r3, [r7, #8]
  sBreakDeadTimeConfig.LockLevel = TIM_LOCKLEVEL_OFF;
 8001dd8:	2300      	movs	r3, #0
 8001dda:	60fb      	str	r3, [r7, #12]
  sBreakDeadTimeConfig.DeadTime = 0;
 8001ddc:	2300      	movs	r3, #0
 8001dde:	613b      	str	r3, [r7, #16]
  sBreakDeadTimeConfig.BreakState = TIM_BREAK_DISABLE;
 8001de0:	2300      	movs	r3, #0
 8001de2:	617b      	str	r3, [r7, #20]
  sBreakDeadTimeConfig.BreakPolarity = TIM_BREAKPOLARITY_HIGH;
 8001de4:	f44f 5300 	mov.w	r3, #8192	@ 0x2000
 8001de8:	61bb      	str	r3, [r7, #24]
  sBreakDeadTimeConfig.BreakFilter = 0;
 8001dea:	2300      	movs	r3, #0
 8001dec:	61fb      	str	r3, [r7, #28]
  sBreakDeadTimeConfig.BreakAFMode = TIM_BREAK_AFMODE_INPUT;
 8001dee:	2300      	movs	r3, #0
 8001df0:	623b      	str	r3, [r7, #32]
  sBreakDeadTimeConfig.Break2State = TIM_BREAK2_DISABLE;
 8001df2:	2300      	movs	r3, #0
 8001df4:	627b      	str	r3, [r7, #36]	@ 0x24
  sBreakDeadTimeConfig.Break2Polarity = TIM_BREAK2POLARITY_HIGH;
 8001df6:	f04f 7300 	mov.w	r3, #33554432	@ 0x2000000
 8001dfa:	62bb      	str	r3, [r7, #40]	@ 0x28
  sBreakDeadTimeConfig.Break2Filter = 0;
 8001dfc:	2300      	movs	r3, #0
 8001dfe:	62fb      	str	r3, [r7, #44]	@ 0x2c
  sBreakDeadTimeConfig.Break2AFMode = TIM_BREAK_AFMODE_INPUT;
 8001e00:	2300      	movs	r3, #0
 8001e02:	633b      	str	r3, [r7, #48]	@ 0x30
  sBreakDeadTimeConfig.AutomaticOutput = TIM_AUTOMATICOUTPUT_DISABLE;
 8001e04:	2300      	movs	r3, #0
 8001e06:	637b      	str	r3, [r7, #52]	@ 0x34
  if (HAL_TIMEx_ConfigBreakDeadTime(&htim8, &sBreakDeadTimeConfig) != HAL_OK)
 8001e08:	1d3b      	adds	r3, r7, #4
 8001e0a:	4619      	mov	r1, r3
 8001e0c:	4807      	ldr	r0, [pc, #28]	@ (8001e2c <MX_TIM8_Init+0x120>)
 8001e0e:	f005 ffe3 	bl	8007dd8 <HAL_TIMEx_ConfigBreakDeadTime>
 8001e12:	4603      	mov	r3, r0
 8001e14:	2b00      	cmp	r3, #0
 8001e16:	d001      	beq.n	8001e1c <MX_TIM8_Init+0x110>
  {
    Error_Handler();
 8001e18:	f000 fa52 	bl	80022c0 <Error_Handler>
  }
  /* USER CODE BEGIN TIM8_Init 2 */

  /* USER CODE END TIM8_Init 2 */
  HAL_TIM_MspPostInit(&htim8);
 8001e1c:	4803      	ldr	r0, [pc, #12]	@ (8001e2c <MX_TIM8_Init+0x120>)
 8001e1e:	f000 fe73 	bl	8002b08 <HAL_TIM_MspPostInit>

}
 8001e22:	bf00      	nop
 8001e24:	3760      	adds	r7, #96	@ 0x60
 8001e26:	46bd      	mov	sp, r7
 8001e28:	bd80      	pop	{r7, pc}
 8001e2a:	bf00      	nop
 8001e2c:	20000320 	.word	0x20000320
 8001e30:	40013400 	.word	0x40013400

08001e34 <MX_TIM20_Init>:
  * @brief TIM20 Initialization Function
  * @param None
  * @retval None
  */
static void MX_TIM20_Init(void)
{
 8001e34:	b580      	push	{r7, lr}
 8001e36:	b09c      	sub	sp, #112	@ 0x70
 8001e38:	af00      	add	r7, sp, #0

  /* USER CODE BEGIN TIM20_Init 0 */

  /* USER CODE END TIM20_Init 0 */

  TIM_ClockConfigTypeDef sClockSourceConfig = {0};
 8001e3a:	f107 0360 	add.w	r3, r7, #96	@ 0x60
 8001e3e:	2200      	movs	r2, #0
 8001e40:	601a      	str	r2, [r3, #0]
 8001e42:	605a      	str	r2, [r3, #4]
 8001e44:	609a      	str	r2, [r3, #8]
 8001e46:	60da      	str	r2, [r3, #12]
  TIM_MasterConfigTypeDef sMasterConfig = {0};
 8001e48:	f107 0354 	add.w	r3, r7, #84	@ 0x54
 8001e4c:	2200      	movs	r2, #0
 8001e4e:	601a      	str	r2, [r3, #0]
 8001e50:	605a      	str	r2, [r3, #4]
 8001e52:	609a      	str	r2, [r3, #8]
  TIM_OC_InitTypeDef sConfigOC = {0};
 8001e54:	f107 0338 	add.w	r3, r7, #56	@ 0x38
 8001e58:	2200      	movs	r2, #0
 8001e5a:	601a      	str	r2, [r3, #0]
 8001e5c:	605a      	str	r2, [r3, #4]
 8001e5e:	609a      	str	r2, [r3, #8]
 8001e60:	60da      	str	r2, [r3, #12]
 8001e62:	611a      	str	r2, [r3, #16]
 8001e64:	615a      	str	r2, [r3, #20]
 8001e66:	619a      	str	r2, [r3, #24]
  TIM_BreakDeadTimeConfigTypeDef sBreakDeadTimeConfig = {0};
 8001e68:	1d3b      	adds	r3, r7, #4
 8001e6a:	2234      	movs	r2, #52	@ 0x34
 8001e6c:	2100      	movs	r1, #0
 8001e6e:	4618      	mov	r0, r3
 8001e70:	f006 f8a4 	bl	8007fbc <memset>

  /* USER CODE BEGIN TIM20_Init 1 */

  /* USER CODE END TIM20_Init 1 */
  htim20.Instance = TIM20;
 8001e74:	4b45      	ldr	r3, [pc, #276]	@ (8001f8c <MX_TIM20_Init+0x158>)
 8001e76:	4a46      	ldr	r2, [pc, #280]	@ (8001f90 <MX_TIM20_Init+0x15c>)
 8001e78:	601a      	str	r2, [r3, #0]
  htim20.Init.Prescaler = 0;
 8001e7a:	4b44      	ldr	r3, [pc, #272]	@ (8001f8c <MX_TIM20_Init+0x158>)
 8001e7c:	2200      	movs	r2, #0
 8001e7e:	605a      	str	r2, [r3, #4]
  htim20.Init.CounterMode = TIM_COUNTERMODE_UP;
 8001e80:	4b42      	ldr	r3, [pc, #264]	@ (8001f8c <MX_TIM20_Init+0x158>)
 8001e82:	2200      	movs	r2, #0
 8001e84:	609a      	str	r2, [r3, #8]
  htim20.Init.Period = 65535;
 8001e86:	4b41      	ldr	r3, [pc, #260]	@ (8001f8c <MX_TIM20_Init+0x158>)
 8001e88:	f64f 72ff 	movw	r2, #65535	@ 0xffff
 8001e8c:	60da      	str	r2, [r3, #12]
  htim20.Init.ClockDivision = TIM_CLOCKDIVISION_DIV1;
 8001e8e:	4b3f      	ldr	r3, [pc, #252]	@ (8001f8c <MX_TIM20_Init+0x158>)
 8001e90:	2200      	movs	r2, #0
 8001e92:	611a      	str	r2, [r3, #16]
  htim20.Init.RepetitionCounter = 0;
 8001e94:	4b3d      	ldr	r3, [pc, #244]	@ (8001f8c <MX_TIM20_Init+0x158>)
 8001e96:	2200      	movs	r2, #0
 8001e98:	615a      	str	r2, [r3, #20]
  htim20.Init.AutoReloadPreload = TIM_AUTORELOAD_PRELOAD_DISABLE;
 8001e9a:	4b3c      	ldr	r3, [pc, #240]	@ (8001f8c <MX_TIM20_Init+0x158>)
 8001e9c:	2200      	movs	r2, #0
 8001e9e:	619a      	str	r2, [r3, #24]
  if (HAL_TIM_Base_Init(&htim20) != HAL_OK)
 8001ea0:	483a      	ldr	r0, [pc, #232]	@ (8001f8c <MX_TIM20_Init+0x158>)
 8001ea2:	f004 fd1b 	bl	80068dc <HAL_TIM_Base_Init>
 8001ea6:	4603      	mov	r3, r0
 8001ea8:	2b00      	cmp	r3, #0
 8001eaa:	d001      	beq.n	8001eb0 <MX_TIM20_Init+0x7c>
  {
    Error_Handler();
 8001eac:	f000 fa08 	bl	80022c0 <Error_Handler>
  }
  sClockSourceConfig.ClockSource = TIM_CLOCKSOURCE_INTERNAL;
 8001eb0:	f44f 5380 	mov.w	r3, #4096	@ 0x1000
 8001eb4:	663b      	str	r3, [r7, #96]	@ 0x60
  if (HAL_TIM_ConfigClockSource(&htim20, &sClockSourceConfig) != HAL_OK)
 8001eb6:	f107 0360 	add.w	r3, r7, #96	@ 0x60
 8001eba:	4619      	mov	r1, r3
 8001ebc:	4833      	ldr	r0, [pc, #204]	@ (8001f8c <MX_TIM20_Init+0x158>)
 8001ebe:	f005 f87d 	bl	8006fbc <HAL_TIM_ConfigClockSource>
 8001ec2:	4603      	mov	r3, r0
 8001ec4:	2b00      	cmp	r3, #0
 8001ec6:	d001      	beq.n	8001ecc <MX_TIM20_Init+0x98>
  {
    Error_Handler();
 8001ec8:	f000 f9fa 	bl	80022c0 <Error_Handler>
  }
  if (HAL_TIM_PWM_Init(&htim20) != HAL_OK)
 8001ecc:	482f      	ldr	r0, [pc, #188]	@ (8001f8c <MX_TIM20_Init+0x158>)
 8001ece:	f004 fdd5 	bl	8006a7c <HAL_TIM_PWM_Init>
 8001ed2:	4603      	mov	r3, r0
 8001ed4:	2b00      	cmp	r3, #0
 8001ed6:	d001      	beq.n	8001edc <MX_TIM20_Init+0xa8>
  {
    Error_Handler();
 8001ed8:	f000 f9f2 	bl	80022c0 <Error_Handler>
  }
  sMasterConfig.MasterOutputTrigger = TIM_TRGO_RESET;
 8001edc:	2300      	movs	r3, #0
 8001ede:	657b      	str	r3, [r7, #84]	@ 0x54
  sMasterConfig.MasterOutputTrigger2 = TIM_TRGO2_RESET;
 8001ee0:	2300      	movs	r3, #0
 8001ee2:	65bb      	str	r3, [r7, #88]	@ 0x58
  sMasterConfig.MasterSlaveMode = TIM_MASTERSLAVEMODE_DISABLE;
 8001ee4:	2300      	movs	r3, #0
 8001ee6:	65fb      	str	r3, [r7, #92]	@ 0x5c
  if (HAL_TIMEx_MasterConfigSynchronization(&htim20, &sMasterConfig) != HAL_OK)
 8001ee8:	f107 0354 	add.w	r3, r7, #84	@ 0x54
 8001eec:	4619      	mov	r1, r3
 8001eee:	4827      	ldr	r0, [pc, #156]	@ (8001f8c <MX_TIM20_Init+0x158>)
 8001ef0:	f005 fedc 	bl	8007cac <HAL_TIMEx_MasterConfigSynchronization>
 8001ef4:	4603      	mov	r3, r0
 8001ef6:	2b00      	cmp	r3, #0
 8001ef8:	d001      	beq.n	8001efe <MX_TIM20_Init+0xca>
  {
    Error_Handler();
 8001efa:	f000 f9e1 	bl	80022c0 <Error_Handler>
  }
  sConfigOC.OCMode = TIM_OCMODE_PWM1;
 8001efe:	2360      	movs	r3, #96	@ 0x60
 8001f00:	63bb      	str	r3, [r7, #56]	@ 0x38
  sConfigOC.Pulse = 0;
 8001f02:	2300      	movs	r3, #0
 8001f04:	63fb      	str	r3, [r7, #60]	@ 0x3c
  sConfigOC.OCPolarity = TIM_OCPOLARITY_HIGH;
 8001f06:	2300      	movs	r3, #0
 8001f08:	643b      	str	r3, [r7, #64]	@ 0x40
  sConfigOC.OCNPolarity = TIM_OCNPOLARITY_HIGH;
 8001f0a:	2300      	movs	r3, #0
 8001f0c:	647b      	str	r3, [r7, #68]	@ 0x44
  sConfigOC.OCFastMode = TIM_OCFAST_DISABLE;
 8001f0e:	2300      	movs	r3, #0
 8001f10:	64bb      	str	r3, [r7, #72]	@ 0x48
  sConfigOC.OCIdleState = TIM_OCIDLESTATE_RESET;
 8001f12:	2300      	movs	r3, #0
 8001f14:	64fb      	str	r3, [r7, #76]	@ 0x4c
  sConfigOC.OCNIdleState = TIM_OCNIDLESTATE_RESET;
 8001f16:	2300      	movs	r3, #0
 8001f18:	653b      	str	r3, [r7, #80]	@ 0x50
  if (HAL_TIM_PWM_ConfigChannel(&htim20, &sConfigOC, TIM_CHANNEL_1) != HAL_OK)
 8001f1a:	f107 0338 	add.w	r3, r7, #56	@ 0x38
 8001f1e:	2200      	movs	r2, #0
 8001f20:	4619      	mov	r1, r3
 8001f22:	481a      	ldr	r0, [pc, #104]	@ (8001f8c <MX_TIM20_Init+0x158>)
 8001f24:	f004 ff36 	bl	8006d94 <HAL_TIM_PWM_ConfigChannel>
 8001f28:	4603      	mov	r3, r0
 8001f2a:	2b00      	cmp	r3, #0
 8001f2c:	d001      	beq.n	8001f32 <MX_TIM20_Init+0xfe>
  {
    Error_Handler();
 8001f2e:	f000 f9c7 	bl	80022c0 <Error_Handler>
  }
  sBreakDeadTimeConfig.OffStateRunMode = TIM_OSSR_DISABLE;
 8001f32:	2300      	movs	r3, #0
 8001f34:	607b      	str	r3, [r7, #4]
  sBreakDeadTimeConfig.OffStateIDLEMode = TIM_OSSI_DISABLE;
 8001f36:	2300      	movs	r3, #0
 8001f38:	60bb      	str	r3, [r7, #8]
  sBreakDeadTimeConfig.LockLevel = TIM_LOCKLEVEL_OFF;
 8001f3a:	2300      	movs	r3, #0
 8001f3c:	60fb      	str	r3, [r7, #12]
  sBreakDeadTimeConfig.DeadTime = 0;
 8001f3e:	2300      	movs	r3, #0
 8001f40:	613b      	str	r3, [r7, #16]
  sBreakDeadTimeConfig.BreakState = TIM_BREAK_DISABLE;
 8001f42:	2300      	movs	r3, #0
 8001f44:	617b      	str	r3, [r7, #20]
  sBreakDeadTimeConfig.BreakPolarity = TIM_BREAKPOLARITY_HIGH;
 8001f46:	f44f 5300 	mov.w	r3, #8192	@ 0x2000
 8001f4a:	61bb      	str	r3, [r7, #24]
  sBreakDeadTimeConfig.BreakFilter = 0;
 8001f4c:	2300      	movs	r3, #0
 8001f4e:	61fb      	str	r3, [r7, #28]
  sBreakDeadTimeConfig.BreakAFMode = TIM_BREAK_AFMODE_INPUT;
 8001f50:	2300      	movs	r3, #0
 8001f52:	623b      	str	r3, [r7, #32]
  sBreakDeadTimeConfig.Break2State = TIM_BREAK2_DISABLE;
 8001f54:	2300      	movs	r3, #0
 8001f56:	627b      	str	r3, [r7, #36]	@ 0x24
  sBreakDeadTimeConfig.Break2Polarity = TIM_BREAK2POLARITY_HIGH;
 8001f58:	f04f 7300 	mov.w	r3, #33554432	@ 0x2000000
 8001f5c:	62bb      	str	r3, [r7, #40]	@ 0x28
  sBreakDeadTimeConfig.Break2Filter = 0;
 8001f5e:	2300      	movs	r3, #0
 8001f60:	62fb      	str	r3, [r7, #44]	@ 0x2c
  sBreakDeadTimeConfig.Break2AFMode = TIM_BREAK_AFMODE_INPUT;
 8001f62:	2300      	movs	r3, #0
 8001f64:	633b      	str	r3, [r7, #48]	@ 0x30
  sBreakDeadTimeConfig.AutomaticOutput = TIM_AUTOMATICOUTPUT_DISABLE;
 8001f66:	2300      	movs	r3, #0
 8001f68:	637b      	str	r3, [r7, #52]	@ 0x34
  if (HAL_TIMEx_ConfigBreakDeadTime(&htim20, &sBreakDeadTimeConfig) != HAL_OK)
 8001f6a:	1d3b      	adds	r3, r7, #4
 8001f6c:	4619      	mov	r1, r3
 8001f6e:	4807      	ldr	r0, [pc, #28]	@ (8001f8c <MX_TIM20_Init+0x158>)
 8001f70:	f005 ff32 	bl	8007dd8 <HAL_TIMEx_ConfigBreakDeadTime>
 8001f74:	4603      	mov	r3, r0
 8001f76:	2b00      	cmp	r3, #0
 8001f78:	d001      	beq.n	8001f7e <MX_TIM20_Init+0x14a>
  {
    Error_Handler();
 8001f7a:	f000 f9a1 	bl	80022c0 <Error_Handler>
  }
  /* USER CODE BEGIN TIM20_Init 2 */

  /* USER CODE END TIM20_Init 2 */
  HAL_TIM_MspPostInit(&htim20);
 8001f7e:	4803      	ldr	r0, [pc, #12]	@ (8001f8c <MX_TIM20_Init+0x158>)
 8001f80:	f000 fdc2 	bl	8002b08 <HAL_TIM_MspPostInit>

}
 8001f84:	bf00      	nop
 8001f86:	3770      	adds	r7, #112	@ 0x70
 8001f88:	46bd      	mov	sp, r7
 8001f8a:	bd80      	pop	{r7, pc}
 8001f8c:	2000036c 	.word	0x2000036c
 8001f90:	40015000 	.word	0x40015000

08001f94 <MX_USB_PCD_Init>:
  * @brief USB Initialization Function
  * @param None
  * @retval None
  */
static void MX_USB_PCD_Init(void)
{
 8001f94:	b580      	push	{r7, lr}
 8001f96:	af00      	add	r7, sp, #0
  /* USER CODE END USB_Init 0 */

  /* USER CODE BEGIN USB_Init 1 */

  /* USER CODE END USB_Init 1 */
  hpcd_USB_FS.Instance = USB;
 8001f98:	4b10      	ldr	r3, [pc, #64]	@ (8001fdc <MX_USB_PCD_Init+0x48>)
 8001f9a:	4a11      	ldr	r2, [pc, #68]	@ (8001fe0 <MX_USB_PCD_Init+0x4c>)
 8001f9c:	601a      	str	r2, [r3, #0]
  hpcd_USB_FS.Init.dev_endpoints = 8;
 8001f9e:	4b0f      	ldr	r3, [pc, #60]	@ (8001fdc <MX_USB_PCD_Init+0x48>)
 8001fa0:	2208      	movs	r2, #8
 8001fa2:	711a      	strb	r2, [r3, #4]
  hpcd_USB_FS.Init.speed = PCD_SPEED_FULL;
 8001fa4:	4b0d      	ldr	r3, [pc, #52]	@ (8001fdc <MX_USB_PCD_Init+0x48>)
 8001fa6:	2202      	movs	r2, #2
 8001fa8:	715a      	strb	r2, [r3, #5]
  hpcd_USB_FS.Init.phy_itface = PCD_PHY_EMBEDDED;
 8001faa:	4b0c      	ldr	r3, [pc, #48]	@ (8001fdc <MX_USB_PCD_Init+0x48>)
 8001fac:	2202      	movs	r2, #2
 8001fae:	71da      	strb	r2, [r3, #7]
  hpcd_USB_FS.Init.Sof_enable = DISABLE;
 8001fb0:	4b0a      	ldr	r3, [pc, #40]	@ (8001fdc <MX_USB_PCD_Init+0x48>)
 8001fb2:	2200      	movs	r2, #0
 8001fb4:	721a      	strb	r2, [r3, #8]
  hpcd_USB_FS.Init.low_power_enable = DISABLE;
 8001fb6:	4b09      	ldr	r3, [pc, #36]	@ (8001fdc <MX_USB_PCD_Init+0x48>)
 8001fb8:	2200      	movs	r2, #0
 8001fba:	725a      	strb	r2, [r3, #9]
  hpcd_USB_FS.Init.lpm_enable = DISABLE;
 8001fbc:	4b07      	ldr	r3, [pc, #28]	@ (8001fdc <MX_USB_PCD_Init+0x48>)
 8001fbe:	2200      	movs	r2, #0
 8001fc0:	729a      	strb	r2, [r3, #10]
  hpcd_USB_FS.Init.battery_charging_enable = DISABLE;
 8001fc2:	4b06      	ldr	r3, [pc, #24]	@ (8001fdc <MX_USB_PCD_Init+0x48>)
 8001fc4:	2200      	movs	r2, #0
 8001fc6:	72da      	strb	r2, [r3, #11]
  if (HAL_PCD_Init(&hpcd_USB_FS) != HAL_OK)
 8001fc8:	4804      	ldr	r0, [pc, #16]	@ (8001fdc <MX_USB_PCD_Init+0x48>)
 8001fca:	f003 fb9b 	bl	8005704 <HAL_PCD_Init>
 8001fce:	4603      	mov	r3, r0
 8001fd0:	2b00      	cmp	r3, #0
 8001fd2:	d001      	beq.n	8001fd8 <MX_USB_PCD_Init+0x44>
  {
    Error_Handler();
 8001fd4:	f000 f974 	bl	80022c0 <Error_Handler>
  }
  /* USER CODE BEGIN USB_Init 2 */

  /* USER CODE END USB_Init 2 */

}
 8001fd8:	bf00      	nop
 8001fda:	bd80      	pop	{r7, pc}
 8001fdc:	200003b8 	.word	0x200003b8
 8001fe0:	40005c00 	.word	0x40005c00

08001fe4 <MX_GPIO_Init>:
  * @brief GPIO Initialization Function
  * @param None
  * @retval None
  */
static void MX_GPIO_Init(void)
{
 8001fe4:	b580      	push	{r7, lr}
 8001fe6:	b08a      	sub	sp, #40	@ 0x28
 8001fe8:	af00      	add	r7, sp, #0
  GPIO_InitTypeDef GPIO_InitStruct = {0};
 8001fea:	f107 0314 	add.w	r3, r7, #20
 8001fee:	2200      	movs	r2, #0
 8001ff0:	601a      	str	r2, [r3, #0]
 8001ff2:	605a      	str	r2, [r3, #4]
 8001ff4:	609a      	str	r2, [r3, #8]
 8001ff6:	60da      	str	r2, [r3, #12]
 8001ff8:	611a      	str	r2, [r3, #16]
  /* USER CODE BEGIN MX_GPIO_Init_1 */

  /* USER CODE END MX_GPIO_Init_1 */

  /* GPIO Ports Clock Enable */
  __HAL_RCC_GPIOC_CLK_ENABLE();
 8001ffa:	4b7f      	ldr	r3, [pc, #508]	@ (80021f8 <MX_GPIO_Init+0x214>)
 8001ffc:	6cdb      	ldr	r3, [r3, #76]	@ 0x4c
 8001ffe:	4a7e      	ldr	r2, [pc, #504]	@ (80021f8 <MX_GPIO_Init+0x214>)
 8002000:	f043 0304 	orr.w	r3, r3, #4
 8002004:	64d3      	str	r3, [r2, #76]	@ 0x4c
 8002006:	4b7c      	ldr	r3, [pc, #496]	@ (80021f8 <MX_GPIO_Init+0x214>)
 8002008:	6cdb      	ldr	r3, [r3, #76]	@ 0x4c
 800200a:	f003 0304 	and.w	r3, r3, #4
 800200e:	613b      	str	r3, [r7, #16]
 8002010:	693b      	ldr	r3, [r7, #16]
  __HAL_RCC_GPIOF_CLK_ENABLE();
 8002012:	4b79      	ldr	r3, [pc, #484]	@ (80021f8 <MX_GPIO_Init+0x214>)
 8002014:	6cdb      	ldr	r3, [r3, #76]	@ 0x4c
 8002016:	4a78      	ldr	r2, [pc, #480]	@ (80021f8 <MX_GPIO_Init+0x214>)
 8002018:	f043 0320 	orr.w	r3, r3, #32
 800201c:	64d3      	str	r3, [r2, #76]	@ 0x4c
 800201e:	4b76      	ldr	r3, [pc, #472]	@ (80021f8 <MX_GPIO_Init+0x214>)
 8002020:	6cdb      	ldr	r3, [r3, #76]	@ 0x4c
 8002022:	f003 0320 	and.w	r3, r3, #32
 8002026:	60fb      	str	r3, [r7, #12]
 8002028:	68fb      	ldr	r3, [r7, #12]
  __HAL_RCC_GPIOA_CLK_ENABLE();
 800202a:	4b73      	ldr	r3, [pc, #460]	@ (80021f8 <MX_GPIO_Init+0x214>)
 800202c:	6cdb      	ldr	r3, [r3, #76]	@ 0x4c
 800202e:	4a72      	ldr	r2, [pc, #456]	@ (80021f8 <MX_GPIO_Init+0x214>)
 8002030:	f043 0301 	orr.w	r3, r3, #1
 8002034:	64d3      	str	r3, [r2, #76]	@ 0x4c
 8002036:	4b70      	ldr	r3, [pc, #448]	@ (80021f8 <MX_GPIO_Init+0x214>)
 8002038:	6cdb      	ldr	r3, [r3, #76]	@ 0x4c
 800203a:	f003 0301 	and.w	r3, r3, #1
 800203e:	60bb      	str	r3, [r7, #8]
 8002040:	68bb      	ldr	r3, [r7, #8]
  __HAL_RCC_GPIOB_CLK_ENABLE();
 8002042:	4b6d      	ldr	r3, [pc, #436]	@ (80021f8 <MX_GPIO_Init+0x214>)
 8002044:	6cdb      	ldr	r3, [r3, #76]	@ 0x4c
 8002046:	4a6c      	ldr	r2, [pc, #432]	@ (80021f8 <MX_GPIO_Init+0x214>)
 8002048:	f043 0302 	orr.w	r3, r3, #2
 800204c:	64d3      	str	r3, [r2, #76]	@ 0x4c
 800204e:	4b6a      	ldr	r3, [pc, #424]	@ (80021f8 <MX_GPIO_Init+0x214>)
 8002050:	6cdb      	ldr	r3, [r3, #76]	@ 0x4c
 8002052:	f003 0302 	and.w	r3, r3, #2
 8002056:	607b      	str	r3, [r7, #4]
 8002058:	687b      	ldr	r3, [r7, #4]
  __HAL_RCC_GPIOD_CLK_ENABLE();
 800205a:	4b67      	ldr	r3, [pc, #412]	@ (80021f8 <MX_GPIO_Init+0x214>)
 800205c:	6cdb      	ldr	r3, [r3, #76]	@ 0x4c
 800205e:	4a66      	ldr	r2, [pc, #408]	@ (80021f8 <MX_GPIO_Init+0x214>)
 8002060:	f043 0308 	orr.w	r3, r3, #8
 8002064:	64d3      	str	r3, [r2, #76]	@ 0x4c
 8002066:	4b64      	ldr	r3, [pc, #400]	@ (80021f8 <MX_GPIO_Init+0x214>)
 8002068:	6cdb      	ldr	r3, [r3, #76]	@ 0x4c
 800206a:	f003 0308 	and.w	r3, r3, #8
 800206e:	603b      	str	r3, [r7, #0]
 8002070:	683b      	ldr	r3, [r7, #0]

  /*Configure GPIO pin Output Level */
  HAL_GPIO_WritePin(GPIOA, DIR_pitch_Pin|LED_pitch_Pin|LED_roll_Pin|LED_gripper_Pin
 8002072:	2200      	movs	r2, #0
 8002074:	f240 413c 	movw	r1, #1084	@ 0x43c
 8002078:	f04f 4090 	mov.w	r0, #1207959552	@ 0x48000000
 800207c:	f003 f9c6 	bl	800540c <HAL_GPIO_WritePin>
                          |Lazer_ctrl_Pin, GPIO_PIN_RESET);

  /*Configure GPIO pin Output Level */
  HAL_GPIO_WritePin(DIR_gripper_GPIO_Port, DIR_gripper_Pin, GPIO_PIN_RESET);
 8002080:	2200      	movs	r2, #0
 8002082:	2102      	movs	r1, #2
 8002084:	485d      	ldr	r0, [pc, #372]	@ (80021fc <MX_GPIO_Init+0x218>)
 8002086:	f003 f9c1 	bl	800540c <HAL_GPIO_WritePin>

  /*Configure GPIO pin Output Level */
  HAL_GPIO_WritePin(GPIOC, DIR_roll_Pin|LED_comms_Pin, GPIO_PIN_RESET);
 800208a:	2200      	movs	r2, #0
 800208c:	f44f 71c0 	mov.w	r1, #384	@ 0x180
 8002090:	485b      	ldr	r0, [pc, #364]	@ (8002200 <MX_GPIO_Init+0x21c>)
 8002092:	f003 f9bb 	bl	800540c <HAL_GPIO_WritePin>

  /*Configure GPIO pins : FAULT_pitch_Pin FAULT_roll_Pin */
  GPIO_InitStruct.Pin = FAULT_pitch_Pin|FAULT_roll_Pin;
 8002096:	f44f 43c0 	mov.w	r3, #24576	@ 0x6000
 800209a:	617b      	str	r3, [r7, #20]
  GPIO_InitStruct.Mode = GPIO_MODE_IT_RISING;
 800209c:	f44f 1388 	mov.w	r3, #1114112	@ 0x110000
 80020a0:	61bb      	str	r3, [r7, #24]
  GPIO_InitStruct.Pull = GPIO_NOPULL;
 80020a2:	2300      	movs	r3, #0
 80020a4:	61fb      	str	r3, [r7, #28]
  HAL_GPIO_Init(GPIOC, &GPIO_InitStruct);
 80020a6:	f107 0314 	add.w	r3, r7, #20
 80020aa:	4619      	mov	r1, r3
 80020ac:	4854      	ldr	r0, [pc, #336]	@ (8002200 <MX_GPIO_Init+0x21c>)
 80020ae:	f003 f813 	bl	80050d8 <HAL_GPIO_Init>

  /*Configure GPIO pin : FAULT_gripper_Pin */
  GPIO_InitStruct.Pin = FAULT_gripper_Pin;
 80020b2:	f44f 4300 	mov.w	r3, #32768	@ 0x8000
 80020b6:	617b      	str	r3, [r7, #20]
  GPIO_InitStruct.Mode = GPIO_MODE_INPUT;
 80020b8:	2300      	movs	r3, #0
 80020ba:	61bb      	str	r3, [r7, #24]
  GPIO_InitStruct.Pull = GPIO_NOPULL;
 80020bc:	2300      	movs	r3, #0
 80020be:	61fb      	str	r3, [r7, #28]
  HAL_GPIO_Init(FAULT_gripper_GPIO_Port, &GPIO_InitStruct);
 80020c0:	f107 0314 	add.w	r3, r7, #20
 80020c4:	4619      	mov	r1, r3
 80020c6:	484e      	ldr	r0, [pc, #312]	@ (8002200 <MX_GPIO_Init+0x21c>)
 80020c8:	f003 f806 	bl	80050d8 <HAL_GPIO_Init>

  /*Configure GPIO pins : DIR_pitch_Pin LED_pitch_Pin LED_roll_Pin LED_gripper_Pin
                           Lazer_ctrl_Pin */
  GPIO_InitStruct.Pin = DIR_pitch_Pin|LED_pitch_Pin|LED_roll_Pin|LED_gripper_Pin
 80020cc:	f240 433c 	movw	r3, #1084	@ 0x43c
 80020d0:	617b      	str	r3, [r7, #20]
                          |Lazer_ctrl_Pin;
  GPIO_InitStruct.Mode = GPIO_MODE_OUTPUT_PP;
 80020d2:	2301      	movs	r3, #1
 80020d4:	61bb      	str	r3, [r7, #24]
  GPIO_InitStruct.Pull = GPIO_NOPULL;
 80020d6:	2300      	movs	r3, #0
 80020d8:	61fb      	str	r3, [r7, #28]
  GPIO_InitStruct.Speed = GPIO_SPEED_FREQ_LOW;
 80020da:	2300      	movs	r3, #0
 80020dc:	623b      	str	r3, [r7, #32]
  HAL_GPIO_Init(GPIOA, &GPIO_InitStruct);
 80020de:	f107 0314 	add.w	r3, r7, #20
 80020e2:	4619      	mov	r1, r3
 80020e4:	f04f 4090 	mov.w	r0, #1207959552	@ 0x48000000
 80020e8:	f002 fff6 	bl	80050d8 <HAL_GPIO_Init>

  /*Configure GPIO pin : DIR_gripper_Pin */
  GPIO_InitStruct.Pin = DIR_gripper_Pin;
 80020ec:	2302      	movs	r3, #2
 80020ee:	617b      	str	r3, [r7, #20]
  GPIO_InitStruct.Mode = GPIO_MODE_OUTPUT_PP;
 80020f0:	2301      	movs	r3, #1
 80020f2:	61bb      	str	r3, [r7, #24]
  GPIO_InitStruct.Pull = GPIO_NOPULL;
 80020f4:	2300      	movs	r3, #0
 80020f6:	61fb      	str	r3, [r7, #28]
  GPIO_InitStruct.Speed = GPIO_SPEED_FREQ_LOW;
 80020f8:	2300      	movs	r3, #0
 80020fa:	623b      	str	r3, [r7, #32]
  HAL_GPIO_Init(DIR_gripper_GPIO_Port, &GPIO_InitStruct);
 80020fc:	f107 0314 	add.w	r3, r7, #20
 8002100:	4619      	mov	r1, r3
 8002102:	483e      	ldr	r0, [pc, #248]	@ (80021fc <MX_GPIO_Init+0x218>)
 8002104:	f002 ffe8 	bl	80050d8 <HAL_GPIO_Init>

  /*Configure GPIO pin : ToF_int_Pin */
  GPIO_InitStruct.Pin = ToF_int_Pin;
 8002108:	f44f 4300 	mov.w	r3, #32768	@ 0x8000
 800210c:	617b      	str	r3, [r7, #20]
  GPIO_InitStruct.Mode = GPIO_MODE_IT_RISING;
 800210e:	f44f 1388 	mov.w	r3, #1114112	@ 0x110000
 8002112:	61bb      	str	r3, [r7, #24]
  GPIO_InitStruct.Pull = GPIO_NOPULL;
 8002114:	2300      	movs	r3, #0
 8002116:	61fb      	str	r3, [r7, #28]
  HAL_GPIO_Init(ToF_int_GPIO_Port, &GPIO_InitStruct);
 8002118:	f107 0314 	add.w	r3, r7, #20
 800211c:	4619      	mov	r1, r3
 800211e:	4837      	ldr	r0, [pc, #220]	@ (80021fc <MX_GPIO_Init+0x218>)
 8002120:	f002 ffda 	bl	80050d8 <HAL_GPIO_Init>

  /*Configure GPIO pins : DIR_roll_Pin LED_comms_Pin */
  GPIO_InitStruct.Pin = DIR_roll_Pin|LED_comms_Pin;
 8002124:	f44f 73c0 	mov.w	r3, #384	@ 0x180
 8002128:	617b      	str	r3, [r7, #20]
  GPIO_InitStruct.Mode = GPIO_MODE_OUTPUT_PP;
 800212a:	2301      	movs	r3, #1
 800212c:	61bb      	str	r3, [r7, #24]
  GPIO_InitStruct.Pull = GPIO_NOPULL;
 800212e:	2300      	movs	r3, #0
 8002130:	61fb      	str	r3, [r7, #28]
  GPIO_InitStruct.Speed = GPIO_SPEED_FREQ_LOW;
 8002132:	2300      	movs	r3, #0
 8002134:	623b      	str	r3, [r7, #32]
  HAL_GPIO_Init(GPIOC, &GPIO_InitStruct);
 8002136:	f107 0314 	add.w	r3, r7, #20
 800213a:	4619      	mov	r1, r3
 800213c:	4830      	ldr	r0, [pc, #192]	@ (8002200 <MX_GPIO_Init+0x21c>)
 800213e:	f002 ffcb 	bl	80050d8 <HAL_GPIO_Init>

  /*Configure GPIO pin : VBUS_sense_Pin */
  GPIO_InitStruct.Pin = VBUS_sense_Pin;
 8002142:	f44f 7300 	mov.w	r3, #512	@ 0x200
 8002146:	617b      	str	r3, [r7, #20]
  GPIO_InitStruct.Mode = GPIO_MODE_INPUT;
 8002148:	2300      	movs	r3, #0
 800214a:	61bb      	str	r3, [r7, #24]
  GPIO_InitStruct.Pull = GPIO_NOPULL;
 800214c:	2300      	movs	r3, #0
 800214e:	61fb      	str	r3, [r7, #28]
  HAL_GPIO_Init(VBUS_sense_GPIO_Port, &GPIO_InitStruct);
 8002150:	f107 0314 	add.w	r3, r7, #20
 8002154:	4619      	mov	r1, r3
 8002156:	f04f 4090 	mov.w	r0, #1207959552	@ 0x48000000
 800215a:	f002 ffbd 	bl	80050d8 <HAL_GPIO_Init>

  /*Configure GPIO pins : Limit_switch_6_Pin Limit_switch_5_Pin Limit_switch_4_Pin */
  GPIO_InitStruct.Pin = Limit_switch_6_Pin|Limit_switch_5_Pin|Limit_switch_4_Pin;
 800215e:	f44f 53e0 	mov.w	r3, #7168	@ 0x1c00
 8002162:	617b      	str	r3, [r7, #20]
  GPIO_InitStruct.Mode = GPIO_MODE_IT_RISING;
 8002164:	f44f 1388 	mov.w	r3, #1114112	@ 0x110000
 8002168:	61bb      	str	r3, [r7, #24]
  GPIO_InitStruct.Pull = GPIO_PULLUP;
 800216a:	2301      	movs	r3, #1
 800216c:	61fb      	str	r3, [r7, #28]
  HAL_GPIO_Init(GPIOC, &GPIO_InitStruct);
 800216e:	f107 0314 	add.w	r3, r7, #20
 8002172:	4619      	mov	r1, r3
 8002174:	4822      	ldr	r0, [pc, #136]	@ (8002200 <MX_GPIO_Init+0x21c>)
 8002176:	f002 ffaf 	bl	80050d8 <HAL_GPIO_Init>

  /*Configure GPIO pin : Limit_switch_3_Pin */
  GPIO_InitStruct.Pin = Limit_switch_3_Pin;
 800217a:	2304      	movs	r3, #4
 800217c:	617b      	str	r3, [r7, #20]
  GPIO_InitStruct.Mode = GPIO_MODE_IT_RISING;
 800217e:	f44f 1388 	mov.w	r3, #1114112	@ 0x110000
 8002182:	61bb      	str	r3, [r7, #24]
  GPIO_InitStruct.Pull = GPIO_PULLUP;
 8002184:	2301      	movs	r3, #1
 8002186:	61fb      	str	r3, [r7, #28]
  HAL_GPIO_Init(Limit_switch_3_GPIO_Port, &GPIO_InitStruct);
 8002188:	f107 0314 	add.w	r3, r7, #20
 800218c:	4619      	mov	r1, r3
 800218e:	481d      	ldr	r0, [pc, #116]	@ (8002204 <MX_GPIO_Init+0x220>)
 8002190:	f002 ffa2 	bl	80050d8 <HAL_GPIO_Init>

  /*Configure GPIO pins : Limit_switch_2_Pin Limit_switch_1_Pin */
  GPIO_InitStruct.Pin = Limit_switch_2_Pin|Limit_switch_1_Pin;
 8002194:	2330      	movs	r3, #48	@ 0x30
 8002196:	617b      	str	r3, [r7, #20]
  GPIO_InitStruct.Mode = GPIO_MODE_IT_RISING;
 8002198:	f44f 1388 	mov.w	r3, #1114112	@ 0x110000
 800219c:	61bb      	str	r3, [r7, #24]
  GPIO_InitStruct.Pull = GPIO_PULLUP;
 800219e:	2301      	movs	r3, #1
 80021a0:	61fb      	str	r3, [r7, #28]
  HAL_GPIO_Init(GPIOB, &GPIO_InitStruct);
 80021a2:	f107 0314 	add.w	r3, r7, #20
 80021a6:	4619      	mov	r1, r3
 80021a8:	4814      	ldr	r0, [pc, #80]	@ (80021fc <MX_GPIO_Init+0x218>)
 80021aa:	f002 ff95 	bl	80050d8 <HAL_GPIO_Init>

  /* EXTI interrupt init*/
  HAL_NVIC_SetPriority(EXTI2_IRQn, 0, 0);
 80021ae:	2200      	movs	r2, #0
 80021b0:	2100      	movs	r1, #0
 80021b2:	2008      	movs	r0, #8
 80021b4:	f002 f8c9 	bl	800434a <HAL_NVIC_SetPriority>
  HAL_NVIC_EnableIRQ(EXTI2_IRQn);
 80021b8:	2008      	movs	r0, #8
 80021ba:	f002 f8e0 	bl	800437e <HAL_NVIC_EnableIRQ>

  HAL_NVIC_SetPriority(EXTI4_IRQn, 0, 0);
 80021be:	2200      	movs	r2, #0
 80021c0:	2100      	movs	r1, #0
 80021c2:	200a      	movs	r0, #10
 80021c4:	f002 f8c1 	bl	800434a <HAL_NVIC_SetPriority>
  HAL_NVIC_EnableIRQ(EXTI4_IRQn);
 80021c8:	200a      	movs	r0, #10
 80021ca:	f002 f8d8 	bl	800437e <HAL_NVIC_EnableIRQ>

  HAL_NVIC_SetPriority(EXTI9_5_IRQn, 0, 0);
 80021ce:	2200      	movs	r2, #0
 80021d0:	2100      	movs	r1, #0
 80021d2:	2017      	movs	r0, #23
 80021d4:	f002 f8b9 	bl	800434a <HAL_NVIC_SetPriority>
  HAL_NVIC_EnableIRQ(EXTI9_5_IRQn);
 80021d8:	2017      	movs	r0, #23
 80021da:	f002 f8d0 	bl	800437e <HAL_NVIC_EnableIRQ>

  HAL_NVIC_SetPriority(EXTI15_10_IRQn, 0, 0);
 80021de:	2200      	movs	r2, #0
 80021e0:	2100      	movs	r1, #0
 80021e2:	2028      	movs	r0, #40	@ 0x28
 80021e4:	f002 f8b1 	bl	800434a <HAL_NVIC_SetPriority>
  HAL_NVIC_EnableIRQ(EXTI15_10_IRQn);
 80021e8:	2028      	movs	r0, #40	@ 0x28
 80021ea:	f002 f8c8 	bl	800437e <HAL_NVIC_EnableIRQ>

  /* USER CODE BEGIN MX_GPIO_Init_2 */

  /* USER CODE END MX_GPIO_Init_2 */
}
 80021ee:	bf00      	nop
 80021f0:	3728      	adds	r7, #40	@ 0x28
 80021f2:	46bd      	mov	sp, r7
 80021f4:	bd80      	pop	{r7, pc}
 80021f6:	bf00      	nop
 80021f8:	40021000 	.word	0x40021000
 80021fc:	48000400 	.word	0x48000400
 8002200:	48000800 	.word	0x48000800
 8002204:	48000c00 	.word	0x48000c00

08002208 <HAL_FDCAN_RxFifo0Callback>:

/* USER CODE BEGIN 4 */


void HAL_FDCAN_RxFifo0Callback (FDCAN_HandleTypeDef *hfdcan, uint32_t RxFifo0ITs){
 8002208:	b580      	push	{r7, lr}
 800220a:	b082      	sub	sp, #8
 800220c:	af00      	add	r7, sp, #0
 800220e:	6078      	str	r0, [r7, #4]
 8002210:	6039      	str	r1, [r7, #0]
		//check that RX FIFO 0 received a new message
	  if((RxFifo0ITs & FDCAN_IT_RX_FIFO0_NEW_MESSAGE) != RESET)
 8002212:	683b      	ldr	r3, [r7, #0]
 8002214:	f003 0301 	and.w	r3, r3, #1
 8002218:	2b00      	cmp	r3, #0
 800221a:	d012      	beq.n	8002242 <HAL_FDCAN_RxFifo0Callback+0x3a>
	  {
	    /* Retrieve Rx messages from RX FIFO0, stores into RxHeader and RxData */
	    if (HAL_FDCAN_GetRxMessage(hfdcan, FDCAN_RX_FIFO0, &RxHeader, RxData) != HAL_OK)
 800221c:	4b0b      	ldr	r3, [pc, #44]	@ (800224c <HAL_FDCAN_RxFifo0Callback+0x44>)
 800221e:	4a0c      	ldr	r2, [pc, #48]	@ (8002250 <HAL_FDCAN_RxFifo0Callback+0x48>)
 8002220:	2140      	movs	r1, #64	@ 0x40
 8002222:	6878      	ldr	r0, [r7, #4]
 8002224:	f002 fae6 	bl	80047f4 <HAL_FDCAN_GetRxMessage>
 8002228:	4603      	mov	r3, r0
 800222a:	2b00      	cmp	r3, #0
 800222c:	d001      	beq.n	8002232 <HAL_FDCAN_RxFifo0Callback+0x2a>
	    {
	    Error_Handler();
 800222e:	f000 f847 	bl	80022c0 <Error_Handler>
	    }

	    //upon successful interrupt, the CAN flag is set high for main loop to catch
	    HAL_GPIO_TogglePin(LED_comms_GPIO_Port , LED_comms_Pin);
 8002232:	f44f 7180 	mov.w	r1, #256	@ 0x100
 8002236:	4807      	ldr	r0, [pc, #28]	@ (8002254 <HAL_FDCAN_RxFifo0Callback+0x4c>)
 8002238:	f003 f900 	bl	800543c <HAL_GPIO_TogglePin>
	    CAN_flag = 1;
 800223c:	4b06      	ldr	r3, [pc, #24]	@ (8002258 <HAL_FDCAN_RxFifo0Callback+0x50>)
 800223e:	2201      	movs	r2, #1
 8002240:	601a      	str	r2, [r3, #0]

	  }
	}
 8002242:	bf00      	nop
 8002244:	3708      	adds	r7, #8
 8002246:	46bd      	mov	sp, r7
 8002248:	bd80      	pop	{r7, pc}
 800224a:	bf00      	nop
 800224c:	200006bc 	.word	0x200006bc
 8002250:	20000694 	.word	0x20000694
 8002254:	48000800 	.word	0x48000800
 8002258:	20000708 	.word	0x20000708

0800225c <HAL_GPIO_EXTI_Callback>:

void HAL_GPIO_EXTI_Callback(uint16_t GPIO_Pin){
 800225c:	b480      	push	{r7}
 800225e:	b083      	sub	sp, #12
 8002260:	af00      	add	r7, sp, #0
 8002262:	4603      	mov	r3, r0
 8002264:	80fb      	strh	r3, [r7, #6]
	if (GPIO_Pin == Limit_switch_1_Pin){
 8002266:	88fb      	ldrh	r3, [r7, #6]
 8002268:	2b20      	cmp	r3, #32
 800226a:	d103      	bne.n	8002274 <HAL_GPIO_EXTI_Callback+0x18>
		LMSW1_flag_pitch_up = 1;
 800226c:	4b10      	ldr	r3, [pc, #64]	@ (80022b0 <HAL_GPIO_EXTI_Callback+0x54>)
 800226e:	2201      	movs	r2, #1
 8002270:	601a      	str	r2, [r3, #0]
	}else if (GPIO_Pin == Limit_switch_6_Pin){
		LMSW6_flag_gripper = 1;
	}else{
		__NOP(); //callback problem
	}
}
 8002272:	e017      	b.n	80022a4 <HAL_GPIO_EXTI_Callback+0x48>
	}else if (GPIO_Pin == Limit_switch_2_Pin){
 8002274:	88fb      	ldrh	r3, [r7, #6]
 8002276:	2b10      	cmp	r3, #16
 8002278:	d103      	bne.n	8002282 <HAL_GPIO_EXTI_Callback+0x26>
		LMSW2_flag_pitch_down = 1;
 800227a:	4b0e      	ldr	r3, [pc, #56]	@ (80022b4 <HAL_GPIO_EXTI_Callback+0x58>)
 800227c:	2201      	movs	r2, #1
 800227e:	601a      	str	r2, [r3, #0]
}
 8002280:	e010      	b.n	80022a4 <HAL_GPIO_EXTI_Callback+0x48>
	}else if (GPIO_Pin == Limit_switch_5_Pin){
 8002282:	88fb      	ldrh	r3, [r7, #6]
 8002284:	f5b3 6f00 	cmp.w	r3, #2048	@ 0x800
 8002288:	d103      	bne.n	8002292 <HAL_GPIO_EXTI_Callback+0x36>
		LMSW5_flag_roll = 1;
 800228a:	4b0b      	ldr	r3, [pc, #44]	@ (80022b8 <HAL_GPIO_EXTI_Callback+0x5c>)
 800228c:	2201      	movs	r2, #1
 800228e:	601a      	str	r2, [r3, #0]
}
 8002290:	e008      	b.n	80022a4 <HAL_GPIO_EXTI_Callback+0x48>
	}else if (GPIO_Pin == Limit_switch_6_Pin){
 8002292:	88fb      	ldrh	r3, [r7, #6]
 8002294:	f5b3 6f80 	cmp.w	r3, #1024	@ 0x400
 8002298:	d103      	bne.n	80022a2 <HAL_GPIO_EXTI_Callback+0x46>
		LMSW6_flag_gripper = 1;
 800229a:	4b08      	ldr	r3, [pc, #32]	@ (80022bc <HAL_GPIO_EXTI_Callback+0x60>)
 800229c:	2201      	movs	r2, #1
 800229e:	601a      	str	r2, [r3, #0]
}
 80022a0:	e000      	b.n	80022a4 <HAL_GPIO_EXTI_Callback+0x48>
		__NOP(); //callback problem
 80022a2:	bf00      	nop
}
 80022a4:	bf00      	nop
 80022a6:	370c      	adds	r7, #12
 80022a8:	46bd      	mov	sp, r7
 80022aa:	f85d 7b04 	ldr.w	r7, [sp], #4
 80022ae:	4770      	bx	lr
 80022b0:	2000070c 	.word	0x2000070c
 80022b4:	20000710 	.word	0x20000710
 80022b8:	20000714 	.word	0x20000714
 80022bc:	20000718 	.word	0x20000718

080022c0 <Error_Handler>:
/**
  * @brief  This function is executed in case of error occurrence.
  * @retval None
  */
void Error_Handler(void)
{
 80022c0:	b480      	push	{r7}
 80022c2:	af00      	add	r7, sp, #0
  \details Disables IRQ interrupts by setting the I-bit in the CPSR.
           Can only be executed in Privileged modes.
 */
__STATIC_FORCEINLINE void __disable_irq(void)
{
  __ASM volatile ("cpsid i" : : : "memory");
 80022c4:	b672      	cpsid	i
}
 80022c6:	bf00      	nop
  /* USER CODE BEGIN Error_Handler_Debug */
  /* User can add his own implementation to report the HAL error return state */
  __disable_irq();
  while (1)
 80022c8:	bf00      	nop
 80022ca:	e7fd      	b.n	80022c8 <Error_Handler+0x8>

080022cc <motor_struct_init>:
//int ROLL_ID = ROLL;


void motor_struct_init(Motor* motor, TIM_TypeDef * pwm, TIM_TypeDef * encoder,
		Motor_Encoding_Struct * encoding, MotorName motorName,  GPIO_TypeDef* DIR_port, uint16_t DIR_pin,
		int kPw, int kDw){
 80022cc:	b480      	push	{r7}
 80022ce:	b085      	sub	sp, #20
 80022d0:	af00      	add	r7, sp, #0
 80022d2:	60f8      	str	r0, [r7, #12]
 80022d4:	60b9      	str	r1, [r7, #8]
 80022d6:	607a      	str	r2, [r7, #4]
 80022d8:	603b      	str	r3, [r7, #0]
	motor->motorName = motorName;
 80022da:	68fb      	ldr	r3, [r7, #12]
 80022dc:	7e3a      	ldrb	r2, [r7, #24]
 80022de:	731a      	strb	r2, [r3, #12]
	motor->ENCODER_type = encoder;
 80022e0:	68fb      	ldr	r3, [r7, #12]
 80022e2:	687a      	ldr	r2, [r7, #4]
 80022e4:	605a      	str	r2, [r3, #4]
	motor->Motor_Encoding_Struct = encoding;
 80022e6:	68fb      	ldr	r3, [r7, #12]
 80022e8:	683a      	ldr	r2, [r7, #0]
 80022ea:	609a      	str	r2, [r3, #8]
	motor->PWM_type = pwm;
 80022ec:	68fb      	ldr	r3, [r7, #12]
 80022ee:	68ba      	ldr	r2, [r7, #8]
 80022f0:	601a      	str	r2, [r3, #0]
	motor->DIR_port = DIR_port;
 80022f2:	68fb      	ldr	r3, [r7, #12]
 80022f4:	69fa      	ldr	r2, [r7, #28]
 80022f6:	611a      	str	r2, [r3, #16]
	motor->DIR_pin = DIR_pin;
 80022f8:	68fb      	ldr	r3, [r7, #12]
 80022fa:	8c3a      	ldrh	r2, [r7, #32]
 80022fc:	829a      	strh	r2, [r3, #20]
	motor->kPw = kPw;
 80022fe:	68fb      	ldr	r3, [r7, #12]
 8002300:	6a7a      	ldr	r2, [r7, #36]	@ 0x24
 8002302:	619a      	str	r2, [r3, #24]
	motor->kDw = kDw;
 8002304:	68fb      	ldr	r3, [r7, #12]
 8002306:	6aba      	ldr	r2, [r7, #40]	@ 0x28
 8002308:	61da      	str	r2, [r3, #28]

	motor->steering_state = PID; // initialize the state to PID
 800230a:	68fb      	ldr	r3, [r7, #12]
 800230c:	2200      	movs	r2, #0
 800230e:	759a      	strb	r2, [r3, #22]
}
 8002310:	bf00      	nop
 8002312:	3714      	adds	r7, #20
 8002314:	46bd      	mov	sp, r7
 8002316:	f85d 7b04 	ldr.w	r7, [sp], #4
 800231a:	4770      	bx	lr

0800231c <stop_motor>:


void stop_motor(Motor * motor){
 800231c:	b580      	push	{r7, lr}
 800231e:	b084      	sub	sp, #16
 8002320:	af00      	add	r7, sp, #0
 8002322:	6078      	str	r0, [r7, #4]
	set_motor_speed_raw(motor, 0);
 8002324:	2100      	movs	r1, #0
 8002326:	6878      	ldr	r0, [r7, #4]
 8002328:	f000 f840 	bl	80023ac <set_motor_speed_raw>
	int counts = get_counts(motor->Motor_Encoding_Struct);
 800232c:	687b      	ldr	r3, [r7, #4]
 800232e:	689b      	ldr	r3, [r3, #8]
 8002330:	4618      	mov	r0, r3
 8002332:	f7fe fe43 	bl	8000fbc <get_counts>
 8002336:	60f8      	str	r0, [r7, #12]
	setPIDGoalA(motor, count_to_angle(motor->Motor_Encoding_Struct, counts));
 8002338:	687b      	ldr	r3, [r7, #4]
 800233a:	689b      	ldr	r3, [r3, #8]
 800233c:	68f9      	ldr	r1, [r7, #12]
 800233e:	4618      	mov	r0, r3
 8002340:	f7fe fe48 	bl	8000fd4 <count_to_angle>
 8002344:	ee10 3a10 	vmov	r3, s0
 8002348:	4618      	mov	r0, r3
 800234a:	f7fe f8c9 	bl	80004e0 <__aeabi_f2d>
 800234e:	4602      	mov	r2, r0
 8002350:	460b      	mov	r3, r1
 8002352:	ec43 2b10 	vmov	d0, r2, r3
 8002356:	6878      	ldr	r0, [r7, #4]
 8002358:	f000 f918 	bl	800258c <setPIDGoalA>
}
 800235c:	bf00      	nop
 800235e:	3710      	adds	r7, #16
 8002360:	46bd      	mov	sp, r7
 8002362:	bd80      	pop	{r7, pc}

08002364 <set_motor_speed_percent>:

void set_motor_speed_percent(Motor * motor, float n){
 8002364:	b580      	push	{r7, lr}
 8002366:	b082      	sub	sp, #8
 8002368:	af00      	add	r7, sp, #0
 800236a:	6078      	str	r0, [r7, #4]
 800236c:	ed87 0a00 	vstr	s0, [r7]
	set_motor_speed_raw(motor, power_limit*(n/100.0f));
 8002370:	4b0c      	ldr	r3, [pc, #48]	@ (80023a4 <set_motor_speed_percent+0x40>)
 8002372:	681b      	ldr	r3, [r3, #0]
 8002374:	ee07 3a90 	vmov	s15, r3
 8002378:	eeb8 7ae7 	vcvt.f32.s32	s14, s15
 800237c:	edd7 6a00 	vldr	s13, [r7]
 8002380:	ed9f 6a09 	vldr	s12, [pc, #36]	@ 80023a8 <set_motor_speed_percent+0x44>
 8002384:	eec6 7a86 	vdiv.f32	s15, s13, s12
 8002388:	ee67 7a27 	vmul.f32	s15, s14, s15
 800238c:	eefd 7ae7 	vcvt.s32.f32	s15, s15
 8002390:	ee17 1a90 	vmov	r1, s15
 8002394:	6878      	ldr	r0, [r7, #4]
 8002396:	f000 f809 	bl	80023ac <set_motor_speed_raw>
}
 800239a:	bf00      	nop
 800239c:	3708      	adds	r7, #8
 800239e:	46bd      	mov	sp, r7
 80023a0:	bd80      	pop	{r7, pc}
 80023a2:	bf00      	nop
 80023a4:	20000004 	.word	0x20000004
 80023a8:	42c80000 	.word	0x42c80000

080023ac <set_motor_speed_raw>:

void set_motor_speed_raw(Motor * motor, int n){
 80023ac:	b480      	push	{r7}
 80023ae:	b083      	sub	sp, #12
 80023b0:	af00      	add	r7, sp, #0
 80023b2:	6078      	str	r0, [r7, #4]
 80023b4:	6039      	str	r1, [r7, #0]
	n = abs(n);
 80023b6:	683b      	ldr	r3, [r7, #0]
 80023b8:	2b00      	cmp	r3, #0
 80023ba:	bfb8      	it	lt
 80023bc:	425b      	neglt	r3, r3
 80023be:	603b      	str	r3, [r7, #0]
	if (n > power_limit){
 80023c0:	4b08      	ldr	r3, [pc, #32]	@ (80023e4 <set_motor_speed_raw+0x38>)
 80023c2:	681b      	ldr	r3, [r3, #0]
 80023c4:	683a      	ldr	r2, [r7, #0]
 80023c6:	429a      	cmp	r2, r3
 80023c8:	dd02      	ble.n	80023d0 <set_motor_speed_raw+0x24>
		n = power_limit;
 80023ca:	4b06      	ldr	r3, [pc, #24]	@ (80023e4 <set_motor_speed_raw+0x38>)
 80023cc:	681b      	ldr	r3, [r3, #0]
 80023ce:	603b      	str	r3, [r7, #0]
	}
	motor->PWM_type->CCR1 = n;
 80023d0:	687b      	ldr	r3, [r7, #4]
 80023d2:	681b      	ldr	r3, [r3, #0]
 80023d4:	683a      	ldr	r2, [r7, #0]
 80023d6:	635a      	str	r2, [r3, #52]	@ 0x34
}
 80023d8:	bf00      	nop
 80023da:	370c      	adds	r7, #12
 80023dc:	46bd      	mov	sp, r7
 80023de:	f85d 7b04 	ldr.w	r7, [sp], #4
 80023e2:	4770      	bx	lr
 80023e4:	20000004 	.word	0x20000004

080023e8 <set_motor_direction>:


void set_motor_direction(Motor * motor, int n){
 80023e8:	b580      	push	{r7, lr}
 80023ea:	b082      	sub	sp, #8
 80023ec:	af00      	add	r7, sp, #0
 80023ee:	6078      	str	r0, [r7, #4]
 80023f0:	6039      	str	r1, [r7, #0]
	if (n) {
 80023f2:	683b      	ldr	r3, [r7, #0]
 80023f4:	2b00      	cmp	r3, #0
 80023f6:	d008      	beq.n	800240a <set_motor_direction+0x22>
		HAL_GPIO_WritePin(motor->DIR_port, motor->DIR_pin, GPIO_PIN_RESET);
 80023f8:	687b      	ldr	r3, [r7, #4]
 80023fa:	6918      	ldr	r0, [r3, #16]
 80023fc:	687b      	ldr	r3, [r7, #4]
 80023fe:	8a9b      	ldrh	r3, [r3, #20]
 8002400:	2200      	movs	r2, #0
 8002402:	4619      	mov	r1, r3
 8002404:	f003 f802 	bl	800540c <HAL_GPIO_WritePin>
 8002408:	e007      	b.n	800241a <set_motor_direction+0x32>
	}
	else {
		HAL_GPIO_WritePin(motor->DIR_port, motor->DIR_pin, GPIO_PIN_SET);
 800240a:	687b      	ldr	r3, [r7, #4]
 800240c:	6918      	ldr	r0, [r3, #16]
 800240e:	687b      	ldr	r3, [r7, #4]
 8002410:	8a9b      	ldrh	r3, [r3, #20]
 8002412:	2201      	movs	r2, #1
 8002414:	4619      	mov	r1, r3
 8002416:	f002 fff9 	bl	800540c <HAL_GPIO_WritePin>
	}
	direction = n;
 800241a:	4a03      	ldr	r2, [pc, #12]	@ (8002428 <set_motor_direction+0x40>)
 800241c:	683b      	ldr	r3, [r7, #0]
 800241e:	6013      	str	r3, [r2, #0]
}
 8002420:	bf00      	nop
 8002422:	3708      	adds	r7, #8
 8002424:	46bd      	mov	sp, r7
 8002426:	bd80      	pop	{r7, pc}
 8002428:	20000000 	.word	0x20000000

0800242c <updatePIDImpl>:
static volatile atomic_int gripperGoalAngle = ATOMIC_VAR_INIT (0);
static volatile atomic_int pitchGoalAngle = ATOMIC_VAR_INIT (0);
static volatile atomic_int rollGoalAngle = ATOMIC_VAR_INIT (0);

// PID implementation
int updatePIDImpl(Motor * motor, int goal) {
 800242c:	b580      	push	{r7, lr}
 800242e:	b082      	sub	sp, #8
 8002430:	af00      	add	r7, sp, #0
 8002432:	6078      	str	r0, [r7, #4]
 8002434:	6039      	str	r1, [r7, #0]
	 * right encoder counts. Refer to stocked example document on the google drive for some pointers.
	 */



	currentGoal = goal;
 8002436:	4a26      	ldr	r2, [pc, #152]	@ (80024d0 <updatePIDImpl+0xa4>)
 8002438:	683b      	ldr	r3, [r7, #0]
 800243a:	6013      	str	r3, [r2, #0]
	//return 1 when goal reached
	angleError = goal - get_counts(motor->Motor_Encoding_Struct);
 800243c:	687b      	ldr	r3, [r7, #4]
 800243e:	689b      	ldr	r3, [r3, #8]
 8002440:	4618      	mov	r0, r3
 8002442:	f7fe fdbb 	bl	8000fbc <get_counts>
 8002446:	4602      	mov	r2, r0
 8002448:	683b      	ldr	r3, [r7, #0]
 800244a:	1a9b      	subs	r3, r3, r2
 800244c:	4a21      	ldr	r2, [pc, #132]	@ (80024d4 <updatePIDImpl+0xa8>)
 800244e:	6013      	str	r3, [r2, #0]
//		}
//	}


	// --> define kPw and kDw for each individual motor !
    angleCorrection = motor->kPw * angleError + motor->kDw * (angleError - oldAngleError);
 8002450:	687b      	ldr	r3, [r7, #4]
 8002452:	699b      	ldr	r3, [r3, #24]
 8002454:	4a1f      	ldr	r2, [pc, #124]	@ (80024d4 <updatePIDImpl+0xa8>)
 8002456:	6812      	ldr	r2, [r2, #0]
 8002458:	fb03 f202 	mul.w	r2, r3, r2
 800245c:	687b      	ldr	r3, [r7, #4]
 800245e:	69db      	ldr	r3, [r3, #28]
 8002460:	491c      	ldr	r1, [pc, #112]	@ (80024d4 <updatePIDImpl+0xa8>)
 8002462:	6808      	ldr	r0, [r1, #0]
 8002464:	491c      	ldr	r1, [pc, #112]	@ (80024d8 <updatePIDImpl+0xac>)
 8002466:	6809      	ldr	r1, [r1, #0]
 8002468:	1a41      	subs	r1, r0, r1
 800246a:	fb01 f303 	mul.w	r3, r1, r3
 800246e:	4413      	add	r3, r2
 8002470:	4a1a      	ldr	r2, [pc, #104]	@ (80024dc <updatePIDImpl+0xb0>)
 8002472:	6013      	str	r3, [r2, #0]
    // Set direction based on allowed error
	if (angleCorrection < 0){
 8002474:	4b19      	ldr	r3, [pc, #100]	@ (80024dc <updatePIDImpl+0xb0>)
 8002476:	681b      	ldr	r3, [r3, #0]
 8002478:	2b00      	cmp	r3, #0
 800247a:	da04      	bge.n	8002486 <updatePIDImpl+0x5a>
		set_motor_direction(motor, 0);
 800247c:	2100      	movs	r1, #0
 800247e:	6878      	ldr	r0, [r7, #4]
 8002480:	f7ff ffb2 	bl	80023e8 <set_motor_direction>
 8002484:	e003      	b.n	800248e <updatePIDImpl+0x62>
	} else{
		set_motor_direction(motor, 1);
 8002486:	2101      	movs	r1, #1
 8002488:	6878      	ldr	r0, [r7, #4]
 800248a:	f7ff ffad 	bl	80023e8 <set_motor_direction>
	}
	oldAngleError = angleError;
 800248e:	4b11      	ldr	r3, [pc, #68]	@ (80024d4 <updatePIDImpl+0xa8>)
 8002490:	681b      	ldr	r3, [r3, #0]
 8002492:	4a11      	ldr	r2, [pc, #68]	@ (80024d8 <updatePIDImpl+0xac>)
 8002494:	6013      	str	r3, [r2, #0]
	// Stop if within error
	if (abs(angleError) <  ALLOWED_ERROR){
 8002496:	4b0f      	ldr	r3, [pc, #60]	@ (80024d4 <updatePIDImpl+0xa8>)
 8002498:	681b      	ldr	r3, [r3, #0]
 800249a:	f113 0f13 	cmn.w	r3, #19
 800249e:	db0c      	blt.n	80024ba <updatePIDImpl+0x8e>
 80024a0:	4b0c      	ldr	r3, [pc, #48]	@ (80024d4 <updatePIDImpl+0xa8>)
 80024a2:	681b      	ldr	r3, [r3, #0]
 80024a4:	2b13      	cmp	r3, #19
 80024a6:	dc08      	bgt.n	80024ba <updatePIDImpl+0x8e>
		set_motor_speed_raw(motor, 0);
 80024a8:	2100      	movs	r1, #0
 80024aa:	6878      	ldr	r0, [r7, #4]
 80024ac:	f7ff ff7e 	bl	80023ac <set_motor_speed_raw>

		oldAngleError = 0; //reset error once goal reached
 80024b0:	4b09      	ldr	r3, [pc, #36]	@ (80024d8 <updatePIDImpl+0xac>)
 80024b2:	2200      	movs	r2, #0
 80024b4:	601a      	str	r2, [r3, #0]
		return 1;
 80024b6:	2301      	movs	r3, #1
 80024b8:	e006      	b.n	80024c8 <updatePIDImpl+0x9c>
//		if (abs(angleError) < ALLOWED_ERROR_ZERO) {
//			set_motor_speed(0);
//			return;
//		}
//	}
	set_motor_speed_raw(motor, angleCorrection);
 80024ba:	4b08      	ldr	r3, [pc, #32]	@ (80024dc <updatePIDImpl+0xb0>)
 80024bc:	681b      	ldr	r3, [r3, #0]
 80024be:	4619      	mov	r1, r3
 80024c0:	6878      	ldr	r0, [r7, #4]
 80024c2:	f7ff ff73 	bl	80023ac <set_motor_speed_raw>



	return 0;
 80024c6:	2300      	movs	r3, #0
}
 80024c8:	4618      	mov	r0, r3
 80024ca:	3708      	adds	r7, #8
 80024cc:	46bd      	mov	sp, r7
 80024ce:	bd80      	pop	{r7, pc}
 80024d0:	20000728 	.word	0x20000728
 80024d4:	2000071c 	.word	0x2000071c
 80024d8:	20000724 	.word	0x20000724
 80024dc:	20000720 	.word	0x20000720

080024e0 <updatePID>:

// normal pid with goal from can
int updatePID(Motor * motor){
 80024e0:	b580      	push	{r7, lr}
 80024e2:	b088      	sub	sp, #32
 80024e4:	af00      	add	r7, sp, #0
 80024e6:	6078      	str	r0, [r7, #4]
	if (motor->motorName == GRIPPER){
 80024e8:	687b      	ldr	r3, [r7, #4]
 80024ea:	7b1b      	ldrb	r3, [r3, #12]
 80024ec:	2b00      	cmp	r3, #0
 80024ee:	d10f      	bne.n	8002510 <updatePID+0x30>
		return updatePIDImpl(motor, atomic_load(&gripperGoalAngle));
 80024f0:	4b1e      	ldr	r3, [pc, #120]	@ (800256c <updatePID+0x8c>)
 80024f2:	617b      	str	r3, [r7, #20]
 80024f4:	697b      	ldr	r3, [r7, #20]
 80024f6:	f3bf 8f5b 	dmb	ish
 80024fa:	681b      	ldr	r3, [r3, #0]
 80024fc:	f3bf 8f5b 	dmb	ish
 8002500:	613b      	str	r3, [r7, #16]
 8002502:	693b      	ldr	r3, [r7, #16]
 8002504:	4619      	mov	r1, r3
 8002506:	6878      	ldr	r0, [r7, #4]
 8002508:	f7ff ff90 	bl	800242c <updatePIDImpl>
 800250c:	4603      	mov	r3, r0
 800250e:	e029      	b.n	8002564 <updatePID+0x84>
	}else if (motor->motorName == PITCH){
 8002510:	687b      	ldr	r3, [r7, #4]
 8002512:	7b1b      	ldrb	r3, [r3, #12]
 8002514:	2b01      	cmp	r3, #1
 8002516:	d10f      	bne.n	8002538 <updatePID+0x58>
		return updatePIDImpl(motor, atomic_load(&pitchGoalAngle));
 8002518:	4b15      	ldr	r3, [pc, #84]	@ (8002570 <updatePID+0x90>)
 800251a:	61bb      	str	r3, [r7, #24]
 800251c:	69bb      	ldr	r3, [r7, #24]
 800251e:	f3bf 8f5b 	dmb	ish
 8002522:	681b      	ldr	r3, [r3, #0]
 8002524:	f3bf 8f5b 	dmb	ish
 8002528:	60fb      	str	r3, [r7, #12]
 800252a:	68fb      	ldr	r3, [r7, #12]
 800252c:	4619      	mov	r1, r3
 800252e:	6878      	ldr	r0, [r7, #4]
 8002530:	f7ff ff7c 	bl	800242c <updatePIDImpl>
 8002534:	4603      	mov	r3, r0
 8002536:	e015      	b.n	8002564 <updatePID+0x84>
	}else if (motor->motorName == ROLL){
 8002538:	687b      	ldr	r3, [r7, #4]
 800253a:	7b1b      	ldrb	r3, [r3, #12]
 800253c:	2b02      	cmp	r3, #2
 800253e:	d10f      	bne.n	8002560 <updatePID+0x80>
		return updatePIDImpl(motor, atomic_load(&rollGoalAngle));
 8002540:	4b0c      	ldr	r3, [pc, #48]	@ (8002574 <updatePID+0x94>)
 8002542:	61fb      	str	r3, [r7, #28]
 8002544:	69fb      	ldr	r3, [r7, #28]
 8002546:	f3bf 8f5b 	dmb	ish
 800254a:	681b      	ldr	r3, [r3, #0]
 800254c:	f3bf 8f5b 	dmb	ish
 8002550:	60bb      	str	r3, [r7, #8]
 8002552:	68bb      	ldr	r3, [r7, #8]
 8002554:	4619      	mov	r1, r3
 8002556:	6878      	ldr	r0, [r7, #4]
 8002558:	f7ff ff68 	bl	800242c <updatePIDImpl>
 800255c:	4603      	mov	r3, r0
 800255e:	e001      	b.n	8002564 <updatePID+0x84>
	}

	return -1; // error motor error
 8002560:	f04f 33ff 	mov.w	r3, #4294967295
}
 8002564:	4618      	mov	r0, r3
 8002566:	3720      	adds	r7, #32
 8002568:	46bd      	mov	sp, r7
 800256a:	bd80      	pop	{r7, pc}
 800256c:	2000072c 	.word	0x2000072c
 8002570:	20000730 	.word	0x20000730
 8002574:	20000734 	.word	0x20000734

08002578 <leave_limit_switch>:
	return updatePIDImpl(motor, override);
}


// use PID to move away from limit switch a little bit after switch is triggered
void leave_limit_switch(Motor * motor){
 8002578:	b480      	push	{r7}
 800257a:	b083      	sub	sp, #12
 800257c:	af00      	add	r7, sp, #0
 800257e:	6078      	str	r0, [r7, #4]
		}
	}
	*/


}
 8002580:	bf00      	nop
 8002582:	370c      	adds	r7, #12
 8002584:	46bd      	mov	sp, r7
 8002586:	f85d 7b04 	ldr.w	r7, [sp], #4
 800258a:	4770      	bx	lr

0800258c <setPIDGoalA>:

void setPIDGoalA(Motor * motor, double angle) {
 800258c:	b580      	push	{r7, lr}
 800258e:	b08a      	sub	sp, #40	@ 0x28
 8002590:	af00      	add	r7, sp, #0
 8002592:	60f8      	str	r0, [r7, #12]
 8002594:	ed87 0b00 	vstr	d0, [r7]
	if (motor->motorName == GRIPPER){
 8002598:	68fb      	ldr	r3, [r7, #12]
 800259a:	7b1b      	ldrb	r3, [r3, #12]
 800259c:	2b00      	cmp	r3, #0
 800259e:	d113      	bne.n	80025c8 <setPIDGoalA+0x3c>
		atomic_store(&gripperGoalAngle, angle_to_count(motor->Motor_Encoding_Struct, angle));
 80025a0:	4b23      	ldr	r3, [pc, #140]	@ (8002630 <setPIDGoalA+0xa4>)
 80025a2:	61fb      	str	r3, [r7, #28]
 80025a4:	68fb      	ldr	r3, [r7, #12]
 80025a6:	689b      	ldr	r3, [r3, #8]
 80025a8:	ed97 0b00 	vldr	d0, [r7]
 80025ac:	4618      	mov	r0, r3
 80025ae:	f7fe fd43 	bl	8001038 <angle_to_count>
 80025b2:	4603      	mov	r3, r0
 80025b4:	61bb      	str	r3, [r7, #24]
 80025b6:	69bb      	ldr	r3, [r7, #24]
 80025b8:	461a      	mov	r2, r3
 80025ba:	69fb      	ldr	r3, [r7, #28]
 80025bc:	f3bf 8f5b 	dmb	ish
 80025c0:	601a      	str	r2, [r3, #0]
 80025c2:	f3bf 8f5b 	dmb	ish
	}else if (motor->motorName == PITCH){
		atomic_store(&pitchGoalAngle, angle_to_count(motor->Motor_Encoding_Struct, angle));
	}else if (motor->motorName == ROLL){
		atomic_store(&rollGoalAngle, angle_to_count(motor->Motor_Encoding_Struct, angle));
	}
}
 80025c6:	e02e      	b.n	8002626 <setPIDGoalA+0x9a>
	}else if (motor->motorName == PITCH){
 80025c8:	68fb      	ldr	r3, [r7, #12]
 80025ca:	7b1b      	ldrb	r3, [r3, #12]
 80025cc:	2b01      	cmp	r3, #1
 80025ce:	d113      	bne.n	80025f8 <setPIDGoalA+0x6c>
		atomic_store(&pitchGoalAngle, angle_to_count(motor->Motor_Encoding_Struct, angle));
 80025d0:	4b18      	ldr	r3, [pc, #96]	@ (8002634 <setPIDGoalA+0xa8>)
 80025d2:	623b      	str	r3, [r7, #32]
 80025d4:	68fb      	ldr	r3, [r7, #12]
 80025d6:	689b      	ldr	r3, [r3, #8]
 80025d8:	ed97 0b00 	vldr	d0, [r7]
 80025dc:	4618      	mov	r0, r3
 80025de:	f7fe fd2b 	bl	8001038 <angle_to_count>
 80025e2:	4603      	mov	r3, r0
 80025e4:	617b      	str	r3, [r7, #20]
 80025e6:	697b      	ldr	r3, [r7, #20]
 80025e8:	461a      	mov	r2, r3
 80025ea:	6a3b      	ldr	r3, [r7, #32]
 80025ec:	f3bf 8f5b 	dmb	ish
 80025f0:	601a      	str	r2, [r3, #0]
 80025f2:	f3bf 8f5b 	dmb	ish
}
 80025f6:	e016      	b.n	8002626 <setPIDGoalA+0x9a>
	}else if (motor->motorName == ROLL){
 80025f8:	68fb      	ldr	r3, [r7, #12]
 80025fa:	7b1b      	ldrb	r3, [r3, #12]
 80025fc:	2b02      	cmp	r3, #2
 80025fe:	d112      	bne.n	8002626 <setPIDGoalA+0x9a>
		atomic_store(&rollGoalAngle, angle_to_count(motor->Motor_Encoding_Struct, angle));
 8002600:	4b0d      	ldr	r3, [pc, #52]	@ (8002638 <setPIDGoalA+0xac>)
 8002602:	627b      	str	r3, [r7, #36]	@ 0x24
 8002604:	68fb      	ldr	r3, [r7, #12]
 8002606:	689b      	ldr	r3, [r3, #8]
 8002608:	ed97 0b00 	vldr	d0, [r7]
 800260c:	4618      	mov	r0, r3
 800260e:	f7fe fd13 	bl	8001038 <angle_to_count>
 8002612:	4603      	mov	r3, r0
 8002614:	613b      	str	r3, [r7, #16]
 8002616:	693b      	ldr	r3, [r7, #16]
 8002618:	461a      	mov	r2, r3
 800261a:	6a7b      	ldr	r3, [r7, #36]	@ 0x24
 800261c:	f3bf 8f5b 	dmb	ish
 8002620:	601a      	str	r2, [r3, #0]
 8002622:	f3bf 8f5b 	dmb	ish
}
 8002626:	bf00      	nop
 8002628:	3728      	adds	r7, #40	@ 0x28
 800262a:	46bd      	mov	sp, r7
 800262c:	bd80      	pop	{r7, pc}
 800262e:	bf00      	nop
 8002630:	2000072c 	.word	0x2000072c
 8002634:	20000730 	.word	0x20000730
 8002638:	20000734 	.word	0x20000734

0800263c <HAL_MspInit>:
void HAL_TIM_MspPostInit(TIM_HandleTypeDef *htim);
                                                            /**
  * Initializes the Global MSP.
  */
void HAL_MspInit(void)
{
 800263c:	b580      	push	{r7, lr}
 800263e:	b082      	sub	sp, #8
 8002640:	af00      	add	r7, sp, #0

  /* USER CODE BEGIN MspInit 0 */

  /* USER CODE END MspInit 0 */

  __HAL_RCC_SYSCFG_CLK_ENABLE();
 8002642:	4b0f      	ldr	r3, [pc, #60]	@ (8002680 <HAL_MspInit+0x44>)
 8002644:	6e1b      	ldr	r3, [r3, #96]	@ 0x60
 8002646:	4a0e      	ldr	r2, [pc, #56]	@ (8002680 <HAL_MspInit+0x44>)
 8002648:	f043 0301 	orr.w	r3, r3, #1
 800264c:	6613      	str	r3, [r2, #96]	@ 0x60
 800264e:	4b0c      	ldr	r3, [pc, #48]	@ (8002680 <HAL_MspInit+0x44>)
 8002650:	6e1b      	ldr	r3, [r3, #96]	@ 0x60
 8002652:	f003 0301 	and.w	r3, r3, #1
 8002656:	607b      	str	r3, [r7, #4]
 8002658:	687b      	ldr	r3, [r7, #4]
  __HAL_RCC_PWR_CLK_ENABLE();
 800265a:	4b09      	ldr	r3, [pc, #36]	@ (8002680 <HAL_MspInit+0x44>)
 800265c:	6d9b      	ldr	r3, [r3, #88]	@ 0x58
 800265e:	4a08      	ldr	r2, [pc, #32]	@ (8002680 <HAL_MspInit+0x44>)
 8002660:	f043 5380 	orr.w	r3, r3, #268435456	@ 0x10000000
 8002664:	6593      	str	r3, [r2, #88]	@ 0x58
 8002666:	4b06      	ldr	r3, [pc, #24]	@ (8002680 <HAL_MspInit+0x44>)
 8002668:	6d9b      	ldr	r3, [r3, #88]	@ 0x58
 800266a:	f003 5380 	and.w	r3, r3, #268435456	@ 0x10000000
 800266e:	603b      	str	r3, [r7, #0]
 8002670:	683b      	ldr	r3, [r7, #0]

  /* System interrupt init*/

  /** Disable the internal Pull-Up in Dead Battery pins of UCPD peripheral
  */
  HAL_PWREx_DisableUCPDDeadBattery();
 8002672:	f003 f9e3 	bl	8005a3c <HAL_PWREx_DisableUCPDDeadBattery>

  /* USER CODE BEGIN MspInit 1 */

  /* USER CODE END MspInit 1 */
}
 8002676:	bf00      	nop
 8002678:	3708      	adds	r7, #8
 800267a:	46bd      	mov	sp, r7
 800267c:	bd80      	pop	{r7, pc}
 800267e:	bf00      	nop
 8002680:	40021000 	.word	0x40021000

08002684 <HAL_ADC_MspInit>:
  * This function configures the hardware resources used in this example
  * @param hadc: ADC handle pointer
  * @retval None
  */
void HAL_ADC_MspInit(ADC_HandleTypeDef* hadc)
{
 8002684:	b580      	push	{r7, lr}
 8002686:	b09e      	sub	sp, #120	@ 0x78
 8002688:	af00      	add	r7, sp, #0
 800268a:	6078      	str	r0, [r7, #4]
  GPIO_InitTypeDef GPIO_InitStruct = {0};
 800268c:	f107 0364 	add.w	r3, r7, #100	@ 0x64
 8002690:	2200      	movs	r2, #0
 8002692:	601a      	str	r2, [r3, #0]
 8002694:	605a      	str	r2, [r3, #4]
 8002696:	609a      	str	r2, [r3, #8]
 8002698:	60da      	str	r2, [r3, #12]
 800269a:	611a      	str	r2, [r3, #16]
  RCC_PeriphCLKInitTypeDef PeriphClkInit = {0};
 800269c:	f107 0310 	add.w	r3, r7, #16
 80026a0:	2254      	movs	r2, #84	@ 0x54
 80026a2:	2100      	movs	r1, #0
 80026a4:	4618      	mov	r0, r3
 80026a6:	f005 fc89 	bl	8007fbc <memset>
  if(hadc->Instance==ADC1)
 80026aa:	687b      	ldr	r3, [r7, #4]
 80026ac:	681b      	ldr	r3, [r3, #0]
 80026ae:	f1b3 4fa0 	cmp.w	r3, #1342177280	@ 0x50000000
 80026b2:	d133      	bne.n	800271c <HAL_ADC_MspInit+0x98>

    /* USER CODE END ADC1_MspInit 0 */

  /** Initializes the peripherals clocks
  */
    PeriphClkInit.PeriphClockSelection = RCC_PERIPHCLK_ADC12;
 80026b4:	f44f 4300 	mov.w	r3, #32768	@ 0x8000
 80026b8:	613b      	str	r3, [r7, #16]
    PeriphClkInit.Adc12ClockSelection = RCC_ADC12CLKSOURCE_SYSCLK;
 80026ba:	f04f 5300 	mov.w	r3, #536870912	@ 0x20000000
 80026be:	657b      	str	r3, [r7, #84]	@ 0x54
    if (HAL_RCCEx_PeriphCLKConfig(&PeriphClkInit) != HAL_OK)
 80026c0:	f107 0310 	add.w	r3, r7, #16
 80026c4:	4618      	mov	r0, r3
 80026c6:	f003 febb 	bl	8006440 <HAL_RCCEx_PeriphCLKConfig>
 80026ca:	4603      	mov	r3, r0
 80026cc:	2b00      	cmp	r3, #0
 80026ce:	d001      	beq.n	80026d4 <HAL_ADC_MspInit+0x50>
    {
      Error_Handler();
 80026d0:	f7ff fdf6 	bl	80022c0 <Error_Handler>
    }

    /* Peripheral clock enable */
    __HAL_RCC_ADC12_CLK_ENABLE();
 80026d4:	4b13      	ldr	r3, [pc, #76]	@ (8002724 <HAL_ADC_MspInit+0xa0>)
 80026d6:	6cdb      	ldr	r3, [r3, #76]	@ 0x4c
 80026d8:	4a12      	ldr	r2, [pc, #72]	@ (8002724 <HAL_ADC_MspInit+0xa0>)
 80026da:	f443 5300 	orr.w	r3, r3, #8192	@ 0x2000
 80026de:	64d3      	str	r3, [r2, #76]	@ 0x4c
 80026e0:	4b10      	ldr	r3, [pc, #64]	@ (8002724 <HAL_ADC_MspInit+0xa0>)
 80026e2:	6cdb      	ldr	r3, [r3, #76]	@ 0x4c
 80026e4:	f403 5300 	and.w	r3, r3, #8192	@ 0x2000
 80026e8:	60fb      	str	r3, [r7, #12]
 80026ea:	68fb      	ldr	r3, [r7, #12]

    __HAL_RCC_GPIOC_CLK_ENABLE();
 80026ec:	4b0d      	ldr	r3, [pc, #52]	@ (8002724 <HAL_ADC_MspInit+0xa0>)
 80026ee:	6cdb      	ldr	r3, [r3, #76]	@ 0x4c
 80026f0:	4a0c      	ldr	r2, [pc, #48]	@ (8002724 <HAL_ADC_MspInit+0xa0>)
 80026f2:	f043 0304 	orr.w	r3, r3, #4
 80026f6:	64d3      	str	r3, [r2, #76]	@ 0x4c
 80026f8:	4b0a      	ldr	r3, [pc, #40]	@ (8002724 <HAL_ADC_MspInit+0xa0>)
 80026fa:	6cdb      	ldr	r3, [r3, #76]	@ 0x4c
 80026fc:	f003 0304 	and.w	r3, r3, #4
 8002700:	60bb      	str	r3, [r7, #8]
 8002702:	68bb      	ldr	r3, [r7, #8]
    /**ADC1 GPIO Configuration
    PC1     ------> ADC1_IN7
    PC2     ------> ADC1_IN8
    PC3     ------> ADC1_IN9
    */
    GPIO_InitStruct.Pin = ADC_pitch_Pin|ADC_roll_Pin|ADC_gripper_Pin;
 8002704:	230e      	movs	r3, #14
 8002706:	667b      	str	r3, [r7, #100]	@ 0x64
    GPIO_InitStruct.Mode = GPIO_MODE_ANALOG;
 8002708:	2303      	movs	r3, #3
 800270a:	66bb      	str	r3, [r7, #104]	@ 0x68
    GPIO_InitStruct.Pull = GPIO_NOPULL;
 800270c:	2300      	movs	r3, #0
 800270e:	66fb      	str	r3, [r7, #108]	@ 0x6c
    HAL_GPIO_Init(GPIOC, &GPIO_InitStruct);
 8002710:	f107 0364 	add.w	r3, r7, #100	@ 0x64
 8002714:	4619      	mov	r1, r3
 8002716:	4804      	ldr	r0, [pc, #16]	@ (8002728 <HAL_ADC_MspInit+0xa4>)
 8002718:	f002 fcde 	bl	80050d8 <HAL_GPIO_Init>

    /* USER CODE END ADC1_MspInit 1 */

  }

}
 800271c:	bf00      	nop
 800271e:	3778      	adds	r7, #120	@ 0x78
 8002720:	46bd      	mov	sp, r7
 8002722:	bd80      	pop	{r7, pc}
 8002724:	40021000 	.word	0x40021000
 8002728:	48000800 	.word	0x48000800

0800272c <HAL_FDCAN_MspInit>:
  * This function configures the hardware resources used in this example
  * @param hfdcan: FDCAN handle pointer
  * @retval None
  */
void HAL_FDCAN_MspInit(FDCAN_HandleTypeDef* hfdcan)
{
 800272c:	b580      	push	{r7, lr}
 800272e:	b09e      	sub	sp, #120	@ 0x78
 8002730:	af00      	add	r7, sp, #0
 8002732:	6078      	str	r0, [r7, #4]
  GPIO_InitTypeDef GPIO_InitStruct = {0};
 8002734:	f107 0364 	add.w	r3, r7, #100	@ 0x64
 8002738:	2200      	movs	r2, #0
 800273a:	601a      	str	r2, [r3, #0]
 800273c:	605a      	str	r2, [r3, #4]
 800273e:	609a      	str	r2, [r3, #8]
 8002740:	60da      	str	r2, [r3, #12]
 8002742:	611a      	str	r2, [r3, #16]
  RCC_PeriphCLKInitTypeDef PeriphClkInit = {0};
 8002744:	f107 0310 	add.w	r3, r7, #16
 8002748:	2254      	movs	r2, #84	@ 0x54
 800274a:	2100      	movs	r1, #0
 800274c:	4618      	mov	r0, r3
 800274e:	f005 fc35 	bl	8007fbc <memset>
  if(hfdcan->Instance==FDCAN2)
 8002752:	687b      	ldr	r3, [r7, #4]
 8002754:	681b      	ldr	r3, [r3, #0]
 8002756:	4a27      	ldr	r2, [pc, #156]	@ (80027f4 <HAL_FDCAN_MspInit+0xc8>)
 8002758:	4293      	cmp	r3, r2
 800275a:	d147      	bne.n	80027ec <HAL_FDCAN_MspInit+0xc0>

    /* USER CODE END FDCAN2_MspInit 0 */

  /** Initializes the peripherals clocks
  */
    PeriphClkInit.PeriphClockSelection = RCC_PERIPHCLK_FDCAN;
 800275c:	f44f 5380 	mov.w	r3, #4096	@ 0x1000
 8002760:	613b      	str	r3, [r7, #16]
    PeriphClkInit.FdcanClockSelection = RCC_FDCANCLKSOURCE_HSE;
 8002762:	2300      	movs	r3, #0
 8002764:	64bb      	str	r3, [r7, #72]	@ 0x48
    if (HAL_RCCEx_PeriphCLKConfig(&PeriphClkInit) != HAL_OK)
 8002766:	f107 0310 	add.w	r3, r7, #16
 800276a:	4618      	mov	r0, r3
 800276c:	f003 fe68 	bl	8006440 <HAL_RCCEx_PeriphCLKConfig>
 8002770:	4603      	mov	r3, r0
 8002772:	2b00      	cmp	r3, #0
 8002774:	d001      	beq.n	800277a <HAL_FDCAN_MspInit+0x4e>
    {
      Error_Handler();
 8002776:	f7ff fda3 	bl	80022c0 <Error_Handler>
    }

    /* Peripheral clock enable */
    __HAL_RCC_FDCAN_CLK_ENABLE();
 800277a:	4b1f      	ldr	r3, [pc, #124]	@ (80027f8 <HAL_FDCAN_MspInit+0xcc>)
 800277c:	6d9b      	ldr	r3, [r3, #88]	@ 0x58
 800277e:	4a1e      	ldr	r2, [pc, #120]	@ (80027f8 <HAL_FDCAN_MspInit+0xcc>)
 8002780:	f043 7300 	orr.w	r3, r3, #33554432	@ 0x2000000
 8002784:	6593      	str	r3, [r2, #88]	@ 0x58
 8002786:	4b1c      	ldr	r3, [pc, #112]	@ (80027f8 <HAL_FDCAN_MspInit+0xcc>)
 8002788:	6d9b      	ldr	r3, [r3, #88]	@ 0x58
 800278a:	f003 7300 	and.w	r3, r3, #33554432	@ 0x2000000
 800278e:	60fb      	str	r3, [r7, #12]
 8002790:	68fb      	ldr	r3, [r7, #12]

    __HAL_RCC_GPIOB_CLK_ENABLE();
 8002792:	4b19      	ldr	r3, [pc, #100]	@ (80027f8 <HAL_FDCAN_MspInit+0xcc>)
 8002794:	6cdb      	ldr	r3, [r3, #76]	@ 0x4c
 8002796:	4a18      	ldr	r2, [pc, #96]	@ (80027f8 <HAL_FDCAN_MspInit+0xcc>)
 8002798:	f043 0302 	orr.w	r3, r3, #2
 800279c:	64d3      	str	r3, [r2, #76]	@ 0x4c
 800279e:	4b16      	ldr	r3, [pc, #88]	@ (80027f8 <HAL_FDCAN_MspInit+0xcc>)
 80027a0:	6cdb      	ldr	r3, [r3, #76]	@ 0x4c
 80027a2:	f003 0302 	and.w	r3, r3, #2
 80027a6:	60bb      	str	r3, [r7, #8]
 80027a8:	68bb      	ldr	r3, [r7, #8]
    /**FDCAN2 GPIO Configuration
    PB12     ------> FDCAN2_RX
    PB13     ------> FDCAN2_TX
    */
    GPIO_InitStruct.Pin = GPIO_PIN_12|GPIO_PIN_13;
 80027aa:	f44f 5340 	mov.w	r3, #12288	@ 0x3000
 80027ae:	667b      	str	r3, [r7, #100]	@ 0x64
    GPIO_InitStruct.Mode = GPIO_MODE_AF_PP;
 80027b0:	2302      	movs	r3, #2
 80027b2:	66bb      	str	r3, [r7, #104]	@ 0x68
    GPIO_InitStruct.Pull = GPIO_NOPULL;
 80027b4:	2300      	movs	r3, #0
 80027b6:	66fb      	str	r3, [r7, #108]	@ 0x6c
    GPIO_InitStruct.Speed = GPIO_SPEED_FREQ_LOW;
 80027b8:	2300      	movs	r3, #0
 80027ba:	673b      	str	r3, [r7, #112]	@ 0x70
    GPIO_InitStruct.Alternate = GPIO_AF9_FDCAN2;
 80027bc:	2309      	movs	r3, #9
 80027be:	677b      	str	r3, [r7, #116]	@ 0x74
    HAL_GPIO_Init(GPIOB, &GPIO_InitStruct);
 80027c0:	f107 0364 	add.w	r3, r7, #100	@ 0x64
 80027c4:	4619      	mov	r1, r3
 80027c6:	480d      	ldr	r0, [pc, #52]	@ (80027fc <HAL_FDCAN_MspInit+0xd0>)
 80027c8:	f002 fc86 	bl	80050d8 <HAL_GPIO_Init>

    /* FDCAN2 interrupt Init */
    HAL_NVIC_SetPriority(FDCAN2_IT0_IRQn, 0, 0);
 80027cc:	2200      	movs	r2, #0
 80027ce:	2100      	movs	r1, #0
 80027d0:	2056      	movs	r0, #86	@ 0x56
 80027d2:	f001 fdba 	bl	800434a <HAL_NVIC_SetPriority>
    HAL_NVIC_EnableIRQ(FDCAN2_IT0_IRQn);
 80027d6:	2056      	movs	r0, #86	@ 0x56
 80027d8:	f001 fdd1 	bl	800437e <HAL_NVIC_EnableIRQ>
    HAL_NVIC_SetPriority(FDCAN2_IT1_IRQn, 0, 0);
 80027dc:	2200      	movs	r2, #0
 80027de:	2100      	movs	r1, #0
 80027e0:	2057      	movs	r0, #87	@ 0x57
 80027e2:	f001 fdb2 	bl	800434a <HAL_NVIC_SetPriority>
    HAL_NVIC_EnableIRQ(FDCAN2_IT1_IRQn);
 80027e6:	2057      	movs	r0, #87	@ 0x57
 80027e8:	f001 fdc9 	bl	800437e <HAL_NVIC_EnableIRQ>

    /* USER CODE END FDCAN2_MspInit 1 */

  }

}
 80027ec:	bf00      	nop
 80027ee:	3778      	adds	r7, #120	@ 0x78
 80027f0:	46bd      	mov	sp, r7
 80027f2:	bd80      	pop	{r7, pc}
 80027f4:	40006800 	.word	0x40006800
 80027f8:	40021000 	.word	0x40021000
 80027fc:	48000400 	.word	0x48000400

08002800 <HAL_I2C_MspInit>:
  * This function configures the hardware resources used in this example
  * @param hi2c: I2C handle pointer
  * @retval None
  */
void HAL_I2C_MspInit(I2C_HandleTypeDef* hi2c)
{
 8002800:	b580      	push	{r7, lr}
 8002802:	b0a0      	sub	sp, #128	@ 0x80
 8002804:	af00      	add	r7, sp, #0
 8002806:	6078      	str	r0, [r7, #4]
  GPIO_InitTypeDef GPIO_InitStruct = {0};
 8002808:	f107 036c 	add.w	r3, r7, #108	@ 0x6c
 800280c:	2200      	movs	r2, #0
 800280e:	601a      	str	r2, [r3, #0]
 8002810:	605a      	str	r2, [r3, #4]
 8002812:	609a      	str	r2, [r3, #8]
 8002814:	60da      	str	r2, [r3, #12]
 8002816:	611a      	str	r2, [r3, #16]
  RCC_PeriphCLKInitTypeDef PeriphClkInit = {0};
 8002818:	f107 0318 	add.w	r3, r7, #24
 800281c:	2254      	movs	r2, #84	@ 0x54
 800281e:	2100      	movs	r1, #0
 8002820:	4618      	mov	r0, r3
 8002822:	f005 fbcb 	bl	8007fbc <memset>
  if(hi2c->Instance==I2C3)
 8002826:	687b      	ldr	r3, [r7, #4]
 8002828:	681b      	ldr	r3, [r3, #0]
 800282a:	4a2e      	ldr	r2, [pc, #184]	@ (80028e4 <HAL_I2C_MspInit+0xe4>)
 800282c:	4293      	cmp	r3, r2
 800282e:	d155      	bne.n	80028dc <HAL_I2C_MspInit+0xdc>

    /* USER CODE END I2C3_MspInit 0 */

  /** Initializes the peripherals clocks
  */
    PeriphClkInit.PeriphClockSelection = RCC_PERIPHCLK_I2C3;
 8002830:	f44f 7380 	mov.w	r3, #256	@ 0x100
 8002834:	61bb      	str	r3, [r7, #24]
    PeriphClkInit.I2c3ClockSelection = RCC_I2C3CLKSOURCE_PCLK1;
 8002836:	2300      	movs	r3, #0
 8002838:	63fb      	str	r3, [r7, #60]	@ 0x3c
    if (HAL_RCCEx_PeriphCLKConfig(&PeriphClkInit) != HAL_OK)
 800283a:	f107 0318 	add.w	r3, r7, #24
 800283e:	4618      	mov	r0, r3
 8002840:	f003 fdfe 	bl	8006440 <HAL_RCCEx_PeriphCLKConfig>
 8002844:	4603      	mov	r3, r0
 8002846:	2b00      	cmp	r3, #0
 8002848:	d001      	beq.n	800284e <HAL_I2C_MspInit+0x4e>
    {
      Error_Handler();
 800284a:	f7ff fd39 	bl	80022c0 <Error_Handler>
    }

    __HAL_RCC_GPIOC_CLK_ENABLE();
 800284e:	4b26      	ldr	r3, [pc, #152]	@ (80028e8 <HAL_I2C_MspInit+0xe8>)
 8002850:	6cdb      	ldr	r3, [r3, #76]	@ 0x4c
 8002852:	4a25      	ldr	r2, [pc, #148]	@ (80028e8 <HAL_I2C_MspInit+0xe8>)
 8002854:	f043 0304 	orr.w	r3, r3, #4
 8002858:	64d3      	str	r3, [r2, #76]	@ 0x4c
 800285a:	4b23      	ldr	r3, [pc, #140]	@ (80028e8 <HAL_I2C_MspInit+0xe8>)
 800285c:	6cdb      	ldr	r3, [r3, #76]	@ 0x4c
 800285e:	f003 0304 	and.w	r3, r3, #4
 8002862:	617b      	str	r3, [r7, #20]
 8002864:	697b      	ldr	r3, [r7, #20]
    __HAL_RCC_GPIOA_CLK_ENABLE();
 8002866:	4b20      	ldr	r3, [pc, #128]	@ (80028e8 <HAL_I2C_MspInit+0xe8>)
 8002868:	6cdb      	ldr	r3, [r3, #76]	@ 0x4c
 800286a:	4a1f      	ldr	r2, [pc, #124]	@ (80028e8 <HAL_I2C_MspInit+0xe8>)
 800286c:	f043 0301 	orr.w	r3, r3, #1
 8002870:	64d3      	str	r3, [r2, #76]	@ 0x4c
 8002872:	4b1d      	ldr	r3, [pc, #116]	@ (80028e8 <HAL_I2C_MspInit+0xe8>)
 8002874:	6cdb      	ldr	r3, [r3, #76]	@ 0x4c
 8002876:	f003 0301 	and.w	r3, r3, #1
 800287a:	613b      	str	r3, [r7, #16]
 800287c:	693b      	ldr	r3, [r7, #16]
    /**I2C3 GPIO Configuration
    PC9     ------> I2C3_SDA
    PA8     ------> I2C3_SCL
    */
    GPIO_InitStruct.Pin = GPIO_PIN_9;
 800287e:	f44f 7300 	mov.w	r3, #512	@ 0x200
 8002882:	66fb      	str	r3, [r7, #108]	@ 0x6c
    GPIO_InitStruct.Mode = GPIO_MODE_AF_OD;
 8002884:	2312      	movs	r3, #18
 8002886:	673b      	str	r3, [r7, #112]	@ 0x70
    GPIO_InitStruct.Pull = GPIO_NOPULL;
 8002888:	2300      	movs	r3, #0
 800288a:	677b      	str	r3, [r7, #116]	@ 0x74
    GPIO_InitStruct.Speed = GPIO_SPEED_FREQ_LOW;
 800288c:	2300      	movs	r3, #0
 800288e:	67bb      	str	r3, [r7, #120]	@ 0x78
    GPIO_InitStruct.Alternate = GPIO_AF8_I2C3;
 8002890:	2308      	movs	r3, #8
 8002892:	67fb      	str	r3, [r7, #124]	@ 0x7c
    HAL_GPIO_Init(GPIOC, &GPIO_InitStruct);
 8002894:	f107 036c 	add.w	r3, r7, #108	@ 0x6c
 8002898:	4619      	mov	r1, r3
 800289a:	4814      	ldr	r0, [pc, #80]	@ (80028ec <HAL_I2C_MspInit+0xec>)
 800289c:	f002 fc1c 	bl	80050d8 <HAL_GPIO_Init>

    GPIO_InitStruct.Pin = GPIO_PIN_8;
 80028a0:	f44f 7380 	mov.w	r3, #256	@ 0x100
 80028a4:	66fb      	str	r3, [r7, #108]	@ 0x6c
    GPIO_InitStruct.Mode = GPIO_MODE_AF_OD;
 80028a6:	2312      	movs	r3, #18
 80028a8:	673b      	str	r3, [r7, #112]	@ 0x70
    GPIO_InitStruct.Pull = GPIO_NOPULL;
 80028aa:	2300      	movs	r3, #0
 80028ac:	677b      	str	r3, [r7, #116]	@ 0x74
    GPIO_InitStruct.Speed = GPIO_SPEED_FREQ_LOW;
 80028ae:	2300      	movs	r3, #0
 80028b0:	67bb      	str	r3, [r7, #120]	@ 0x78
    GPIO_InitStruct.Alternate = GPIO_AF2_I2C3;
 80028b2:	2302      	movs	r3, #2
 80028b4:	67fb      	str	r3, [r7, #124]	@ 0x7c
    HAL_GPIO_Init(GPIOA, &GPIO_InitStruct);
 80028b6:	f107 036c 	add.w	r3, r7, #108	@ 0x6c
 80028ba:	4619      	mov	r1, r3
 80028bc:	f04f 4090 	mov.w	r0, #1207959552	@ 0x48000000
 80028c0:	f002 fc0a 	bl	80050d8 <HAL_GPIO_Init>

    /* Peripheral clock enable */
    __HAL_RCC_I2C3_CLK_ENABLE();
 80028c4:	4b08      	ldr	r3, [pc, #32]	@ (80028e8 <HAL_I2C_MspInit+0xe8>)
 80028c6:	6d9b      	ldr	r3, [r3, #88]	@ 0x58
 80028c8:	4a07      	ldr	r2, [pc, #28]	@ (80028e8 <HAL_I2C_MspInit+0xe8>)
 80028ca:	f043 4380 	orr.w	r3, r3, #1073741824	@ 0x40000000
 80028ce:	6593      	str	r3, [r2, #88]	@ 0x58
 80028d0:	4b05      	ldr	r3, [pc, #20]	@ (80028e8 <HAL_I2C_MspInit+0xe8>)
 80028d2:	6d9b      	ldr	r3, [r3, #88]	@ 0x58
 80028d4:	f003 4380 	and.w	r3, r3, #1073741824	@ 0x40000000
 80028d8:	60fb      	str	r3, [r7, #12]
 80028da:	68fb      	ldr	r3, [r7, #12]

    /* USER CODE END I2C3_MspInit 1 */

  }

}
 80028dc:	bf00      	nop
 80028de:	3780      	adds	r7, #128	@ 0x80
 80028e0:	46bd      	mov	sp, r7
 80028e2:	bd80      	pop	{r7, pc}
 80028e4:	40007800 	.word	0x40007800
 80028e8:	40021000 	.word	0x40021000
 80028ec:	48000800 	.word	0x48000800

080028f0 <HAL_TIM_PWM_MspInit>:
  * This function configures the hardware resources used in this example
  * @param htim_pwm: TIM_PWM handle pointer
  * @retval None
  */
void HAL_TIM_PWM_MspInit(TIM_HandleTypeDef* htim_pwm)
{
 80028f0:	b480      	push	{r7}
 80028f2:	b085      	sub	sp, #20
 80028f4:	af00      	add	r7, sp, #0
 80028f6:	6078      	str	r0, [r7, #4]
  if(htim_pwm->Instance==TIM1)
 80028f8:	687b      	ldr	r3, [r7, #4]
 80028fa:	681b      	ldr	r3, [r3, #0]
 80028fc:	4a13      	ldr	r2, [pc, #76]	@ (800294c <HAL_TIM_PWM_MspInit+0x5c>)
 80028fe:	4293      	cmp	r3, r2
 8002900:	d10c      	bne.n	800291c <HAL_TIM_PWM_MspInit+0x2c>
  {
    /* USER CODE BEGIN TIM1_MspInit 0 */

    /* USER CODE END TIM1_MspInit 0 */
    /* Peripheral clock enable */
    __HAL_RCC_TIM1_CLK_ENABLE();
 8002902:	4b13      	ldr	r3, [pc, #76]	@ (8002950 <HAL_TIM_PWM_MspInit+0x60>)
 8002904:	6e1b      	ldr	r3, [r3, #96]	@ 0x60
 8002906:	4a12      	ldr	r2, [pc, #72]	@ (8002950 <HAL_TIM_PWM_MspInit+0x60>)
 8002908:	f443 6300 	orr.w	r3, r3, #2048	@ 0x800
 800290c:	6613      	str	r3, [r2, #96]	@ 0x60
 800290e:	4b10      	ldr	r3, [pc, #64]	@ (8002950 <HAL_TIM_PWM_MspInit+0x60>)
 8002910:	6e1b      	ldr	r3, [r3, #96]	@ 0x60
 8002912:	f403 6300 	and.w	r3, r3, #2048	@ 0x800
 8002916:	60fb      	str	r3, [r7, #12]
 8002918:	68fb      	ldr	r3, [r7, #12]
    /* USER CODE BEGIN TIM8_MspInit 1 */

    /* USER CODE END TIM8_MspInit 1 */
  }

}
 800291a:	e010      	b.n	800293e <HAL_TIM_PWM_MspInit+0x4e>
  else if(htim_pwm->Instance==TIM8)
 800291c:	687b      	ldr	r3, [r7, #4]
 800291e:	681b      	ldr	r3, [r3, #0]
 8002920:	4a0c      	ldr	r2, [pc, #48]	@ (8002954 <HAL_TIM_PWM_MspInit+0x64>)
 8002922:	4293      	cmp	r3, r2
 8002924:	d10b      	bne.n	800293e <HAL_TIM_PWM_MspInit+0x4e>
    __HAL_RCC_TIM8_CLK_ENABLE();
 8002926:	4b0a      	ldr	r3, [pc, #40]	@ (8002950 <HAL_TIM_PWM_MspInit+0x60>)
 8002928:	6e1b      	ldr	r3, [r3, #96]	@ 0x60
 800292a:	4a09      	ldr	r2, [pc, #36]	@ (8002950 <HAL_TIM_PWM_MspInit+0x60>)
 800292c:	f443 5300 	orr.w	r3, r3, #8192	@ 0x2000
 8002930:	6613      	str	r3, [r2, #96]	@ 0x60
 8002932:	4b07      	ldr	r3, [pc, #28]	@ (8002950 <HAL_TIM_PWM_MspInit+0x60>)
 8002934:	6e1b      	ldr	r3, [r3, #96]	@ 0x60
 8002936:	f403 5300 	and.w	r3, r3, #8192	@ 0x2000
 800293a:	60bb      	str	r3, [r7, #8]
 800293c:	68bb      	ldr	r3, [r7, #8]
}
 800293e:	bf00      	nop
 8002940:	3714      	adds	r7, #20
 8002942:	46bd      	mov	sp, r7
 8002944:	f85d 7b04 	ldr.w	r7, [sp], #4
 8002948:	4770      	bx	lr
 800294a:	bf00      	nop
 800294c:	40012c00 	.word	0x40012c00
 8002950:	40021000 	.word	0x40021000
 8002954:	40013400 	.word	0x40013400

08002958 <HAL_TIM_Base_MspInit>:
  * This function configures the hardware resources used in this example
  * @param htim_base: TIM_Base handle pointer
  * @retval None
  */
void HAL_TIM_Base_MspInit(TIM_HandleTypeDef* htim_base)
{
 8002958:	b480      	push	{r7}
 800295a:	b085      	sub	sp, #20
 800295c:	af00      	add	r7, sp, #0
 800295e:	6078      	str	r0, [r7, #4]
  if(htim_base->Instance==TIM2)
 8002960:	687b      	ldr	r3, [r7, #4]
 8002962:	681b      	ldr	r3, [r3, #0]
 8002964:	f1b3 4f80 	cmp.w	r3, #1073741824	@ 0x40000000
 8002968:	d10c      	bne.n	8002984 <HAL_TIM_Base_MspInit+0x2c>
  {
    /* USER CODE BEGIN TIM2_MspInit 0 */

    /* USER CODE END TIM2_MspInit 0 */
    /* Peripheral clock enable */
    __HAL_RCC_TIM2_CLK_ENABLE();
 800296a:	4b12      	ldr	r3, [pc, #72]	@ (80029b4 <HAL_TIM_Base_MspInit+0x5c>)
 800296c:	6d9b      	ldr	r3, [r3, #88]	@ 0x58
 800296e:	4a11      	ldr	r2, [pc, #68]	@ (80029b4 <HAL_TIM_Base_MspInit+0x5c>)
 8002970:	f043 0301 	orr.w	r3, r3, #1
 8002974:	6593      	str	r3, [r2, #88]	@ 0x58
 8002976:	4b0f      	ldr	r3, [pc, #60]	@ (80029b4 <HAL_TIM_Base_MspInit+0x5c>)
 8002978:	6d9b      	ldr	r3, [r3, #88]	@ 0x58
 800297a:	f003 0301 	and.w	r3, r3, #1
 800297e:	60fb      	str	r3, [r7, #12]
 8002980:	68fb      	ldr	r3, [r7, #12]
    /* USER CODE BEGIN TIM20_MspInit 1 */

    /* USER CODE END TIM20_MspInit 1 */
  }

}
 8002982:	e010      	b.n	80029a6 <HAL_TIM_Base_MspInit+0x4e>
  else if(htim_base->Instance==TIM20)
 8002984:	687b      	ldr	r3, [r7, #4]
 8002986:	681b      	ldr	r3, [r3, #0]
 8002988:	4a0b      	ldr	r2, [pc, #44]	@ (80029b8 <HAL_TIM_Base_MspInit+0x60>)
 800298a:	4293      	cmp	r3, r2
 800298c:	d10b      	bne.n	80029a6 <HAL_TIM_Base_MspInit+0x4e>
    __HAL_RCC_TIM20_CLK_ENABLE();
 800298e:	4b09      	ldr	r3, [pc, #36]	@ (80029b4 <HAL_TIM_Base_MspInit+0x5c>)
 8002990:	6e1b      	ldr	r3, [r3, #96]	@ 0x60
 8002992:	4a08      	ldr	r2, [pc, #32]	@ (80029b4 <HAL_TIM_Base_MspInit+0x5c>)
 8002994:	f443 1380 	orr.w	r3, r3, #1048576	@ 0x100000
 8002998:	6613      	str	r3, [r2, #96]	@ 0x60
 800299a:	4b06      	ldr	r3, [pc, #24]	@ (80029b4 <HAL_TIM_Base_MspInit+0x5c>)
 800299c:	6e1b      	ldr	r3, [r3, #96]	@ 0x60
 800299e:	f403 1380 	and.w	r3, r3, #1048576	@ 0x100000
 80029a2:	60bb      	str	r3, [r7, #8]
 80029a4:	68bb      	ldr	r3, [r7, #8]
}
 80029a6:	bf00      	nop
 80029a8:	3714      	adds	r7, #20
 80029aa:	46bd      	mov	sp, r7
 80029ac:	f85d 7b04 	ldr.w	r7, [sp], #4
 80029b0:	4770      	bx	lr
 80029b2:	bf00      	nop
 80029b4:	40021000 	.word	0x40021000
 80029b8:	40015000 	.word	0x40015000

080029bc <HAL_TIM_Encoder_MspInit>:
  * This function configures the hardware resources used in this example
  * @param htim_encoder: TIM_Encoder handle pointer
  * @retval None
  */
void HAL_TIM_Encoder_MspInit(TIM_HandleTypeDef* htim_encoder)
{
 80029bc:	b580      	push	{r7, lr}
 80029be:	b08e      	sub	sp, #56	@ 0x38
 80029c0:	af00      	add	r7, sp, #0
 80029c2:	6078      	str	r0, [r7, #4]
  GPIO_InitTypeDef GPIO_InitStruct = {0};
 80029c4:	f107 0324 	add.w	r3, r7, #36	@ 0x24
 80029c8:	2200      	movs	r2, #0
 80029ca:	601a      	str	r2, [r3, #0]
 80029cc:	605a      	str	r2, [r3, #4]
 80029ce:	609a      	str	r2, [r3, #8]
 80029d0:	60da      	str	r2, [r3, #12]
 80029d2:	611a      	str	r2, [r3, #16]
  if(htim_encoder->Instance==TIM3)
 80029d4:	687b      	ldr	r3, [r7, #4]
 80029d6:	681b      	ldr	r3, [r3, #0]
 80029d8:	4a46      	ldr	r2, [pc, #280]	@ (8002af4 <HAL_TIM_Encoder_MspInit+0x138>)
 80029da:	4293      	cmp	r3, r2
 80029dc:	d129      	bne.n	8002a32 <HAL_TIM_Encoder_MspInit+0x76>
  {
    /* USER CODE BEGIN TIM3_MspInit 0 */

    /* USER CODE END TIM3_MspInit 0 */
    /* Peripheral clock enable */
    __HAL_RCC_TIM3_CLK_ENABLE();
 80029de:	4b46      	ldr	r3, [pc, #280]	@ (8002af8 <HAL_TIM_Encoder_MspInit+0x13c>)
 80029e0:	6d9b      	ldr	r3, [r3, #88]	@ 0x58
 80029e2:	4a45      	ldr	r2, [pc, #276]	@ (8002af8 <HAL_TIM_Encoder_MspInit+0x13c>)
 80029e4:	f043 0302 	orr.w	r3, r3, #2
 80029e8:	6593      	str	r3, [r2, #88]	@ 0x58
 80029ea:	4b43      	ldr	r3, [pc, #268]	@ (8002af8 <HAL_TIM_Encoder_MspInit+0x13c>)
 80029ec:	6d9b      	ldr	r3, [r3, #88]	@ 0x58
 80029ee:	f003 0302 	and.w	r3, r3, #2
 80029f2:	623b      	str	r3, [r7, #32]
 80029f4:	6a3b      	ldr	r3, [r7, #32]

    __HAL_RCC_GPIOA_CLK_ENABLE();
 80029f6:	4b40      	ldr	r3, [pc, #256]	@ (8002af8 <HAL_TIM_Encoder_MspInit+0x13c>)
 80029f8:	6cdb      	ldr	r3, [r3, #76]	@ 0x4c
 80029fa:	4a3f      	ldr	r2, [pc, #252]	@ (8002af8 <HAL_TIM_Encoder_MspInit+0x13c>)
 80029fc:	f043 0301 	orr.w	r3, r3, #1
 8002a00:	64d3      	str	r3, [r2, #76]	@ 0x4c
 8002a02:	4b3d      	ldr	r3, [pc, #244]	@ (8002af8 <HAL_TIM_Encoder_MspInit+0x13c>)
 8002a04:	6cdb      	ldr	r3, [r3, #76]	@ 0x4c
 8002a06:	f003 0301 	and.w	r3, r3, #1
 8002a0a:	61fb      	str	r3, [r7, #28]
 8002a0c:	69fb      	ldr	r3, [r7, #28]
    /**TIM3 GPIO Configuration
    PA6     ------> TIM3_CH1
    PA7     ------> TIM3_CH2
    */
    GPIO_InitStruct.Pin = Encoder_A_gripper_Pin|Encoder_B_gripper_Pin;
 8002a0e:	23c0      	movs	r3, #192	@ 0xc0
 8002a10:	627b      	str	r3, [r7, #36]	@ 0x24
    GPIO_InitStruct.Mode = GPIO_MODE_AF_PP;
 8002a12:	2302      	movs	r3, #2
 8002a14:	62bb      	str	r3, [r7, #40]	@ 0x28
    GPIO_InitStruct.Pull = GPIO_NOPULL;
 8002a16:	2300      	movs	r3, #0
 8002a18:	62fb      	str	r3, [r7, #44]	@ 0x2c
    GPIO_InitStruct.Speed = GPIO_SPEED_FREQ_LOW;
 8002a1a:	2300      	movs	r3, #0
 8002a1c:	633b      	str	r3, [r7, #48]	@ 0x30
    GPIO_InitStruct.Alternate = GPIO_AF2_TIM3;
 8002a1e:	2302      	movs	r3, #2
 8002a20:	637b      	str	r3, [r7, #52]	@ 0x34
    HAL_GPIO_Init(GPIOA, &GPIO_InitStruct);
 8002a22:	f107 0324 	add.w	r3, r7, #36	@ 0x24
 8002a26:	4619      	mov	r1, r3
 8002a28:	f04f 4090 	mov.w	r0, #1207959552	@ 0x48000000
 8002a2c:	f002 fb54 	bl	80050d8 <HAL_GPIO_Init>
    /* USER CODE BEGIN TIM5_MspInit 1 */

    /* USER CODE END TIM5_MspInit 1 */
  }

}
 8002a30:	e05b      	b.n	8002aea <HAL_TIM_Encoder_MspInit+0x12e>
  else if(htim_encoder->Instance==TIM4)
 8002a32:	687b      	ldr	r3, [r7, #4]
 8002a34:	681b      	ldr	r3, [r3, #0]
 8002a36:	4a31      	ldr	r2, [pc, #196]	@ (8002afc <HAL_TIM_Encoder_MspInit+0x140>)
 8002a38:	4293      	cmp	r3, r2
 8002a3a:	d128      	bne.n	8002a8e <HAL_TIM_Encoder_MspInit+0xd2>
    __HAL_RCC_TIM4_CLK_ENABLE();
 8002a3c:	4b2e      	ldr	r3, [pc, #184]	@ (8002af8 <HAL_TIM_Encoder_MspInit+0x13c>)
 8002a3e:	6d9b      	ldr	r3, [r3, #88]	@ 0x58
 8002a40:	4a2d      	ldr	r2, [pc, #180]	@ (8002af8 <HAL_TIM_Encoder_MspInit+0x13c>)
 8002a42:	f043 0304 	orr.w	r3, r3, #4
 8002a46:	6593      	str	r3, [r2, #88]	@ 0x58
 8002a48:	4b2b      	ldr	r3, [pc, #172]	@ (8002af8 <HAL_TIM_Encoder_MspInit+0x13c>)
 8002a4a:	6d9b      	ldr	r3, [r3, #88]	@ 0x58
 8002a4c:	f003 0304 	and.w	r3, r3, #4
 8002a50:	61bb      	str	r3, [r7, #24]
 8002a52:	69bb      	ldr	r3, [r7, #24]
    __HAL_RCC_GPIOB_CLK_ENABLE();
 8002a54:	4b28      	ldr	r3, [pc, #160]	@ (8002af8 <HAL_TIM_Encoder_MspInit+0x13c>)
 8002a56:	6cdb      	ldr	r3, [r3, #76]	@ 0x4c
 8002a58:	4a27      	ldr	r2, [pc, #156]	@ (8002af8 <HAL_TIM_Encoder_MspInit+0x13c>)
 8002a5a:	f043 0302 	orr.w	r3, r3, #2
 8002a5e:	64d3      	str	r3, [r2, #76]	@ 0x4c
 8002a60:	4b25      	ldr	r3, [pc, #148]	@ (8002af8 <HAL_TIM_Encoder_MspInit+0x13c>)
 8002a62:	6cdb      	ldr	r3, [r3, #76]	@ 0x4c
 8002a64:	f003 0302 	and.w	r3, r3, #2
 8002a68:	617b      	str	r3, [r7, #20]
 8002a6a:	697b      	ldr	r3, [r7, #20]
    GPIO_InitStruct.Pin = Encoder_A_roll_Pin|Encoder_B_roll_Pin;
 8002a6c:	23c0      	movs	r3, #192	@ 0xc0
 8002a6e:	627b      	str	r3, [r7, #36]	@ 0x24
    GPIO_InitStruct.Mode = GPIO_MODE_AF_PP;
 8002a70:	2302      	movs	r3, #2
 8002a72:	62bb      	str	r3, [r7, #40]	@ 0x28
    GPIO_InitStruct.Pull = GPIO_NOPULL;
 8002a74:	2300      	movs	r3, #0
 8002a76:	62fb      	str	r3, [r7, #44]	@ 0x2c
    GPIO_InitStruct.Speed = GPIO_SPEED_FREQ_LOW;
 8002a78:	2300      	movs	r3, #0
 8002a7a:	633b      	str	r3, [r7, #48]	@ 0x30
    GPIO_InitStruct.Alternate = GPIO_AF2_TIM4;
 8002a7c:	2302      	movs	r3, #2
 8002a7e:	637b      	str	r3, [r7, #52]	@ 0x34
    HAL_GPIO_Init(GPIOB, &GPIO_InitStruct);
 8002a80:	f107 0324 	add.w	r3, r7, #36	@ 0x24
 8002a84:	4619      	mov	r1, r3
 8002a86:	481e      	ldr	r0, [pc, #120]	@ (8002b00 <HAL_TIM_Encoder_MspInit+0x144>)
 8002a88:	f002 fb26 	bl	80050d8 <HAL_GPIO_Init>
}
 8002a8c:	e02d      	b.n	8002aea <HAL_TIM_Encoder_MspInit+0x12e>
  else if(htim_encoder->Instance==TIM5)
 8002a8e:	687b      	ldr	r3, [r7, #4]
 8002a90:	681b      	ldr	r3, [r3, #0]
 8002a92:	4a1c      	ldr	r2, [pc, #112]	@ (8002b04 <HAL_TIM_Encoder_MspInit+0x148>)
 8002a94:	4293      	cmp	r3, r2
 8002a96:	d128      	bne.n	8002aea <HAL_TIM_Encoder_MspInit+0x12e>
    __HAL_RCC_TIM5_CLK_ENABLE();
 8002a98:	4b17      	ldr	r3, [pc, #92]	@ (8002af8 <HAL_TIM_Encoder_MspInit+0x13c>)
 8002a9a:	6d9b      	ldr	r3, [r3, #88]	@ 0x58
 8002a9c:	4a16      	ldr	r2, [pc, #88]	@ (8002af8 <HAL_TIM_Encoder_MspInit+0x13c>)
 8002a9e:	f043 0308 	orr.w	r3, r3, #8
 8002aa2:	6593      	str	r3, [r2, #88]	@ 0x58
 8002aa4:	4b14      	ldr	r3, [pc, #80]	@ (8002af8 <HAL_TIM_Encoder_MspInit+0x13c>)
 8002aa6:	6d9b      	ldr	r3, [r3, #88]	@ 0x58
 8002aa8:	f003 0308 	and.w	r3, r3, #8
 8002aac:	613b      	str	r3, [r7, #16]
 8002aae:	693b      	ldr	r3, [r7, #16]
    __HAL_RCC_GPIOA_CLK_ENABLE();
 8002ab0:	4b11      	ldr	r3, [pc, #68]	@ (8002af8 <HAL_TIM_Encoder_MspInit+0x13c>)
 8002ab2:	6cdb      	ldr	r3, [r3, #76]	@ 0x4c
 8002ab4:	4a10      	ldr	r2, [pc, #64]	@ (8002af8 <HAL_TIM_Encoder_MspInit+0x13c>)
 8002ab6:	f043 0301 	orr.w	r3, r3, #1
 8002aba:	64d3      	str	r3, [r2, #76]	@ 0x4c
 8002abc:	4b0e      	ldr	r3, [pc, #56]	@ (8002af8 <HAL_TIM_Encoder_MspInit+0x13c>)
 8002abe:	6cdb      	ldr	r3, [r3, #76]	@ 0x4c
 8002ac0:	f003 0301 	and.w	r3, r3, #1
 8002ac4:	60fb      	str	r3, [r7, #12]
 8002ac6:	68fb      	ldr	r3, [r7, #12]
    GPIO_InitStruct.Pin = Encoder_A_pitch_Pin|Encoder_B_pitch_Pin;
 8002ac8:	2303      	movs	r3, #3
 8002aca:	627b      	str	r3, [r7, #36]	@ 0x24
    GPIO_InitStruct.Mode = GPIO_MODE_AF_PP;
 8002acc:	2302      	movs	r3, #2
 8002ace:	62bb      	str	r3, [r7, #40]	@ 0x28
    GPIO_InitStruct.Pull = GPIO_NOPULL;
 8002ad0:	2300      	movs	r3, #0
 8002ad2:	62fb      	str	r3, [r7, #44]	@ 0x2c
    GPIO_InitStruct.Speed = GPIO_SPEED_FREQ_LOW;
 8002ad4:	2300      	movs	r3, #0
 8002ad6:	633b      	str	r3, [r7, #48]	@ 0x30
    GPIO_InitStruct.Alternate = GPIO_AF2_TIM5;
 8002ad8:	2302      	movs	r3, #2
 8002ada:	637b      	str	r3, [r7, #52]	@ 0x34
    HAL_GPIO_Init(GPIOA, &GPIO_InitStruct);
 8002adc:	f107 0324 	add.w	r3, r7, #36	@ 0x24
 8002ae0:	4619      	mov	r1, r3
 8002ae2:	f04f 4090 	mov.w	r0, #1207959552	@ 0x48000000
 8002ae6:	f002 faf7 	bl	80050d8 <HAL_GPIO_Init>
}
 8002aea:	bf00      	nop
 8002aec:	3738      	adds	r7, #56	@ 0x38
 8002aee:	46bd      	mov	sp, r7
 8002af0:	bd80      	pop	{r7, pc}
 8002af2:	bf00      	nop
 8002af4:	40000400 	.word	0x40000400
 8002af8:	40021000 	.word	0x40021000
 8002afc:	40000800 	.word	0x40000800
 8002b00:	48000400 	.word	0x48000400
 8002b04:	40000c00 	.word	0x40000c00

08002b08 <HAL_TIM_MspPostInit>:

void HAL_TIM_MspPostInit(TIM_HandleTypeDef* htim)
{
 8002b08:	b580      	push	{r7, lr}
 8002b0a:	b08a      	sub	sp, #40	@ 0x28
 8002b0c:	af00      	add	r7, sp, #0
 8002b0e:	6078      	str	r0, [r7, #4]
  GPIO_InitTypeDef GPIO_InitStruct = {0};
 8002b10:	f107 0314 	add.w	r3, r7, #20
 8002b14:	2200      	movs	r2, #0
 8002b16:	601a      	str	r2, [r3, #0]
 8002b18:	605a      	str	r2, [r3, #4]
 8002b1a:	609a      	str	r2, [r3, #8]
 8002b1c:	60da      	str	r2, [r3, #12]
 8002b1e:	611a      	str	r2, [r3, #16]
  if(htim->Instance==TIM1)
 8002b20:	687b      	ldr	r3, [r7, #4]
 8002b22:	681b      	ldr	r3, [r3, #0]
 8002b24:	4a33      	ldr	r2, [pc, #204]	@ (8002bf4 <HAL_TIM_MspPostInit+0xec>)
 8002b26:	4293      	cmp	r3, r2
 8002b28:	d11c      	bne.n	8002b64 <HAL_TIM_MspPostInit+0x5c>
  {
    /* USER CODE BEGIN TIM1_MspPostInit 0 */

    /* USER CODE END TIM1_MspPostInit 0 */
    __HAL_RCC_GPIOC_CLK_ENABLE();
 8002b2a:	4b33      	ldr	r3, [pc, #204]	@ (8002bf8 <HAL_TIM_MspPostInit+0xf0>)
 8002b2c:	6cdb      	ldr	r3, [r3, #76]	@ 0x4c
 8002b2e:	4a32      	ldr	r2, [pc, #200]	@ (8002bf8 <HAL_TIM_MspPostInit+0xf0>)
 8002b30:	f043 0304 	orr.w	r3, r3, #4
 8002b34:	64d3      	str	r3, [r2, #76]	@ 0x4c
 8002b36:	4b30      	ldr	r3, [pc, #192]	@ (8002bf8 <HAL_TIM_MspPostInit+0xf0>)
 8002b38:	6cdb      	ldr	r3, [r3, #76]	@ 0x4c
 8002b3a:	f003 0304 	and.w	r3, r3, #4
 8002b3e:	613b      	str	r3, [r7, #16]
 8002b40:	693b      	ldr	r3, [r7, #16]
    /**TIM1 GPIO Configuration
    PC0     ------> TIM1_CH1
    */
    GPIO_InitStruct.Pin = PWM_pitch_Pin;
 8002b42:	2301      	movs	r3, #1
 8002b44:	617b      	str	r3, [r7, #20]
    GPIO_InitStruct.Mode = GPIO_MODE_AF_PP;
 8002b46:	2302      	movs	r3, #2
 8002b48:	61bb      	str	r3, [r7, #24]
    GPIO_InitStruct.Pull = GPIO_NOPULL;
 8002b4a:	2300      	movs	r3, #0
 8002b4c:	61fb      	str	r3, [r7, #28]
    GPIO_InitStruct.Speed = GPIO_SPEED_FREQ_LOW;
 8002b4e:	2300      	movs	r3, #0
 8002b50:	623b      	str	r3, [r7, #32]
    GPIO_InitStruct.Alternate = GPIO_AF2_TIM1;
 8002b52:	2302      	movs	r3, #2
 8002b54:	627b      	str	r3, [r7, #36]	@ 0x24
    HAL_GPIO_Init(PWM_pitch_GPIO_Port, &GPIO_InitStruct);
 8002b56:	f107 0314 	add.w	r3, r7, #20
 8002b5a:	4619      	mov	r1, r3
 8002b5c:	4827      	ldr	r0, [pc, #156]	@ (8002bfc <HAL_TIM_MspPostInit+0xf4>)
 8002b5e:	f002 fabb 	bl	80050d8 <HAL_GPIO_Init>
    /* USER CODE BEGIN TIM20_MspPostInit 1 */

    /* USER CODE END TIM20_MspPostInit 1 */
  }

}
 8002b62:	e042      	b.n	8002bea <HAL_TIM_MspPostInit+0xe2>
  else if(htim->Instance==TIM8)
 8002b64:	687b      	ldr	r3, [r7, #4]
 8002b66:	681b      	ldr	r3, [r3, #0]
 8002b68:	4a25      	ldr	r2, [pc, #148]	@ (8002c00 <HAL_TIM_MspPostInit+0xf8>)
 8002b6a:	4293      	cmp	r3, r2
 8002b6c:	d11c      	bne.n	8002ba8 <HAL_TIM_MspPostInit+0xa0>
    __HAL_RCC_GPIOC_CLK_ENABLE();
 8002b6e:	4b22      	ldr	r3, [pc, #136]	@ (8002bf8 <HAL_TIM_MspPostInit+0xf0>)
 8002b70:	6cdb      	ldr	r3, [r3, #76]	@ 0x4c
 8002b72:	4a21      	ldr	r2, [pc, #132]	@ (8002bf8 <HAL_TIM_MspPostInit+0xf0>)
 8002b74:	f043 0304 	orr.w	r3, r3, #4
 8002b78:	64d3      	str	r3, [r2, #76]	@ 0x4c
 8002b7a:	4b1f      	ldr	r3, [pc, #124]	@ (8002bf8 <HAL_TIM_MspPostInit+0xf0>)
 8002b7c:	6cdb      	ldr	r3, [r3, #76]	@ 0x4c
 8002b7e:	f003 0304 	and.w	r3, r3, #4
 8002b82:	60fb      	str	r3, [r7, #12]
 8002b84:	68fb      	ldr	r3, [r7, #12]
    GPIO_InitStruct.Pin = PWM_roll_Pin;
 8002b86:	2340      	movs	r3, #64	@ 0x40
 8002b88:	617b      	str	r3, [r7, #20]
    GPIO_InitStruct.Mode = GPIO_MODE_AF_PP;
 8002b8a:	2302      	movs	r3, #2
 8002b8c:	61bb      	str	r3, [r7, #24]
    GPIO_InitStruct.Pull = GPIO_NOPULL;
 8002b8e:	2300      	movs	r3, #0
 8002b90:	61fb      	str	r3, [r7, #28]
    GPIO_InitStruct.Speed = GPIO_SPEED_FREQ_LOW;
 8002b92:	2300      	movs	r3, #0
 8002b94:	623b      	str	r3, [r7, #32]
    GPIO_InitStruct.Alternate = GPIO_AF4_TIM8;
 8002b96:	2304      	movs	r3, #4
 8002b98:	627b      	str	r3, [r7, #36]	@ 0x24
    HAL_GPIO_Init(PWM_roll_GPIO_Port, &GPIO_InitStruct);
 8002b9a:	f107 0314 	add.w	r3, r7, #20
 8002b9e:	4619      	mov	r1, r3
 8002ba0:	4816      	ldr	r0, [pc, #88]	@ (8002bfc <HAL_TIM_MspPostInit+0xf4>)
 8002ba2:	f002 fa99 	bl	80050d8 <HAL_GPIO_Init>
}
 8002ba6:	e020      	b.n	8002bea <HAL_TIM_MspPostInit+0xe2>
  else if(htim->Instance==TIM20)
 8002ba8:	687b      	ldr	r3, [r7, #4]
 8002baa:	681b      	ldr	r3, [r3, #0]
 8002bac:	4a15      	ldr	r2, [pc, #84]	@ (8002c04 <HAL_TIM_MspPostInit+0xfc>)
 8002bae:	4293      	cmp	r3, r2
 8002bb0:	d11b      	bne.n	8002bea <HAL_TIM_MspPostInit+0xe2>
    __HAL_RCC_GPIOB_CLK_ENABLE();
 8002bb2:	4b11      	ldr	r3, [pc, #68]	@ (8002bf8 <HAL_TIM_MspPostInit+0xf0>)
 8002bb4:	6cdb      	ldr	r3, [r3, #76]	@ 0x4c
 8002bb6:	4a10      	ldr	r2, [pc, #64]	@ (8002bf8 <HAL_TIM_MspPostInit+0xf0>)
 8002bb8:	f043 0302 	orr.w	r3, r3, #2
 8002bbc:	64d3      	str	r3, [r2, #76]	@ 0x4c
 8002bbe:	4b0e      	ldr	r3, [pc, #56]	@ (8002bf8 <HAL_TIM_MspPostInit+0xf0>)
 8002bc0:	6cdb      	ldr	r3, [r3, #76]	@ 0x4c
 8002bc2:	f003 0302 	and.w	r3, r3, #2
 8002bc6:	60bb      	str	r3, [r7, #8]
 8002bc8:	68bb      	ldr	r3, [r7, #8]
    GPIO_InitStruct.Pin = PWM_gripper_Pin;
 8002bca:	2304      	movs	r3, #4
 8002bcc:	617b      	str	r3, [r7, #20]
    GPIO_InitStruct.Mode = GPIO_MODE_AF_PP;
 8002bce:	2302      	movs	r3, #2
 8002bd0:	61bb      	str	r3, [r7, #24]
    GPIO_InitStruct.Pull = GPIO_NOPULL;
 8002bd2:	2300      	movs	r3, #0
 8002bd4:	61fb      	str	r3, [r7, #28]
    GPIO_InitStruct.Speed = GPIO_SPEED_FREQ_LOW;
 8002bd6:	2300      	movs	r3, #0
 8002bd8:	623b      	str	r3, [r7, #32]
    GPIO_InitStruct.Alternate = GPIO_AF3_TIM20;
 8002bda:	2303      	movs	r3, #3
 8002bdc:	627b      	str	r3, [r7, #36]	@ 0x24
    HAL_GPIO_Init(PWM_gripper_GPIO_Port, &GPIO_InitStruct);
 8002bde:	f107 0314 	add.w	r3, r7, #20
 8002be2:	4619      	mov	r1, r3
 8002be4:	4808      	ldr	r0, [pc, #32]	@ (8002c08 <HAL_TIM_MspPostInit+0x100>)
 8002be6:	f002 fa77 	bl	80050d8 <HAL_GPIO_Init>
}
 8002bea:	bf00      	nop
 8002bec:	3728      	adds	r7, #40	@ 0x28
 8002bee:	46bd      	mov	sp, r7
 8002bf0:	bd80      	pop	{r7, pc}
 8002bf2:	bf00      	nop
 8002bf4:	40012c00 	.word	0x40012c00
 8002bf8:	40021000 	.word	0x40021000
 8002bfc:	48000800 	.word	0x48000800
 8002c00:	40013400 	.word	0x40013400
 8002c04:	40015000 	.word	0x40015000
 8002c08:	48000400 	.word	0x48000400

08002c0c <HAL_PCD_MspInit>:
  * This function configures the hardware resources used in this example
  * @param hpcd: PCD handle pointer
  * @retval None
  */
void HAL_PCD_MspInit(PCD_HandleTypeDef* hpcd)
{
 8002c0c:	b580      	push	{r7, lr}
 8002c0e:	b098      	sub	sp, #96	@ 0x60
 8002c10:	af00      	add	r7, sp, #0
 8002c12:	6078      	str	r0, [r7, #4]
  RCC_PeriphCLKInitTypeDef PeriphClkInit = {0};
 8002c14:	f107 030c 	add.w	r3, r7, #12
 8002c18:	2254      	movs	r2, #84	@ 0x54
 8002c1a:	2100      	movs	r1, #0
 8002c1c:	4618      	mov	r0, r3
 8002c1e:	f005 f9cd 	bl	8007fbc <memset>
  if(hpcd->Instance==USB)
 8002c22:	687b      	ldr	r3, [r7, #4]
 8002c24:	681b      	ldr	r3, [r3, #0]
 8002c26:	4a11      	ldr	r2, [pc, #68]	@ (8002c6c <HAL_PCD_MspInit+0x60>)
 8002c28:	4293      	cmp	r3, r2
 8002c2a:	d11b      	bne.n	8002c64 <HAL_PCD_MspInit+0x58>

    /* USER CODE END USB_MspInit 0 */

  /** Initializes the peripherals clocks
  */
    PeriphClkInit.PeriphClockSelection = RCC_PERIPHCLK_USB;
 8002c2c:	f44f 5300 	mov.w	r3, #8192	@ 0x2000
 8002c30:	60fb      	str	r3, [r7, #12]
    PeriphClkInit.UsbClockSelection = RCC_USBCLKSOURCE_PLL;
 8002c32:	f04f 6300 	mov.w	r3, #134217728	@ 0x8000000
 8002c36:	64bb      	str	r3, [r7, #72]	@ 0x48
    if (HAL_RCCEx_PeriphCLKConfig(&PeriphClkInit) != HAL_OK)
 8002c38:	f107 030c 	add.w	r3, r7, #12
 8002c3c:	4618      	mov	r0, r3
 8002c3e:	f003 fbff 	bl	8006440 <HAL_RCCEx_PeriphCLKConfig>
 8002c42:	4603      	mov	r3, r0
 8002c44:	2b00      	cmp	r3, #0
 8002c46:	d001      	beq.n	8002c4c <HAL_PCD_MspInit+0x40>
    {
      Error_Handler();
 8002c48:	f7ff fb3a 	bl	80022c0 <Error_Handler>
    }

    /* Peripheral clock enable */
    __HAL_RCC_USB_CLK_ENABLE();
 8002c4c:	4b08      	ldr	r3, [pc, #32]	@ (8002c70 <HAL_PCD_MspInit+0x64>)
 8002c4e:	6d9b      	ldr	r3, [r3, #88]	@ 0x58
 8002c50:	4a07      	ldr	r2, [pc, #28]	@ (8002c70 <HAL_PCD_MspInit+0x64>)
 8002c52:	f443 0300 	orr.w	r3, r3, #8388608	@ 0x800000
 8002c56:	6593      	str	r3, [r2, #88]	@ 0x58
 8002c58:	4b05      	ldr	r3, [pc, #20]	@ (8002c70 <HAL_PCD_MspInit+0x64>)
 8002c5a:	6d9b      	ldr	r3, [r3, #88]	@ 0x58
 8002c5c:	f403 0300 	and.w	r3, r3, #8388608	@ 0x800000
 8002c60:	60bb      	str	r3, [r7, #8]
 8002c62:	68bb      	ldr	r3, [r7, #8]

    /* USER CODE END USB_MspInit 1 */

  }

}
 8002c64:	bf00      	nop
 8002c66:	3760      	adds	r7, #96	@ 0x60
 8002c68:	46bd      	mov	sp, r7
 8002c6a:	bd80      	pop	{r7, pc}
 8002c6c:	40005c00 	.word	0x40005c00
 8002c70:	40021000 	.word	0x40021000

08002c74 <NMI_Handler>:
/******************************************************************************/
/**
  * @brief This function handles Non maskable interrupt.
  */
void NMI_Handler(void)
{
 8002c74:	b480      	push	{r7}
 8002c76:	af00      	add	r7, sp, #0
  /* USER CODE BEGIN NonMaskableInt_IRQn 0 */

  /* USER CODE END NonMaskableInt_IRQn 0 */
  /* USER CODE BEGIN NonMaskableInt_IRQn 1 */
   while (1)
 8002c78:	bf00      	nop
 8002c7a:	e7fd      	b.n	8002c78 <NMI_Handler+0x4>

08002c7c <HardFault_Handler>:

/**
  * @brief This function handles Hard fault interrupt.
  */
void HardFault_Handler(void)
{
 8002c7c:	b480      	push	{r7}
 8002c7e:	af00      	add	r7, sp, #0
  /* USER CODE BEGIN HardFault_IRQn 0 */

  /* USER CODE END HardFault_IRQn 0 */
  while (1)
 8002c80:	bf00      	nop
 8002c82:	e7fd      	b.n	8002c80 <HardFault_Handler+0x4>

08002c84 <MemManage_Handler>:

/**
  * @brief This function handles Memory management fault.
  */
void MemManage_Handler(void)
{
 8002c84:	b480      	push	{r7}
 8002c86:	af00      	add	r7, sp, #0
  /* USER CODE BEGIN MemoryManagement_IRQn 0 */

  /* USER CODE END MemoryManagement_IRQn 0 */
  while (1)
 8002c88:	bf00      	nop
 8002c8a:	e7fd      	b.n	8002c88 <MemManage_Handler+0x4>

08002c8c <BusFault_Handler>:

/**
  * @brief This function handles Prefetch fault, memory access fault.
  */
void BusFault_Handler(void)
{
 8002c8c:	b480      	push	{r7}
 8002c8e:	af00      	add	r7, sp, #0
  /* USER CODE BEGIN BusFault_IRQn 0 */

  /* USER CODE END BusFault_IRQn 0 */
  while (1)
 8002c90:	bf00      	nop
 8002c92:	e7fd      	b.n	8002c90 <BusFault_Handler+0x4>

08002c94 <UsageFault_Handler>:

/**
  * @brief This function handles Undefined instruction or illegal state.
  */
void UsageFault_Handler(void)
{
 8002c94:	b480      	push	{r7}
 8002c96:	af00      	add	r7, sp, #0
  /* USER CODE BEGIN UsageFault_IRQn 0 */

  /* USER CODE END UsageFault_IRQn 0 */
  while (1)
 8002c98:	bf00      	nop
 8002c9a:	e7fd      	b.n	8002c98 <UsageFault_Handler+0x4>

08002c9c <SVC_Handler>:

/**
  * @brief This function handles System service call via SWI instruction.
  */
void SVC_Handler(void)
{
 8002c9c:	b480      	push	{r7}
 8002c9e:	af00      	add	r7, sp, #0

  /* USER CODE END SVCall_IRQn 0 */
  /* USER CODE BEGIN SVCall_IRQn 1 */

  /* USER CODE END SVCall_IRQn 1 */
}
 8002ca0:	bf00      	nop
 8002ca2:	46bd      	mov	sp, r7
 8002ca4:	f85d 7b04 	ldr.w	r7, [sp], #4
 8002ca8:	4770      	bx	lr

08002caa <DebugMon_Handler>:

/**
  * @brief This function handles Debug monitor.
  */
void DebugMon_Handler(void)
{
 8002caa:	b480      	push	{r7}
 8002cac:	af00      	add	r7, sp, #0

  /* USER CODE END DebugMonitor_IRQn 0 */
  /* USER CODE BEGIN DebugMonitor_IRQn 1 */

  /* USER CODE END DebugMonitor_IRQn 1 */
}
 8002cae:	bf00      	nop
 8002cb0:	46bd      	mov	sp, r7
 8002cb2:	f85d 7b04 	ldr.w	r7, [sp], #4
 8002cb6:	4770      	bx	lr

08002cb8 <PendSV_Handler>:

/**
  * @brief This function handles Pendable request for system service.
  */
void PendSV_Handler(void)
{
 8002cb8:	b480      	push	{r7}
 8002cba:	af00      	add	r7, sp, #0

  /* USER CODE END PendSV_IRQn 0 */
  /* USER CODE BEGIN PendSV_IRQn 1 */

  /* USER CODE END PendSV_IRQn 1 */
}
 8002cbc:	bf00      	nop
 8002cbe:	46bd      	mov	sp, r7
 8002cc0:	f85d 7b04 	ldr.w	r7, [sp], #4
 8002cc4:	4770      	bx	lr

08002cc6 <SysTick_Handler>:

/**
  * @brief This function handles System tick timer.
  */
void SysTick_Handler(void)
{
 8002cc6:	b580      	push	{r7, lr}
 8002cc8:	af00      	add	r7, sp, #0
  /* USER CODE BEGIN SysTick_IRQn 0 */

  /* USER CODE END SysTick_IRQn 0 */
  HAL_IncTick();
 8002cca:	f000 f923 	bl	8002f14 <HAL_IncTick>
  /* USER CODE BEGIN SysTick_IRQn 1 */

  SysTickFunction();
 8002cce:	f000 f85b 	bl	8002d88 <SysTickFunction>
  /* USER CODE END SysTick_IRQn 1 */
}
 8002cd2:	bf00      	nop
 8002cd4:	bd80      	pop	{r7, pc}

08002cd6 <EXTI2_IRQHandler>:

/**
  * @brief This function handles EXTI line2 interrupt.
  */
void EXTI2_IRQHandler(void)
{
 8002cd6:	b580      	push	{r7, lr}
 8002cd8:	af00      	add	r7, sp, #0
  /* USER CODE BEGIN EXTI2_IRQn 0 */

  /* USER CODE END EXTI2_IRQn 0 */
  HAL_GPIO_EXTI_IRQHandler(Limit_switch_3_Pin);
 8002cda:	2004      	movs	r0, #4
 8002cdc:	f002 fbc8 	bl	8005470 <HAL_GPIO_EXTI_IRQHandler>
  /* USER CODE BEGIN EXTI2_IRQn 1 */

  /* USER CODE END EXTI2_IRQn 1 */
}
 8002ce0:	bf00      	nop
 8002ce2:	bd80      	pop	{r7, pc}

08002ce4 <EXTI4_IRQHandler>:

/**
  * @brief This function handles EXTI line4 interrupt.
  */
void EXTI4_IRQHandler(void)
{
 8002ce4:	b580      	push	{r7, lr}
 8002ce6:	af00      	add	r7, sp, #0
  /* USER CODE BEGIN EXTI4_IRQn 0 */

  /* USER CODE END EXTI4_IRQn 0 */
  HAL_GPIO_EXTI_IRQHandler(Limit_switch_2_Pin);
 8002ce8:	2010      	movs	r0, #16
 8002cea:	f002 fbc1 	bl	8005470 <HAL_GPIO_EXTI_IRQHandler>
  /* USER CODE BEGIN EXTI4_IRQn 1 */

  /* USER CODE END EXTI4_IRQn 1 */
}
 8002cee:	bf00      	nop
 8002cf0:	bd80      	pop	{r7, pc}

08002cf2 <EXTI9_5_IRQHandler>:

/**
  * @brief This function handles EXTI line[9:5] interrupts.
  */
void EXTI9_5_IRQHandler(void)
{
 8002cf2:	b580      	push	{r7, lr}
 8002cf4:	af00      	add	r7, sp, #0
  /* USER CODE BEGIN EXTI9_5_IRQn 0 */

  /* USER CODE END EXTI9_5_IRQn 0 */
  HAL_GPIO_EXTI_IRQHandler(Limit_switch_1_Pin);
 8002cf6:	2020      	movs	r0, #32
 8002cf8:	f002 fbba 	bl	8005470 <HAL_GPIO_EXTI_IRQHandler>
  /* USER CODE BEGIN EXTI9_5_IRQn 1 */

  /* USER CODE END EXTI9_5_IRQn 1 */
}
 8002cfc:	bf00      	nop
 8002cfe:	bd80      	pop	{r7, pc}

08002d00 <EXTI15_10_IRQHandler>:

/**
  * @brief This function handles EXTI line[15:10] interrupts.
  */
void EXTI15_10_IRQHandler(void)
{
 8002d00:	b580      	push	{r7, lr}
 8002d02:	af00      	add	r7, sp, #0
  /* USER CODE BEGIN EXTI15_10_IRQn 0 */

  /* USER CODE END EXTI15_10_IRQn 0 */
  HAL_GPIO_EXTI_IRQHandler(Limit_switch_6_Pin);
 8002d04:	f44f 6080 	mov.w	r0, #1024	@ 0x400
 8002d08:	f002 fbb2 	bl	8005470 <HAL_GPIO_EXTI_IRQHandler>
  HAL_GPIO_EXTI_IRQHandler(Limit_switch_5_Pin);
 8002d0c:	f44f 6000 	mov.w	r0, #2048	@ 0x800
 8002d10:	f002 fbae 	bl	8005470 <HAL_GPIO_EXTI_IRQHandler>
  HAL_GPIO_EXTI_IRQHandler(Limit_switch_4_Pin);
 8002d14:	f44f 5080 	mov.w	r0, #4096	@ 0x1000
 8002d18:	f002 fbaa 	bl	8005470 <HAL_GPIO_EXTI_IRQHandler>
  HAL_GPIO_EXTI_IRQHandler(FAULT_pitch_Pin);
 8002d1c:	f44f 5000 	mov.w	r0, #8192	@ 0x2000
 8002d20:	f002 fba6 	bl	8005470 <HAL_GPIO_EXTI_IRQHandler>
  HAL_GPIO_EXTI_IRQHandler(FAULT_roll_Pin);
 8002d24:	f44f 4080 	mov.w	r0, #16384	@ 0x4000
 8002d28:	f002 fba2 	bl	8005470 <HAL_GPIO_EXTI_IRQHandler>
  HAL_GPIO_EXTI_IRQHandler(ToF_int_Pin);
 8002d2c:	f44f 4000 	mov.w	r0, #32768	@ 0x8000
 8002d30:	f002 fb9e 	bl	8005470 <HAL_GPIO_EXTI_IRQHandler>
  /* USER CODE BEGIN EXTI15_10_IRQn 1 */

  /* USER CODE END EXTI15_10_IRQn 1 */
}
 8002d34:	bf00      	nop
 8002d36:	bd80      	pop	{r7, pc}

08002d38 <FDCAN2_IT0_IRQHandler>:

/**
  * @brief This function handles FDCAN2 interrupt 0.
  */
void FDCAN2_IT0_IRQHandler(void)
{
 8002d38:	b580      	push	{r7, lr}
 8002d3a:	af00      	add	r7, sp, #0
  /* USER CODE BEGIN FDCAN2_IT0_IRQn 0 */

  /* USER CODE END FDCAN2_IT0_IRQn 0 */
  HAL_FDCAN_IRQHandler(&hfdcan2);
 8002d3c:	4802      	ldr	r0, [pc, #8]	@ (8002d48 <FDCAN2_IT0_IRQHandler+0x10>)
 8002d3e:	f001 ff47 	bl	8004bd0 <HAL_FDCAN_IRQHandler>
  /* USER CODE BEGIN FDCAN2_IT0_IRQn 1 */

  /* USER CODE END FDCAN2_IT0_IRQn 1 */
}
 8002d42:	bf00      	nop
 8002d44:	bd80      	pop	{r7, pc}
 8002d46:	bf00      	nop
 8002d48:	200000ec 	.word	0x200000ec

08002d4c <FDCAN2_IT1_IRQHandler>:

/**
  * @brief This function handles FDCAN2 interrupt 1.
  */
void FDCAN2_IT1_IRQHandler(void)
{
 8002d4c:	b580      	push	{r7, lr}
 8002d4e:	af00      	add	r7, sp, #0
  /* USER CODE BEGIN FDCAN2_IT1_IRQn 0 */

  /* USER CODE END FDCAN2_IT1_IRQn 0 */
  HAL_FDCAN_IRQHandler(&hfdcan2);
 8002d50:	4802      	ldr	r0, [pc, #8]	@ (8002d5c <FDCAN2_IT1_IRQHandler+0x10>)
 8002d52:	f001 ff3d 	bl	8004bd0 <HAL_FDCAN_IRQHandler>
  /* USER CODE BEGIN FDCAN2_IT1_IRQn 1 */

  /* USER CODE END FDCAN2_IT1_IRQn 1 */
}
 8002d56:	bf00      	nop
 8002d58:	bd80      	pop	{r7, pc}
 8002d5a:	bf00      	nop
 8002d5c:	200000ec 	.word	0x200000ec

08002d60 <SystemInit>:
  * @param  None
  * @retval None
  */

void SystemInit(void)
{
 8002d60:	b480      	push	{r7}
 8002d62:	af00      	add	r7, sp, #0
  /* FPU settings ------------------------------------------------------------*/
  #if (__FPU_PRESENT == 1) && (__FPU_USED == 1)
    SCB->CPACR |= ((3UL << (10*2))|(3UL << (11*2)));  /* set CP10 and CP11 Full Access */
 8002d64:	4b06      	ldr	r3, [pc, #24]	@ (8002d80 <SystemInit+0x20>)
 8002d66:	f8d3 3088 	ldr.w	r3, [r3, #136]	@ 0x88
 8002d6a:	4a05      	ldr	r2, [pc, #20]	@ (8002d80 <SystemInit+0x20>)
 8002d6c:	f443 0370 	orr.w	r3, r3, #15728640	@ 0xf00000
 8002d70:	f8c2 3088 	str.w	r3, [r2, #136]	@ 0x88

  /* Configure the Vector Table location add offset address ------------------*/
#if defined(USER_VECT_TAB_ADDRESS)
  SCB->VTOR = VECT_TAB_BASE_ADDRESS | VECT_TAB_OFFSET; /* Vector Table Relocation in Internal SRAM */
#endif /* USER_VECT_TAB_ADDRESS */
}
 8002d74:	bf00      	nop
 8002d76:	46bd      	mov	sp, r7
 8002d78:	f85d 7b04 	ldr.w	r7, [sp], #4
 8002d7c:	4770      	bx	lr
 8002d7e:	bf00      	nop
 8002d80:	e000ed00 	.word	0xe000ed00
 8002d84:	00000000 	.word	0x00000000

08002d88 <SysTickFunction>:
#include "calibration.h"

int systick_counts = 0;


void SysTickFunction(void) {
 8002d88:	b580      	push	{r7, lr}
 8002d8a:	b082      	sub	sp, #8
 8002d8c:	af00      	add	r7, sp, #0
	/*
	 * THIS IS CALLED EVERY 1ms
	 */

	for (int i = 0; i < NB_MOTORS; i++){
 8002d8e:	2300      	movs	r3, #0
 8002d90:	607b      	str	r3, [r7, #4]
 8002d92:	e033      	b.n	8002dfc <SysTickFunction+0x74>

		Motor * motor =  all_motors_list[i];
 8002d94:	4a20      	ldr	r2, [pc, #128]	@ (8002e18 <SysTickFunction+0x90>)
 8002d96:	687b      	ldr	r3, [r7, #4]
 8002d98:	f852 3023 	ldr.w	r3, [r2, r3, lsl #2]
 8002d9c:	603b      	str	r3, [r7, #0]
			//if (try_calibrate_encoder()){
				// reset to stop polling and set switch to non pressed state
	//			set_debounce(motor, 0);
	//			reset_debounce_buffer();
				// align wheel if initial calibration
				if (motor->steering_state == CALIBRATION){
 8002d9e:	683b      	ldr	r3, [r7, #0]
 8002da0:	7d9b      	ldrb	r3, [r3, #22]
 8002da2:	2b01      	cmp	r3, #1
 8002da4:	d104      	bne.n	8002db0 <SysTickFunction+0x28>
					setPIDGoalA(motor, 90);
 8002da6:	ed9f 0b1a 	vldr	d0, [pc, #104]	@ 8002e10 <SysTickFunction+0x88>
 8002daa:	6838      	ldr	r0, [r7, #0]
 8002dac:	f7ff fbee 	bl	800258c <setPIDGoalA>
				}
				motor->steering_state = LEAVE_LIMIT;
 8002db0:	683b      	ldr	r3, [r7, #0]
 8002db2:	2202      	movs	r2, #2
 8002db4:	759a      	strb	r2, [r3, #22]
			//}
		//}

		//normal systick loop execution
		switch (motor->steering_state) {
 8002db6:	683b      	ldr	r3, [r7, #0]
 8002db8:	7d9b      	ldrb	r3, [r3, #22]
 8002dba:	2b02      	cmp	r3, #2
 8002dbc:	d00e      	beq.n	8002ddc <SysTickFunction+0x54>
 8002dbe:	2b02      	cmp	r3, #2
 8002dc0:	dc0f      	bgt.n	8002de2 <SysTickFunction+0x5a>
 8002dc2:	2b00      	cmp	r3, #0
 8002dc4:	d002      	beq.n	8002dcc <SysTickFunction+0x44>
 8002dc6:	2b01      	cmp	r3, #1
 8002dc8:	d004      	beq.n	8002dd4 <SysTickFunction+0x4c>
 8002dca:	e00a      	b.n	8002de2 <SysTickFunction+0x5a>
			case (PID):
				updatePID(motor);// TODO FIX
 8002dcc:	6838      	ldr	r0, [r7, #0]
 8002dce:	f7ff fb87 	bl	80024e0 <updatePID>
				break;
 8002dd2:	e006      	b.n	8002de2 <SysTickFunction+0x5a>
			case(CALIBRATION):
				set_calibration_motor_movement(motor);
 8002dd4:	6838      	ldr	r0, [r7, #0]
 8002dd6:	f7fe f8b7 	bl	8000f48 <set_calibration_motor_movement>
				break;
 8002dda:	e002      	b.n	8002de2 <SysTickFunction+0x5a>
			case(LEAVE_LIMIT):
				leave_limit_switch(); // TODO FIX
 8002ddc:	f7ff fbcc 	bl	8002578 <leave_limit_switch>
				break;
 8002de0:	bf00      	nop
		}
		set_counts(motor->Motor_Encoding_Struct, (uint16_t) TIM2->CNT);
 8002de2:	683b      	ldr	r3, [r7, #0]
 8002de4:	689b      	ldr	r3, [r3, #8]
 8002de6:	f04f 4280 	mov.w	r2, #1073741824	@ 0x40000000
 8002dea:	6a52      	ldr	r2, [r2, #36]	@ 0x24
 8002dec:	b292      	uxth	r2, r2
 8002dee:	4611      	mov	r1, r2
 8002df0:	4618      	mov	r0, r3
 8002df2:	f7fe f8d5 	bl	8000fa0 <set_counts>
	for (int i = 0; i < NB_MOTORS; i++){
 8002df6:	687b      	ldr	r3, [r7, #4]
 8002df8:	3301      	adds	r3, #1
 8002dfa:	607b      	str	r3, [r7, #4]
 8002dfc:	687b      	ldr	r3, [r7, #4]
 8002dfe:	2b02      	cmp	r3, #2
 8002e00:	ddc8      	ble.n	8002d94 <SysTickFunction+0xc>
	//		}
	//	}

	}

}
 8002e02:	bf00      	nop
 8002e04:	bf00      	nop
 8002e06:	3708      	adds	r7, #8
 8002e08:	46bd      	mov	sp, r7
 8002e0a:	bd80      	pop	{r7, pc}
 8002e0c:	f3af 8000 	nop.w
 8002e10:	00000000 	.word	0x00000000
 8002e14:	40568000 	.word	0x40568000
 8002e18:	200006fc 	.word	0x200006fc

08002e1c <Reset_Handler>:

    .section	.text.Reset_Handler
	.weak	Reset_Handler
	.type	Reset_Handler, %function
Reset_Handler:
  ldr   r0, =_estack
 8002e1c:	480d      	ldr	r0, [pc, #52]	@ (8002e54 <LoopForever+0x2>)
  mov   sp, r0          /* set stack pointer */
 8002e1e:	4685      	mov	sp, r0

/* Call the clock system initialization function.*/
    bl  SystemInit
 8002e20:	f7ff ff9e 	bl	8002d60 <SystemInit>

/* Copy the data segment initializers from flash to SRAM */
  ldr r0, =_sdata
 8002e24:	480c      	ldr	r0, [pc, #48]	@ (8002e58 <LoopForever+0x6>)
  ldr r1, =_edata
 8002e26:	490d      	ldr	r1, [pc, #52]	@ (8002e5c <LoopForever+0xa>)
  ldr r2, =_sidata
 8002e28:	4a0d      	ldr	r2, [pc, #52]	@ (8002e60 <LoopForever+0xe>)
  movs r3, #0
 8002e2a:	2300      	movs	r3, #0
  b	LoopCopyDataInit
 8002e2c:	e002      	b.n	8002e34 <LoopCopyDataInit>

08002e2e <CopyDataInit>:

CopyDataInit:
  ldr r4, [r2, r3]
 8002e2e:	58d4      	ldr	r4, [r2, r3]
  str r4, [r0, r3]
 8002e30:	50c4      	str	r4, [r0, r3]
  adds r3, r3, #4
 8002e32:	3304      	adds	r3, #4

08002e34 <LoopCopyDataInit>:

LoopCopyDataInit:
  adds r4, r0, r3
 8002e34:	18c4      	adds	r4, r0, r3
  cmp r4, r1
 8002e36:	428c      	cmp	r4, r1
  bcc CopyDataInit
 8002e38:	d3f9      	bcc.n	8002e2e <CopyDataInit>
  
/* Zero fill the bss segment. */
  ldr r2, =_sbss
 8002e3a:	4a0a      	ldr	r2, [pc, #40]	@ (8002e64 <LoopForever+0x12>)
  ldr r4, =_ebss
 8002e3c:	4c0a      	ldr	r4, [pc, #40]	@ (8002e68 <LoopForever+0x16>)
  movs r3, #0
 8002e3e:	2300      	movs	r3, #0
  b LoopFillZerobss
 8002e40:	e001      	b.n	8002e46 <LoopFillZerobss>

08002e42 <FillZerobss>:

FillZerobss:
  str  r3, [r2]
 8002e42:	6013      	str	r3, [r2, #0]
  adds r2, r2, #4
 8002e44:	3204      	adds	r2, #4

08002e46 <LoopFillZerobss>:

LoopFillZerobss:
  cmp r2, r4
 8002e46:	42a2      	cmp	r2, r4
  bcc FillZerobss
 8002e48:	d3fb      	bcc.n	8002e42 <FillZerobss>

/* Call static constructors */
    bl __libc_init_array
 8002e4a:	f005 f8c5 	bl	8007fd8 <__libc_init_array>
/* Call the application's entry point.*/
	bl	main
 8002e4e:	f7fe f99f 	bl	8001190 <main>

08002e52 <LoopForever>:

LoopForever:
    b LoopForever
 8002e52:	e7fe      	b.n	8002e52 <LoopForever>
  ldr   r0, =_estack
 8002e54:	20020000 	.word	0x20020000
  ldr r0, =_sdata
 8002e58:	20000000 	.word	0x20000000
  ldr r1, =_edata
 8002e5c:	20000064 	.word	0x20000064
  ldr r2, =_sidata
 8002e60:	080082e0 	.word	0x080082e0
  ldr r2, =_sbss
 8002e64:	20000064 	.word	0x20000064
  ldr r4, =_ebss
 8002e68:	20000874 	.word	0x20000874

08002e6c <ADC1_2_IRQHandler>:
 * @retval : None
*/
    .section	.text.Default_Handler,"ax",%progbits
Default_Handler:
Infinite_Loop:
	b	Infinite_Loop
 8002e6c:	e7fe      	b.n	8002e6c <ADC1_2_IRQHandler>

08002e6e <HAL_Init>:
  *         each 1ms in the SysTick_Handler() interrupt handler.
  *
  * @retval HAL status
  */
HAL_StatusTypeDef HAL_Init(void)
{
 8002e6e:	b580      	push	{r7, lr}
 8002e70:	b082      	sub	sp, #8
 8002e72:	af00      	add	r7, sp, #0
  HAL_StatusTypeDef  status = HAL_OK;
 8002e74:	2300      	movs	r3, #0
 8002e76:	71fb      	strb	r3, [r7, #7]
#if (PREFETCH_ENABLE != 0U)
  __HAL_FLASH_PREFETCH_BUFFER_ENABLE();
#endif /* PREFETCH_ENABLE */

  /* Set Interrupt Group Priority */
  HAL_NVIC_SetPriorityGrouping(NVIC_PRIORITYGROUP_4);
 8002e78:	2003      	movs	r0, #3
 8002e7a:	f001 fa5b 	bl	8004334 <HAL_NVIC_SetPriorityGrouping>

  /* Use SysTick as time base source and configure 1ms tick (default clock after Reset is HSI) */
  if (HAL_InitTick(TICK_INT_PRIORITY) != HAL_OK)
 8002e7e:	200f      	movs	r0, #15
 8002e80:	f000 f80e 	bl	8002ea0 <HAL_InitTick>
 8002e84:	4603      	mov	r3, r0
 8002e86:	2b00      	cmp	r3, #0
 8002e88:	d002      	beq.n	8002e90 <HAL_Init+0x22>
  {
    status = HAL_ERROR;
 8002e8a:	2301      	movs	r3, #1
 8002e8c:	71fb      	strb	r3, [r7, #7]
 8002e8e:	e001      	b.n	8002e94 <HAL_Init+0x26>
  }
  else
  {
    /* Init the low level hardware */
    HAL_MspInit();
 8002e90:	f7ff fbd4 	bl	800263c <HAL_MspInit>
  }

  /* Return function status */
  return status;
 8002e94:	79fb      	ldrb	r3, [r7, #7]

}
 8002e96:	4618      	mov	r0, r3
 8002e98:	3708      	adds	r7, #8
 8002e9a:	46bd      	mov	sp, r7
 8002e9c:	bd80      	pop	{r7, pc}
	...

08002ea0 <HAL_InitTick>:
  *       implementation  in user file.
  * @param TickPriority: Tick interrupt priority.
  * @retval HAL status
  */
__weak HAL_StatusTypeDef HAL_InitTick(uint32_t TickPriority)
{
 8002ea0:	b580      	push	{r7, lr}
 8002ea2:	b084      	sub	sp, #16
 8002ea4:	af00      	add	r7, sp, #0
 8002ea6:	6078      	str	r0, [r7, #4]
  HAL_StatusTypeDef  status = HAL_OK;
 8002ea8:	2300      	movs	r3, #0
 8002eaa:	73fb      	strb	r3, [r7, #15]

  if (uwTickFreq != 0U)
 8002eac:	4b16      	ldr	r3, [pc, #88]	@ (8002f08 <HAL_InitTick+0x68>)
 8002eae:	681b      	ldr	r3, [r3, #0]
 8002eb0:	2b00      	cmp	r3, #0
 8002eb2:	d022      	beq.n	8002efa <HAL_InitTick+0x5a>
  {
    /* Configure the SysTick to have interrupt in 1ms time basis*/
    if (HAL_SYSTICK_Config(SystemCoreClock / (1000U / uwTickFreq)) == 0U)
 8002eb4:	4b15      	ldr	r3, [pc, #84]	@ (8002f0c <HAL_InitTick+0x6c>)
 8002eb6:	681a      	ldr	r2, [r3, #0]
 8002eb8:	4b13      	ldr	r3, [pc, #76]	@ (8002f08 <HAL_InitTick+0x68>)
 8002eba:	681b      	ldr	r3, [r3, #0]
 8002ebc:	f44f 717a 	mov.w	r1, #1000	@ 0x3e8
 8002ec0:	fbb1 f3f3 	udiv	r3, r1, r3
 8002ec4:	fbb2 f3f3 	udiv	r3, r2, r3
 8002ec8:	4618      	mov	r0, r3
 8002eca:	f001 fa66 	bl	800439a <HAL_SYSTICK_Config>
 8002ece:	4603      	mov	r3, r0
 8002ed0:	2b00      	cmp	r3, #0
 8002ed2:	d10f      	bne.n	8002ef4 <HAL_InitTick+0x54>
    {
      /* Configure the SysTick IRQ priority */
      if (TickPriority < (1UL << __NVIC_PRIO_BITS))
 8002ed4:	687b      	ldr	r3, [r7, #4]
 8002ed6:	2b0f      	cmp	r3, #15
 8002ed8:	d809      	bhi.n	8002eee <HAL_InitTick+0x4e>
      {
        HAL_NVIC_SetPriority(SysTick_IRQn, TickPriority, 0U);
 8002eda:	2200      	movs	r2, #0
 8002edc:	6879      	ldr	r1, [r7, #4]
 8002ede:	f04f 30ff 	mov.w	r0, #4294967295
 8002ee2:	f001 fa32 	bl	800434a <HAL_NVIC_SetPriority>
        uwTickPrio = TickPriority;
 8002ee6:	4a0a      	ldr	r2, [pc, #40]	@ (8002f10 <HAL_InitTick+0x70>)
 8002ee8:	687b      	ldr	r3, [r7, #4]
 8002eea:	6013      	str	r3, [r2, #0]
 8002eec:	e007      	b.n	8002efe <HAL_InitTick+0x5e>
      }
      else
      {
        status = HAL_ERROR;
 8002eee:	2301      	movs	r3, #1
 8002ef0:	73fb      	strb	r3, [r7, #15]
 8002ef2:	e004      	b.n	8002efe <HAL_InitTick+0x5e>
      }
    }
    else
    {
      status = HAL_ERROR;
 8002ef4:	2301      	movs	r3, #1
 8002ef6:	73fb      	strb	r3, [r7, #15]
 8002ef8:	e001      	b.n	8002efe <HAL_InitTick+0x5e>
    }
  }
  else
  {
    status = HAL_ERROR;
 8002efa:	2301      	movs	r3, #1
 8002efc:	73fb      	strb	r3, [r7, #15]
  }

  /* Return function status */
  return status;
 8002efe:	7bfb      	ldrb	r3, [r7, #15]
}
 8002f00:	4618      	mov	r0, r3
 8002f02:	3710      	adds	r7, #16
 8002f04:	46bd      	mov	sp, r7
 8002f06:	bd80      	pop	{r7, pc}
 8002f08:	20000010 	.word	0x20000010
 8002f0c:	20000008 	.word	0x20000008
 8002f10:	2000000c 	.word	0x2000000c

08002f14 <HAL_IncTick>:
  * @note This function is declared as __weak to be overwritten in case of other
  *      implementations in user file.
  * @retval None
  */
__weak void HAL_IncTick(void)
{
 8002f14:	b480      	push	{r7}
 8002f16:	af00      	add	r7, sp, #0
  uwTick += uwTickFreq;
 8002f18:	4b05      	ldr	r3, [pc, #20]	@ (8002f30 <HAL_IncTick+0x1c>)
 8002f1a:	681a      	ldr	r2, [r3, #0]
 8002f1c:	4b05      	ldr	r3, [pc, #20]	@ (8002f34 <HAL_IncTick+0x20>)
 8002f1e:	681b      	ldr	r3, [r3, #0]
 8002f20:	4413      	add	r3, r2
 8002f22:	4a03      	ldr	r2, [pc, #12]	@ (8002f30 <HAL_IncTick+0x1c>)
 8002f24:	6013      	str	r3, [r2, #0]
}
 8002f26:	bf00      	nop
 8002f28:	46bd      	mov	sp, r7
 8002f2a:	f85d 7b04 	ldr.w	r7, [sp], #4
 8002f2e:	4770      	bx	lr
 8002f30:	20000738 	.word	0x20000738
 8002f34:	20000010 	.word	0x20000010

08002f38 <HAL_GetTick>:
  * @note This function is declared as __weak to be overwritten in case of other
  *       implementations in user file.
  * @retval tick value
  */
__weak uint32_t HAL_GetTick(void)
{
 8002f38:	b480      	push	{r7}
 8002f3a:	af00      	add	r7, sp, #0
  return uwTick;
 8002f3c:	4b03      	ldr	r3, [pc, #12]	@ (8002f4c <HAL_GetTick+0x14>)
 8002f3e:	681b      	ldr	r3, [r3, #0]
}
 8002f40:	4618      	mov	r0, r3
 8002f42:	46bd      	mov	sp, r7
 8002f44:	f85d 7b04 	ldr.w	r7, [sp], #4
 8002f48:	4770      	bx	lr
 8002f4a:	bf00      	nop
 8002f4c:	20000738 	.word	0x20000738

08002f50 <HAL_Delay>:
  *       implementations in user file.
  * @param Delay specifies the delay time length, in milliseconds.
  * @retval None
  */
__weak void HAL_Delay(uint32_t Delay)
{
 8002f50:	b580      	push	{r7, lr}
 8002f52:	b084      	sub	sp, #16
 8002f54:	af00      	add	r7, sp, #0
 8002f56:	6078      	str	r0, [r7, #4]
  uint32_t tickstart = HAL_GetTick();
 8002f58:	f7ff ffee 	bl	8002f38 <HAL_GetTick>
 8002f5c:	60b8      	str	r0, [r7, #8]
  uint32_t wait = Delay;
 8002f5e:	687b      	ldr	r3, [r7, #4]
 8002f60:	60fb      	str	r3, [r7, #12]

  /* Add a freq to guarantee minimum wait */
  if (wait < HAL_MAX_DELAY)
 8002f62:	68fb      	ldr	r3, [r7, #12]
 8002f64:	f1b3 3fff 	cmp.w	r3, #4294967295
 8002f68:	d004      	beq.n	8002f74 <HAL_Delay+0x24>
  {
    wait += (uint32_t)(uwTickFreq);
 8002f6a:	4b09      	ldr	r3, [pc, #36]	@ (8002f90 <HAL_Delay+0x40>)
 8002f6c:	681b      	ldr	r3, [r3, #0]
 8002f6e:	68fa      	ldr	r2, [r7, #12]
 8002f70:	4413      	add	r3, r2
 8002f72:	60fb      	str	r3, [r7, #12]
  }

  while ((HAL_GetTick() - tickstart) < wait)
 8002f74:	bf00      	nop
 8002f76:	f7ff ffdf 	bl	8002f38 <HAL_GetTick>
 8002f7a:	4602      	mov	r2, r0
 8002f7c:	68bb      	ldr	r3, [r7, #8]
 8002f7e:	1ad3      	subs	r3, r2, r3
 8002f80:	68fa      	ldr	r2, [r7, #12]
 8002f82:	429a      	cmp	r2, r3
 8002f84:	d8f7      	bhi.n	8002f76 <HAL_Delay+0x26>
  {
  }
}
 8002f86:	bf00      	nop
 8002f88:	bf00      	nop
 8002f8a:	3710      	adds	r7, #16
 8002f8c:	46bd      	mov	sp, r7
 8002f8e:	bd80      	pop	{r7, pc}
 8002f90:	20000010 	.word	0x20000010

08002f94 <LL_ADC_SetCommonClock>:
  *         @arg @ref LL_ADC_CLOCK_ASYNC_DIV128
  *         @arg @ref LL_ADC_CLOCK_ASYNC_DIV256
  * @retval None
  */
__STATIC_INLINE void LL_ADC_SetCommonClock(ADC_Common_TypeDef *ADCxy_COMMON, uint32_t CommonClock)
{
 8002f94:	b480      	push	{r7}
 8002f96:	b083      	sub	sp, #12
 8002f98:	af00      	add	r7, sp, #0
 8002f9a:	6078      	str	r0, [r7, #4]
 8002f9c:	6039      	str	r1, [r7, #0]
  MODIFY_REG(ADCxy_COMMON->CCR, ADC_CCR_CKMODE | ADC_CCR_PRESC, CommonClock);
 8002f9e:	687b      	ldr	r3, [r7, #4]
 8002fa0:	689b      	ldr	r3, [r3, #8]
 8002fa2:	f423 127c 	bic.w	r2, r3, #4128768	@ 0x3f0000
 8002fa6:	683b      	ldr	r3, [r7, #0]
 8002fa8:	431a      	orrs	r2, r3
 8002faa:	687b      	ldr	r3, [r7, #4]
 8002fac:	609a      	str	r2, [r3, #8]
}
 8002fae:	bf00      	nop
 8002fb0:	370c      	adds	r7, #12
 8002fb2:	46bd      	mov	sp, r7
 8002fb4:	f85d 7b04 	ldr.w	r7, [sp], #4
 8002fb8:	4770      	bx	lr

08002fba <LL_ADC_SetCommonPathInternalCh>:
  *         @arg @ref LL_ADC_PATH_INTERNAL_TEMPSENSOR
  *         @arg @ref LL_ADC_PATH_INTERNAL_VBAT
  * @retval None
  */
__STATIC_INLINE void LL_ADC_SetCommonPathInternalCh(ADC_Common_TypeDef *ADCxy_COMMON, uint32_t PathInternal)
{
 8002fba:	b480      	push	{r7}
 8002fbc:	b083      	sub	sp, #12
 8002fbe:	af00      	add	r7, sp, #0
 8002fc0:	6078      	str	r0, [r7, #4]
 8002fc2:	6039      	str	r1, [r7, #0]
  MODIFY_REG(ADCxy_COMMON->CCR, ADC_CCR_VREFEN | ADC_CCR_VSENSESEL | ADC_CCR_VBATSEL, PathInternal);
 8002fc4:	687b      	ldr	r3, [r7, #4]
 8002fc6:	689b      	ldr	r3, [r3, #8]
 8002fc8:	f023 72e0 	bic.w	r2, r3, #29360128	@ 0x1c00000
 8002fcc:	683b      	ldr	r3, [r7, #0]
 8002fce:	431a      	orrs	r2, r3
 8002fd0:	687b      	ldr	r3, [r7, #4]
 8002fd2:	609a      	str	r2, [r3, #8]
}
 8002fd4:	bf00      	nop
 8002fd6:	370c      	adds	r7, #12
 8002fd8:	46bd      	mov	sp, r7
 8002fda:	f85d 7b04 	ldr.w	r7, [sp], #4
 8002fde:	4770      	bx	lr

08002fe0 <LL_ADC_GetCommonPathInternalCh>:
  *         @arg @ref LL_ADC_PATH_INTERNAL_VREFINT
  *         @arg @ref LL_ADC_PATH_INTERNAL_TEMPSENSOR
  *         @arg @ref LL_ADC_PATH_INTERNAL_VBAT
  */
__STATIC_INLINE uint32_t LL_ADC_GetCommonPathInternalCh(const ADC_Common_TypeDef *ADCxy_COMMON)
{
 8002fe0:	b480      	push	{r7}
 8002fe2:	b083      	sub	sp, #12
 8002fe4:	af00      	add	r7, sp, #0
 8002fe6:	6078      	str	r0, [r7, #4]
  return (uint32_t)(READ_BIT(ADCxy_COMMON->CCR, ADC_CCR_VREFEN | ADC_CCR_VSENSESEL | ADC_CCR_VBATSEL));
 8002fe8:	687b      	ldr	r3, [r7, #4]
 8002fea:	689b      	ldr	r3, [r3, #8]
 8002fec:	f003 73e0 	and.w	r3, r3, #29360128	@ 0x1c00000
}
 8002ff0:	4618      	mov	r0, r3
 8002ff2:	370c      	adds	r7, #12
 8002ff4:	46bd      	mov	sp, r7
 8002ff6:	f85d 7b04 	ldr.w	r7, [sp], #4
 8002ffa:	4770      	bx	lr

08002ffc <LL_ADC_SetOffset>:
  *             (fADC) to convert in 12-bit resolution.\n
  * @param  OffsetLevel Value between Min_Data=0x000 and Max_Data=0xFFF
  * @retval None
  */
__STATIC_INLINE void LL_ADC_SetOffset(ADC_TypeDef *ADCx, uint32_t Offsety, uint32_t Channel, uint32_t OffsetLevel)
{
 8002ffc:	b480      	push	{r7}
 8002ffe:	b087      	sub	sp, #28
 8003000:	af00      	add	r7, sp, #0
 8003002:	60f8      	str	r0, [r7, #12]
 8003004:	60b9      	str	r1, [r7, #8]
 8003006:	607a      	str	r2, [r7, #4]
 8003008:	603b      	str	r3, [r7, #0]
  __IO uint32_t *preg = __ADC_PTR_REG_OFFSET(ADCx->OFR1, Offsety);
 800300a:	68fb      	ldr	r3, [r7, #12]
 800300c:	3360      	adds	r3, #96	@ 0x60
 800300e:	461a      	mov	r2, r3
 8003010:	68bb      	ldr	r3, [r7, #8]
 8003012:	009b      	lsls	r3, r3, #2
 8003014:	4413      	add	r3, r2
 8003016:	617b      	str	r3, [r7, #20]

  MODIFY_REG(*preg,
 8003018:	697b      	ldr	r3, [r7, #20]
 800301a:	681a      	ldr	r2, [r3, #0]
 800301c:	4b08      	ldr	r3, [pc, #32]	@ (8003040 <LL_ADC_SetOffset+0x44>)
 800301e:	4013      	ands	r3, r2
 8003020:	687a      	ldr	r2, [r7, #4]
 8003022:	f002 41f8 	and.w	r1, r2, #2080374784	@ 0x7c000000
 8003026:	683a      	ldr	r2, [r7, #0]
 8003028:	430a      	orrs	r2, r1
 800302a:	4313      	orrs	r3, r2
 800302c:	f043 4200 	orr.w	r2, r3, #2147483648	@ 0x80000000
 8003030:	697b      	ldr	r3, [r7, #20]
 8003032:	601a      	str	r2, [r3, #0]
             ADC_OFR1_OFFSET1_EN | ADC_OFR1_OFFSET1_CH | ADC_OFR1_OFFSET1,
             ADC_OFR1_OFFSET1_EN | (Channel & ADC_CHANNEL_ID_NUMBER_MASK) | OffsetLevel);
}
 8003034:	bf00      	nop
 8003036:	371c      	adds	r7, #28
 8003038:	46bd      	mov	sp, r7
 800303a:	f85d 7b04 	ldr.w	r7, [sp], #4
 800303e:	4770      	bx	lr
 8003040:	03fff000 	.word	0x03fff000

08003044 <LL_ADC_GetOffsetChannel>:
  *         (1, 2, 3, 4, 5, 7) For ADC channel read back from ADC register,
  *                      comparison with internal channel parameter to be done
  *                      using helper macro @ref __LL_ADC_CHANNEL_INTERNAL_TO_EXTERNAL().
  */
__STATIC_INLINE uint32_t LL_ADC_GetOffsetChannel(const ADC_TypeDef *ADCx, uint32_t Offsety)
{
 8003044:	b480      	push	{r7}
 8003046:	b085      	sub	sp, #20
 8003048:	af00      	add	r7, sp, #0
 800304a:	6078      	str	r0, [r7, #4]
 800304c:	6039      	str	r1, [r7, #0]
  const __IO uint32_t *preg = __ADC_PTR_REG_OFFSET(ADCx->OFR1, Offsety);
 800304e:	687b      	ldr	r3, [r7, #4]
 8003050:	3360      	adds	r3, #96	@ 0x60
 8003052:	461a      	mov	r2, r3
 8003054:	683b      	ldr	r3, [r7, #0]
 8003056:	009b      	lsls	r3, r3, #2
 8003058:	4413      	add	r3, r2
 800305a:	60fb      	str	r3, [r7, #12]

  return (uint32_t) READ_BIT(*preg, ADC_OFR1_OFFSET1_CH);
 800305c:	68fb      	ldr	r3, [r7, #12]
 800305e:	681b      	ldr	r3, [r3, #0]
 8003060:	f003 43f8 	and.w	r3, r3, #2080374784	@ 0x7c000000
}
 8003064:	4618      	mov	r0, r3
 8003066:	3714      	adds	r7, #20
 8003068:	46bd      	mov	sp, r7
 800306a:	f85d 7b04 	ldr.w	r7, [sp], #4
 800306e:	4770      	bx	lr

08003070 <LL_ADC_SetOffsetState>:
  *         @arg @ref LL_ADC_OFFSET_DISABLE
  *         @arg @ref LL_ADC_OFFSET_ENABLE
  * @retval None
  */
__STATIC_INLINE void LL_ADC_SetOffsetState(ADC_TypeDef *ADCx, uint32_t Offsety, uint32_t OffsetState)
{
 8003070:	b480      	push	{r7}
 8003072:	b087      	sub	sp, #28
 8003074:	af00      	add	r7, sp, #0
 8003076:	60f8      	str	r0, [r7, #12]
 8003078:	60b9      	str	r1, [r7, #8]
 800307a:	607a      	str	r2, [r7, #4]
  __IO uint32_t *preg = __ADC_PTR_REG_OFFSET(ADCx->OFR1, Offsety);
 800307c:	68fb      	ldr	r3, [r7, #12]
 800307e:	3360      	adds	r3, #96	@ 0x60
 8003080:	461a      	mov	r2, r3
 8003082:	68bb      	ldr	r3, [r7, #8]
 8003084:	009b      	lsls	r3, r3, #2
 8003086:	4413      	add	r3, r2
 8003088:	617b      	str	r3, [r7, #20]

  MODIFY_REG(*preg,
 800308a:	697b      	ldr	r3, [r7, #20]
 800308c:	681b      	ldr	r3, [r3, #0]
 800308e:	f023 4200 	bic.w	r2, r3, #2147483648	@ 0x80000000
 8003092:	687b      	ldr	r3, [r7, #4]
 8003094:	431a      	orrs	r2, r3
 8003096:	697b      	ldr	r3, [r7, #20]
 8003098:	601a      	str	r2, [r3, #0]
             ADC_OFR1_OFFSET1_EN,
             OffsetState);
}
 800309a:	bf00      	nop
 800309c:	371c      	adds	r7, #28
 800309e:	46bd      	mov	sp, r7
 80030a0:	f85d 7b04 	ldr.w	r7, [sp], #4
 80030a4:	4770      	bx	lr

080030a6 <LL_ADC_SetOffsetSign>:
  *         @arg @ref LL_ADC_OFFSET_SIGN_NEGATIVE
  *         @arg @ref LL_ADC_OFFSET_SIGN_POSITIVE
  * @retval None
  */
__STATIC_INLINE void LL_ADC_SetOffsetSign(ADC_TypeDef *ADCx, uint32_t Offsety, uint32_t OffsetSign)
{
 80030a6:	b480      	push	{r7}
 80030a8:	b087      	sub	sp, #28
 80030aa:	af00      	add	r7, sp, #0
 80030ac:	60f8      	str	r0, [r7, #12]
 80030ae:	60b9      	str	r1, [r7, #8]
 80030b0:	607a      	str	r2, [r7, #4]
  __IO uint32_t *preg = __ADC_PTR_REG_OFFSET(ADCx->OFR1, Offsety);
 80030b2:	68fb      	ldr	r3, [r7, #12]
 80030b4:	3360      	adds	r3, #96	@ 0x60
 80030b6:	461a      	mov	r2, r3
 80030b8:	68bb      	ldr	r3, [r7, #8]
 80030ba:	009b      	lsls	r3, r3, #2
 80030bc:	4413      	add	r3, r2
 80030be:	617b      	str	r3, [r7, #20]

  MODIFY_REG(*preg,
 80030c0:	697b      	ldr	r3, [r7, #20]
 80030c2:	681b      	ldr	r3, [r3, #0]
 80030c4:	f023 7280 	bic.w	r2, r3, #16777216	@ 0x1000000
 80030c8:	687b      	ldr	r3, [r7, #4]
 80030ca:	431a      	orrs	r2, r3
 80030cc:	697b      	ldr	r3, [r7, #20]
 80030ce:	601a      	str	r2, [r3, #0]
             ADC_OFR1_OFFSETPOS,
             OffsetSign);
}
 80030d0:	bf00      	nop
 80030d2:	371c      	adds	r7, #28
 80030d4:	46bd      	mov	sp, r7
 80030d6:	f85d 7b04 	ldr.w	r7, [sp], #4
 80030da:	4770      	bx	lr

080030dc <LL_ADC_SetOffsetSaturation>:
  *         @arg @ref LL_ADC_OFFSET_SATURATION_ENABLE
  *         @arg @ref LL_ADC_OFFSET_SATURATION_DISABLE
  * @retval None
  */
__STATIC_INLINE void LL_ADC_SetOffsetSaturation(ADC_TypeDef *ADCx, uint32_t Offsety, uint32_t OffsetSaturation)
{
 80030dc:	b480      	push	{r7}
 80030de:	b087      	sub	sp, #28
 80030e0:	af00      	add	r7, sp, #0
 80030e2:	60f8      	str	r0, [r7, #12]
 80030e4:	60b9      	str	r1, [r7, #8]
 80030e6:	607a      	str	r2, [r7, #4]
  __IO uint32_t *preg = __ADC_PTR_REG_OFFSET(ADCx->OFR1, Offsety);
 80030e8:	68fb      	ldr	r3, [r7, #12]
 80030ea:	3360      	adds	r3, #96	@ 0x60
 80030ec:	461a      	mov	r2, r3
 80030ee:	68bb      	ldr	r3, [r7, #8]
 80030f0:	009b      	lsls	r3, r3, #2
 80030f2:	4413      	add	r3, r2
 80030f4:	617b      	str	r3, [r7, #20]

  MODIFY_REG(*preg,
 80030f6:	697b      	ldr	r3, [r7, #20]
 80030f8:	681b      	ldr	r3, [r3, #0]
 80030fa:	f023 7200 	bic.w	r2, r3, #33554432	@ 0x2000000
 80030fe:	687b      	ldr	r3, [r7, #4]
 8003100:	431a      	orrs	r2, r3
 8003102:	697b      	ldr	r3, [r7, #20]
 8003104:	601a      	str	r2, [r3, #0]
             ADC_OFR1_SATEN,
             OffsetSaturation);
}
 8003106:	bf00      	nop
 8003108:	371c      	adds	r7, #28
 800310a:	46bd      	mov	sp, r7
 800310c:	f85d 7b04 	ldr.w	r7, [sp], #4
 8003110:	4770      	bx	lr

08003112 <LL_ADC_SetSamplingTimeCommonConfig>:
  *         @arg @ref LL_ADC_SAMPLINGTIME_COMMON_DEFAULT
  *         @arg @ref LL_ADC_SAMPLINGTIME_COMMON_3C5_REPL_2C5
  * @retval None
  */
__STATIC_INLINE void LL_ADC_SetSamplingTimeCommonConfig(ADC_TypeDef *ADCx, uint32_t SamplingTimeCommonConfig)
{
 8003112:	b480      	push	{r7}
 8003114:	b083      	sub	sp, #12
 8003116:	af00      	add	r7, sp, #0
 8003118:	6078      	str	r0, [r7, #4]
 800311a:	6039      	str	r1, [r7, #0]
  MODIFY_REG(ADCx->SMPR1, ADC_SMPR1_SMPPLUS, SamplingTimeCommonConfig);
 800311c:	687b      	ldr	r3, [r7, #4]
 800311e:	695b      	ldr	r3, [r3, #20]
 8003120:	f023 4200 	bic.w	r2, r3, #2147483648	@ 0x80000000
 8003124:	683b      	ldr	r3, [r7, #0]
 8003126:	431a      	orrs	r2, r3
 8003128:	687b      	ldr	r3, [r7, #4]
 800312a:	615a      	str	r2, [r3, #20]
}
 800312c:	bf00      	nop
 800312e:	370c      	adds	r7, #12
 8003130:	46bd      	mov	sp, r7
 8003132:	f85d 7b04 	ldr.w	r7, [sp], #4
 8003136:	4770      	bx	lr

08003138 <LL_ADC_REG_SetSequencerRanks>:
  *             Other channels are slow channels  allows: 6.5 (sampling) + 12.5 (conversion) = 19 ADC clock cycles
  *             (fADC) to convert in 12-bit resolution.\n
  * @retval None
  */
__STATIC_INLINE void LL_ADC_REG_SetSequencerRanks(ADC_TypeDef *ADCx, uint32_t Rank, uint32_t Channel)
{
 8003138:	b480      	push	{r7}
 800313a:	b087      	sub	sp, #28
 800313c:	af00      	add	r7, sp, #0
 800313e:	60f8      	str	r0, [r7, #12]
 8003140:	60b9      	str	r1, [r7, #8]
 8003142:	607a      	str	r2, [r7, #4]
  /* Set bits with content of parameter "Channel" with bits position          */
  /* in register and register position depending on parameter "Rank".         */
  /* Parameters "Rank" and "Channel" are used with masks because containing   */
  /* other bits reserved for other purpose.                                   */
  __IO uint32_t *preg = __ADC_PTR_REG_OFFSET(ADCx->SQR1,
 8003144:	68fb      	ldr	r3, [r7, #12]
 8003146:	3330      	adds	r3, #48	@ 0x30
 8003148:	461a      	mov	r2, r3
 800314a:	68bb      	ldr	r3, [r7, #8]
 800314c:	0a1b      	lsrs	r3, r3, #8
 800314e:	009b      	lsls	r3, r3, #2
 8003150:	f003 030c 	and.w	r3, r3, #12
 8003154:	4413      	add	r3, r2
 8003156:	617b      	str	r3, [r7, #20]
                                             ((Rank & ADC_REG_SQRX_REGOFFSET_MASK) >> ADC_SQRX_REGOFFSET_POS));

  MODIFY_REG(*preg,
 8003158:	697b      	ldr	r3, [r7, #20]
 800315a:	681a      	ldr	r2, [r3, #0]
 800315c:	68bb      	ldr	r3, [r7, #8]
 800315e:	f003 031f 	and.w	r3, r3, #31
 8003162:	211f      	movs	r1, #31
 8003164:	fa01 f303 	lsl.w	r3, r1, r3
 8003168:	43db      	mvns	r3, r3
 800316a:	401a      	ands	r2, r3
 800316c:	687b      	ldr	r3, [r7, #4]
 800316e:	0e9b      	lsrs	r3, r3, #26
 8003170:	f003 011f 	and.w	r1, r3, #31
 8003174:	68bb      	ldr	r3, [r7, #8]
 8003176:	f003 031f 	and.w	r3, r3, #31
 800317a:	fa01 f303 	lsl.w	r3, r1, r3
 800317e:	431a      	orrs	r2, r3
 8003180:	697b      	ldr	r3, [r7, #20]
 8003182:	601a      	str	r2, [r3, #0]
             ADC_CHANNEL_ID_NUMBER_MASK_POSBIT0 << (Rank & ADC_REG_RANK_ID_SQRX_MASK),
             ((Channel & ADC_CHANNEL_ID_NUMBER_MASK) >> ADC_CHANNEL_ID_NUMBER_BITOFFSET_POS)
             << (Rank & ADC_REG_RANK_ID_SQRX_MASK));
}
 8003184:	bf00      	nop
 8003186:	371c      	adds	r7, #28
 8003188:	46bd      	mov	sp, r7
 800318a:	f85d 7b04 	ldr.w	r7, [sp], #4
 800318e:	4770      	bx	lr

08003190 <LL_ADC_SetChannelSamplingTime>:
  *             can be replaced by 3.5 ADC clock cycles.
  *             Refer to function @ref LL_ADC_SetSamplingTimeCommonConfig().
  * @retval None
  */
__STATIC_INLINE void LL_ADC_SetChannelSamplingTime(ADC_TypeDef *ADCx, uint32_t Channel, uint32_t SamplingTime)
{
 8003190:	b480      	push	{r7}
 8003192:	b087      	sub	sp, #28
 8003194:	af00      	add	r7, sp, #0
 8003196:	60f8      	str	r0, [r7, #12]
 8003198:	60b9      	str	r1, [r7, #8]
 800319a:	607a      	str	r2, [r7, #4]
  /* Set bits with content of parameter "SamplingTime" with bits position     */
  /* in register and register position depending on parameter "Channel".      */
  /* Parameter "Channel" is used with masks because containing                */
  /* other bits reserved for other purpose.                                   */
  __IO uint32_t *preg = __ADC_PTR_REG_OFFSET(ADCx->SMPR1,
 800319c:	68fb      	ldr	r3, [r7, #12]
 800319e:	3314      	adds	r3, #20
 80031a0:	461a      	mov	r2, r3
 80031a2:	68bb      	ldr	r3, [r7, #8]
 80031a4:	0e5b      	lsrs	r3, r3, #25
 80031a6:	009b      	lsls	r3, r3, #2
 80031a8:	f003 0304 	and.w	r3, r3, #4
 80031ac:	4413      	add	r3, r2
 80031ae:	617b      	str	r3, [r7, #20]
                                             ((Channel & ADC_CHANNEL_SMPRX_REGOFFSET_MASK) >> ADC_SMPRX_REGOFFSET_POS));

  MODIFY_REG(*preg,
 80031b0:	697b      	ldr	r3, [r7, #20]
 80031b2:	681a      	ldr	r2, [r3, #0]
 80031b4:	68bb      	ldr	r3, [r7, #8]
 80031b6:	0d1b      	lsrs	r3, r3, #20
 80031b8:	f003 031f 	and.w	r3, r3, #31
 80031bc:	2107      	movs	r1, #7
 80031be:	fa01 f303 	lsl.w	r3, r1, r3
 80031c2:	43db      	mvns	r3, r3
 80031c4:	401a      	ands	r2, r3
 80031c6:	68bb      	ldr	r3, [r7, #8]
 80031c8:	0d1b      	lsrs	r3, r3, #20
 80031ca:	f003 031f 	and.w	r3, r3, #31
 80031ce:	6879      	ldr	r1, [r7, #4]
 80031d0:	fa01 f303 	lsl.w	r3, r1, r3
 80031d4:	431a      	orrs	r2, r3
 80031d6:	697b      	ldr	r3, [r7, #20]
 80031d8:	601a      	str	r2, [r3, #0]
             ADC_SMPR1_SMP0 << ((Channel & ADC_CHANNEL_SMPx_BITOFFSET_MASK) >> ADC_CHANNEL_SMPx_BITOFFSET_POS),
             SamplingTime   << ((Channel & ADC_CHANNEL_SMPx_BITOFFSET_MASK) >> ADC_CHANNEL_SMPx_BITOFFSET_POS));
}
 80031da:	bf00      	nop
 80031dc:	371c      	adds	r7, #28
 80031de:	46bd      	mov	sp, r7
 80031e0:	f85d 7b04 	ldr.w	r7, [sp], #4
 80031e4:	4770      	bx	lr
	...

080031e8 <LL_ADC_SetChannelSingleDiff>:
  *         @arg @ref LL_ADC_SINGLE_ENDED
  *         @arg @ref LL_ADC_DIFFERENTIAL_ENDED
  * @retval None
  */
__STATIC_INLINE void LL_ADC_SetChannelSingleDiff(ADC_TypeDef *ADCx, uint32_t Channel, uint32_t SingleDiff)
{
 80031e8:	b480      	push	{r7}
 80031ea:	b085      	sub	sp, #20
 80031ec:	af00      	add	r7, sp, #0
 80031ee:	60f8      	str	r0, [r7, #12]
 80031f0:	60b9      	str	r1, [r7, #8]
 80031f2:	607a      	str	r2, [r7, #4]
  /* Bits of channels in single or differential mode are set only for         */
  /* differential mode (for single mode, mask of bits allowed to be set is    */
  /* shifted out of range of bits of channels in single or differential mode. */
  MODIFY_REG(ADCx->DIFSEL,
 80031f4:	68fb      	ldr	r3, [r7, #12]
 80031f6:	f8d3 20b0 	ldr.w	r2, [r3, #176]	@ 0xb0
 80031fa:	68bb      	ldr	r3, [r7, #8]
 80031fc:	f3c3 0312 	ubfx	r3, r3, #0, #19
 8003200:	43db      	mvns	r3, r3
 8003202:	401a      	ands	r2, r3
 8003204:	687b      	ldr	r3, [r7, #4]
 8003206:	f003 0318 	and.w	r3, r3, #24
 800320a:	4908      	ldr	r1, [pc, #32]	@ (800322c <LL_ADC_SetChannelSingleDiff+0x44>)
 800320c:	40d9      	lsrs	r1, r3
 800320e:	68bb      	ldr	r3, [r7, #8]
 8003210:	400b      	ands	r3, r1
 8003212:	f3c3 0312 	ubfx	r3, r3, #0, #19
 8003216:	431a      	orrs	r2, r3
 8003218:	68fb      	ldr	r3, [r7, #12]
 800321a:	f8c3 20b0 	str.w	r2, [r3, #176]	@ 0xb0
             Channel & ADC_SINGLEDIFF_CHANNEL_MASK,
             (Channel & ADC_SINGLEDIFF_CHANNEL_MASK)
             & (ADC_DIFSEL_DIFSEL >> (SingleDiff & ADC_SINGLEDIFF_CHANNEL_SHIFT_MASK)));
}
 800321e:	bf00      	nop
 8003220:	3714      	adds	r7, #20
 8003222:	46bd      	mov	sp, r7
 8003224:	f85d 7b04 	ldr.w	r7, [sp], #4
 8003228:	4770      	bx	lr
 800322a:	bf00      	nop
 800322c:	0007ffff 	.word	0x0007ffff

08003230 <LL_ADC_DisableDeepPowerDown>:
  * @rmtoll CR       DEEPPWD        LL_ADC_DisableDeepPowerDown
  * @param  ADCx ADC instance
  * @retval None
  */
__STATIC_INLINE void LL_ADC_DisableDeepPowerDown(ADC_TypeDef *ADCx)
{
 8003230:	b480      	push	{r7}
 8003232:	b083      	sub	sp, #12
 8003234:	af00      	add	r7, sp, #0
 8003236:	6078      	str	r0, [r7, #4]
  /* Note: Write register with some additional bits forced to state reset     */
  /*       instead of modifying only the selected bit for this function,      */
  /*       to not interfere with bits with HW property "rs".                  */
  CLEAR_BIT(ADCx->CR, (ADC_CR_DEEPPWD | ADC_CR_BITS_PROPERTY_RS));
 8003238:	687b      	ldr	r3, [r7, #4]
 800323a:	689b      	ldr	r3, [r3, #8]
 800323c:	f023 4320 	bic.w	r3, r3, #2684354560	@ 0xa0000000
 8003240:	f023 033f 	bic.w	r3, r3, #63	@ 0x3f
 8003244:	687a      	ldr	r2, [r7, #4]
 8003246:	6093      	str	r3, [r2, #8]
}
 8003248:	bf00      	nop
 800324a:	370c      	adds	r7, #12
 800324c:	46bd      	mov	sp, r7
 800324e:	f85d 7b04 	ldr.w	r7, [sp], #4
 8003252:	4770      	bx	lr

08003254 <LL_ADC_IsDeepPowerDownEnabled>:
  * @rmtoll CR       DEEPPWD        LL_ADC_IsDeepPowerDownEnabled
  * @param  ADCx ADC instance
  * @retval 0: deep power down is disabled, 1: deep power down is enabled.
  */
__STATIC_INLINE uint32_t LL_ADC_IsDeepPowerDownEnabled(const ADC_TypeDef *ADCx)
{
 8003254:	b480      	push	{r7}
 8003256:	b083      	sub	sp, #12
 8003258:	af00      	add	r7, sp, #0
 800325a:	6078      	str	r0, [r7, #4]
  return ((READ_BIT(ADCx->CR, ADC_CR_DEEPPWD) == (ADC_CR_DEEPPWD)) ? 1UL : 0UL);
 800325c:	687b      	ldr	r3, [r7, #4]
 800325e:	689b      	ldr	r3, [r3, #8]
 8003260:	f003 5300 	and.w	r3, r3, #536870912	@ 0x20000000
 8003264:	f1b3 5f00 	cmp.w	r3, #536870912	@ 0x20000000
 8003268:	d101      	bne.n	800326e <LL_ADC_IsDeepPowerDownEnabled+0x1a>
 800326a:	2301      	movs	r3, #1
 800326c:	e000      	b.n	8003270 <LL_ADC_IsDeepPowerDownEnabled+0x1c>
 800326e:	2300      	movs	r3, #0
}
 8003270:	4618      	mov	r0, r3
 8003272:	370c      	adds	r7, #12
 8003274:	46bd      	mov	sp, r7
 8003276:	f85d 7b04 	ldr.w	r7, [sp], #4
 800327a:	4770      	bx	lr

0800327c <LL_ADC_EnableInternalRegulator>:
  * @rmtoll CR       ADVREGEN       LL_ADC_EnableInternalRegulator
  * @param  ADCx ADC instance
  * @retval None
  */
__STATIC_INLINE void LL_ADC_EnableInternalRegulator(ADC_TypeDef *ADCx)
{
 800327c:	b480      	push	{r7}
 800327e:	b083      	sub	sp, #12
 8003280:	af00      	add	r7, sp, #0
 8003282:	6078      	str	r0, [r7, #4]
  /* Note: Write register with some additional bits forced to state reset     */
  /*       instead of modifying only the selected bit for this function,      */
  /*       to not interfere with bits with HW property "rs".                  */
  MODIFY_REG(ADCx->CR,
 8003284:	687b      	ldr	r3, [r7, #4]
 8003286:	689b      	ldr	r3, [r3, #8]
 8003288:	f023 4310 	bic.w	r3, r3, #2415919104	@ 0x90000000
 800328c:	f023 033f 	bic.w	r3, r3, #63	@ 0x3f
 8003290:	f043 5280 	orr.w	r2, r3, #268435456	@ 0x10000000
 8003294:	687b      	ldr	r3, [r7, #4]
 8003296:	609a      	str	r2, [r3, #8]
             ADC_CR_BITS_PROPERTY_RS,
             ADC_CR_ADVREGEN);
}
 8003298:	bf00      	nop
 800329a:	370c      	adds	r7, #12
 800329c:	46bd      	mov	sp, r7
 800329e:	f85d 7b04 	ldr.w	r7, [sp], #4
 80032a2:	4770      	bx	lr

080032a4 <LL_ADC_IsInternalRegulatorEnabled>:
  * @rmtoll CR       ADVREGEN       LL_ADC_IsInternalRegulatorEnabled
  * @param  ADCx ADC instance
  * @retval 0: internal regulator is disabled, 1: internal regulator is enabled.
  */
__STATIC_INLINE uint32_t LL_ADC_IsInternalRegulatorEnabled(const ADC_TypeDef *ADCx)
{
 80032a4:	b480      	push	{r7}
 80032a6:	b083      	sub	sp, #12
 80032a8:	af00      	add	r7, sp, #0
 80032aa:	6078      	str	r0, [r7, #4]
  return ((READ_BIT(ADCx->CR, ADC_CR_ADVREGEN) == (ADC_CR_ADVREGEN)) ? 1UL : 0UL);
 80032ac:	687b      	ldr	r3, [r7, #4]
 80032ae:	689b      	ldr	r3, [r3, #8]
 80032b0:	f003 5380 	and.w	r3, r3, #268435456	@ 0x10000000
 80032b4:	f1b3 5f80 	cmp.w	r3, #268435456	@ 0x10000000
 80032b8:	d101      	bne.n	80032be <LL_ADC_IsInternalRegulatorEnabled+0x1a>
 80032ba:	2301      	movs	r3, #1
 80032bc:	e000      	b.n	80032c0 <LL_ADC_IsInternalRegulatorEnabled+0x1c>
 80032be:	2300      	movs	r3, #0
}
 80032c0:	4618      	mov	r0, r3
 80032c2:	370c      	adds	r7, #12
 80032c4:	46bd      	mov	sp, r7
 80032c6:	f85d 7b04 	ldr.w	r7, [sp], #4
 80032ca:	4770      	bx	lr

080032cc <LL_ADC_IsEnabled>:
  * @rmtoll CR       ADEN           LL_ADC_IsEnabled
  * @param  ADCx ADC instance
  * @retval 0: ADC is disabled, 1: ADC is enabled.
  */
__STATIC_INLINE uint32_t LL_ADC_IsEnabled(const ADC_TypeDef *ADCx)
{
 80032cc:	b480      	push	{r7}
 80032ce:	b083      	sub	sp, #12
 80032d0:	af00      	add	r7, sp, #0
 80032d2:	6078      	str	r0, [r7, #4]
  return ((READ_BIT(ADCx->CR, ADC_CR_ADEN) == (ADC_CR_ADEN)) ? 1UL : 0UL);
 80032d4:	687b      	ldr	r3, [r7, #4]
 80032d6:	689b      	ldr	r3, [r3, #8]
 80032d8:	f003 0301 	and.w	r3, r3, #1
 80032dc:	2b01      	cmp	r3, #1
 80032de:	d101      	bne.n	80032e4 <LL_ADC_IsEnabled+0x18>
 80032e0:	2301      	movs	r3, #1
 80032e2:	e000      	b.n	80032e6 <LL_ADC_IsEnabled+0x1a>
 80032e4:	2300      	movs	r3, #0
}
 80032e6:	4618      	mov	r0, r3
 80032e8:	370c      	adds	r7, #12
 80032ea:	46bd      	mov	sp, r7
 80032ec:	f85d 7b04 	ldr.w	r7, [sp], #4
 80032f0:	4770      	bx	lr

080032f2 <LL_ADC_REG_IsConversionOngoing>:
  * @rmtoll CR       ADSTART        LL_ADC_REG_IsConversionOngoing
  * @param  ADCx ADC instance
  * @retval 0: no conversion is on going on ADC group regular.
  */
__STATIC_INLINE uint32_t LL_ADC_REG_IsConversionOngoing(const ADC_TypeDef *ADCx)
{
 80032f2:	b480      	push	{r7}
 80032f4:	b083      	sub	sp, #12
 80032f6:	af00      	add	r7, sp, #0
 80032f8:	6078      	str	r0, [r7, #4]
  return ((READ_BIT(ADCx->CR, ADC_CR_ADSTART) == (ADC_CR_ADSTART)) ? 1UL : 0UL);
 80032fa:	687b      	ldr	r3, [r7, #4]
 80032fc:	689b      	ldr	r3, [r3, #8]
 80032fe:	f003 0304 	and.w	r3, r3, #4
 8003302:	2b04      	cmp	r3, #4
 8003304:	d101      	bne.n	800330a <LL_ADC_REG_IsConversionOngoing+0x18>
 8003306:	2301      	movs	r3, #1
 8003308:	e000      	b.n	800330c <LL_ADC_REG_IsConversionOngoing+0x1a>
 800330a:	2300      	movs	r3, #0
}
 800330c:	4618      	mov	r0, r3
 800330e:	370c      	adds	r7, #12
 8003310:	46bd      	mov	sp, r7
 8003312:	f85d 7b04 	ldr.w	r7, [sp], #4
 8003316:	4770      	bx	lr

08003318 <LL_ADC_INJ_IsConversionOngoing>:
  * @rmtoll CR       JADSTART       LL_ADC_INJ_IsConversionOngoing
  * @param  ADCx ADC instance
  * @retval 0: no conversion is on going on ADC group injected.
  */
__STATIC_INLINE uint32_t LL_ADC_INJ_IsConversionOngoing(const ADC_TypeDef *ADCx)
{
 8003318:	b480      	push	{r7}
 800331a:	b083      	sub	sp, #12
 800331c:	af00      	add	r7, sp, #0
 800331e:	6078      	str	r0, [r7, #4]
  return ((READ_BIT(ADCx->CR, ADC_CR_JADSTART) == (ADC_CR_JADSTART)) ? 1UL : 0UL);
 8003320:	687b      	ldr	r3, [r7, #4]
 8003322:	689b      	ldr	r3, [r3, #8]
 8003324:	f003 0308 	and.w	r3, r3, #8
 8003328:	2b08      	cmp	r3, #8
 800332a:	d101      	bne.n	8003330 <LL_ADC_INJ_IsConversionOngoing+0x18>
 800332c:	2301      	movs	r3, #1
 800332e:	e000      	b.n	8003332 <LL_ADC_INJ_IsConversionOngoing+0x1a>
 8003330:	2300      	movs	r3, #0
}
 8003332:	4618      	mov	r0, r3
 8003334:	370c      	adds	r7, #12
 8003336:	46bd      	mov	sp, r7
 8003338:	f85d 7b04 	ldr.w	r7, [sp], #4
 800333c:	4770      	bx	lr
	...

08003340 <HAL_ADC_Init>:
  *         without  disabling the other ADCs.
  * @param hadc ADC handle
  * @retval HAL status
  */
HAL_StatusTypeDef HAL_ADC_Init(ADC_HandleTypeDef *hadc)
{
 8003340:	b590      	push	{r4, r7, lr}
 8003342:	b089      	sub	sp, #36	@ 0x24
 8003344:	af00      	add	r7, sp, #0
 8003346:	6078      	str	r0, [r7, #4]
  HAL_StatusTypeDef tmp_hal_status = HAL_OK;
 8003348:	2300      	movs	r3, #0
 800334a:	77fb      	strb	r3, [r7, #31]
  uint32_t tmp_cfgr;
  uint32_t tmp_adc_is_conversion_on_going_regular;
  uint32_t tmp_adc_is_conversion_on_going_injected;
  __IO uint32_t wait_loop_index = 0UL;
 800334c:	2300      	movs	r3, #0
 800334e:	60fb      	str	r3, [r7, #12]

  /* Check ADC handle */
  if (hadc == NULL)
 8003350:	687b      	ldr	r3, [r7, #4]
 8003352:	2b00      	cmp	r3, #0
 8003354:	d101      	bne.n	800335a <HAL_ADC_Init+0x1a>
  {
    return HAL_ERROR;
 8003356:	2301      	movs	r3, #1
 8003358:	e1a9      	b.n	80036ae <HAL_ADC_Init+0x36e>
  assert_param(IS_ADC_EOC_SELECTION(hadc->Init.EOCSelection));
  assert_param(IS_ADC_OVERRUN(hadc->Init.Overrun));
  assert_param(IS_FUNCTIONAL_STATE(hadc->Init.LowPowerAutoWait));
  assert_param(IS_FUNCTIONAL_STATE(hadc->Init.OversamplingMode));

  if (hadc->Init.ScanConvMode != ADC_SCAN_DISABLE)
 800335a:	687b      	ldr	r3, [r7, #4]
 800335c:	695b      	ldr	r3, [r3, #20]
 800335e:	2b00      	cmp	r3, #0
  /* DISCEN and CONT bits cannot be set at the same time */
  assert_param(!((hadc->Init.DiscontinuousConvMode == ENABLE) && (hadc->Init.ContinuousConvMode == ENABLE)));

  /* Actions performed only if ADC is coming from state reset:                */
  /* - Initialization of ADC MSP                                              */
  if (hadc->State == HAL_ADC_STATE_RESET)
 8003360:	687b      	ldr	r3, [r7, #4]
 8003362:	6ddb      	ldr	r3, [r3, #92]	@ 0x5c
 8003364:	2b00      	cmp	r3, #0
 8003366:	d109      	bne.n	800337c <HAL_ADC_Init+0x3c>

    /* Init the low level hardware */
    hadc->MspInitCallback(hadc);
#else
    /* Init the low level hardware */
    HAL_ADC_MspInit(hadc);
 8003368:	6878      	ldr	r0, [r7, #4]
 800336a:	f7ff f98b 	bl	8002684 <HAL_ADC_MspInit>
#endif /* USE_HAL_ADC_REGISTER_CALLBACKS */

    /* Set ADC error code to none */
    ADC_CLEAR_ERRORCODE(hadc);
 800336e:	687b      	ldr	r3, [r7, #4]
 8003370:	2200      	movs	r2, #0
 8003372:	661a      	str	r2, [r3, #96]	@ 0x60

    /* Initialize Lock */
    hadc->Lock = HAL_UNLOCKED;
 8003374:	687b      	ldr	r3, [r7, #4]
 8003376:	2200      	movs	r2, #0
 8003378:	f883 2058 	strb.w	r2, [r3, #88]	@ 0x58
  }

  /* - Exit from deep-power-down mode and ADC voltage regulator enable        */
  if (LL_ADC_IsDeepPowerDownEnabled(hadc->Instance) != 0UL)
 800337c:	687b      	ldr	r3, [r7, #4]
 800337e:	681b      	ldr	r3, [r3, #0]
 8003380:	4618      	mov	r0, r3
 8003382:	f7ff ff67 	bl	8003254 <LL_ADC_IsDeepPowerDownEnabled>
 8003386:	4603      	mov	r3, r0
 8003388:	2b00      	cmp	r3, #0
 800338a:	d004      	beq.n	8003396 <HAL_ADC_Init+0x56>
  {
    /* Disable ADC deep power down mode */
    LL_ADC_DisableDeepPowerDown(hadc->Instance);
 800338c:	687b      	ldr	r3, [r7, #4]
 800338e:	681b      	ldr	r3, [r3, #0]
 8003390:	4618      	mov	r0, r3
 8003392:	f7ff ff4d 	bl	8003230 <LL_ADC_DisableDeepPowerDown>
    /* System was in deep power down mode, calibration must
     be relaunched or a previously saved calibration factor
     re-applied once the ADC voltage regulator is enabled */
  }

  if (LL_ADC_IsInternalRegulatorEnabled(hadc->Instance) == 0UL)
 8003396:	687b      	ldr	r3, [r7, #4]
 8003398:	681b      	ldr	r3, [r3, #0]
 800339a:	4618      	mov	r0, r3
 800339c:	f7ff ff82 	bl	80032a4 <LL_ADC_IsInternalRegulatorEnabled>
 80033a0:	4603      	mov	r3, r0
 80033a2:	2b00      	cmp	r3, #0
 80033a4:	d115      	bne.n	80033d2 <HAL_ADC_Init+0x92>
  {
    /* Enable ADC internal voltage regulator */
    LL_ADC_EnableInternalRegulator(hadc->Instance);
 80033a6:	687b      	ldr	r3, [r7, #4]
 80033a8:	681b      	ldr	r3, [r3, #0]
 80033aa:	4618      	mov	r0, r3
 80033ac:	f7ff ff66 	bl	800327c <LL_ADC_EnableInternalRegulator>

    /* Note: Variable divided by 2 to compensate partially              */
    /*       CPU processing cycles, scaling in us split to not          */
    /*       exceed 32 bits register capacity and handle low frequency. */
    wait_loop_index = ((LL_ADC_DELAY_INTERNAL_REGUL_STAB_US / 10UL) * ((SystemCoreClock / (100000UL * 2UL)) + 1UL));
 80033b0:	4b9c      	ldr	r3, [pc, #624]	@ (8003624 <HAL_ADC_Init+0x2e4>)
 80033b2:	681b      	ldr	r3, [r3, #0]
 80033b4:	099b      	lsrs	r3, r3, #6
 80033b6:	4a9c      	ldr	r2, [pc, #624]	@ (8003628 <HAL_ADC_Init+0x2e8>)
 80033b8:	fba2 2303 	umull	r2, r3, r2, r3
 80033bc:	099b      	lsrs	r3, r3, #6
 80033be:	3301      	adds	r3, #1
 80033c0:	005b      	lsls	r3, r3, #1
 80033c2:	60fb      	str	r3, [r7, #12]
    while (wait_loop_index != 0UL)
 80033c4:	e002      	b.n	80033cc <HAL_ADC_Init+0x8c>
    {
      wait_loop_index--;
 80033c6:	68fb      	ldr	r3, [r7, #12]
 80033c8:	3b01      	subs	r3, #1
 80033ca:	60fb      	str	r3, [r7, #12]
    while (wait_loop_index != 0UL)
 80033cc:	68fb      	ldr	r3, [r7, #12]
 80033ce:	2b00      	cmp	r3, #0
 80033d0:	d1f9      	bne.n	80033c6 <HAL_ADC_Init+0x86>
  }

  /* Verification that ADC voltage regulator is correctly enabled, whether    */
  /* or not ADC is coming from state reset (if any potential problem of       */
  /* clocking, voltage regulator would not be enabled).                       */
  if (LL_ADC_IsInternalRegulatorEnabled(hadc->Instance) == 0UL)
 80033d2:	687b      	ldr	r3, [r7, #4]
 80033d4:	681b      	ldr	r3, [r3, #0]
 80033d6:	4618      	mov	r0, r3
 80033d8:	f7ff ff64 	bl	80032a4 <LL_ADC_IsInternalRegulatorEnabled>
 80033dc:	4603      	mov	r3, r0
 80033de:	2b00      	cmp	r3, #0
 80033e0:	d10d      	bne.n	80033fe <HAL_ADC_Init+0xbe>
  {
    /* Update ADC state machine to error */
    SET_BIT(hadc->State, HAL_ADC_STATE_ERROR_INTERNAL);
 80033e2:	687b      	ldr	r3, [r7, #4]
 80033e4:	6ddb      	ldr	r3, [r3, #92]	@ 0x5c
 80033e6:	f043 0210 	orr.w	r2, r3, #16
 80033ea:	687b      	ldr	r3, [r7, #4]
 80033ec:	65da      	str	r2, [r3, #92]	@ 0x5c

    /* Set ADC error code to ADC peripheral internal error */
    SET_BIT(hadc->ErrorCode, HAL_ADC_ERROR_INTERNAL);
 80033ee:	687b      	ldr	r3, [r7, #4]
 80033f0:	6e1b      	ldr	r3, [r3, #96]	@ 0x60
 80033f2:	f043 0201 	orr.w	r2, r3, #1
 80033f6:	687b      	ldr	r3, [r7, #4]
 80033f8:	661a      	str	r2, [r3, #96]	@ 0x60

    tmp_hal_status = HAL_ERROR;
 80033fa:	2301      	movs	r3, #1
 80033fc:	77fb      	strb	r3, [r7, #31]

  /* Configuration of ADC parameters if previous preliminary actions are      */
  /* correctly completed and if there is no conversion on going on regular    */
  /* group (ADC may already be enabled at this point if HAL_ADC_Init() is     */
  /* called to update a parameter on the fly).                                */
  tmp_adc_is_conversion_on_going_regular = LL_ADC_REG_IsConversionOngoing(hadc->Instance);
 80033fe:	687b      	ldr	r3, [r7, #4]
 8003400:	681b      	ldr	r3, [r3, #0]
 8003402:	4618      	mov	r0, r3
 8003404:	f7ff ff75 	bl	80032f2 <LL_ADC_REG_IsConversionOngoing>
 8003408:	6178      	str	r0, [r7, #20]

  if (((hadc->State & HAL_ADC_STATE_ERROR_INTERNAL) == 0UL)
 800340a:	687b      	ldr	r3, [r7, #4]
 800340c:	6ddb      	ldr	r3, [r3, #92]	@ 0x5c
 800340e:	f003 0310 	and.w	r3, r3, #16
 8003412:	2b00      	cmp	r3, #0
 8003414:	f040 8142 	bne.w	800369c <HAL_ADC_Init+0x35c>
      && (tmp_adc_is_conversion_on_going_regular == 0UL)
 8003418:	697b      	ldr	r3, [r7, #20]
 800341a:	2b00      	cmp	r3, #0
 800341c:	f040 813e 	bne.w	800369c <HAL_ADC_Init+0x35c>
     )
  {
    /* Set ADC state */
    ADC_STATE_CLR_SET(hadc->State,
 8003420:	687b      	ldr	r3, [r7, #4]
 8003422:	6ddb      	ldr	r3, [r3, #92]	@ 0x5c
 8003424:	f423 7381 	bic.w	r3, r3, #258	@ 0x102
 8003428:	f043 0202 	orr.w	r2, r3, #2
 800342c:	687b      	ldr	r3, [r7, #4]
 800342e:	65da      	str	r2, [r3, #92]	@ 0x5c
    /* Configuration of common ADC parameters                                 */

    /* Parameters update conditioned to ADC state:                            */
    /* Parameters that can be updated only when ADC is disabled:              */
    /*  - clock configuration                                                 */
    if (LL_ADC_IsEnabled(hadc->Instance) == 0UL)
 8003430:	687b      	ldr	r3, [r7, #4]
 8003432:	681b      	ldr	r3, [r3, #0]
 8003434:	4618      	mov	r0, r3
 8003436:	f7ff ff49 	bl	80032cc <LL_ADC_IsEnabled>
 800343a:	4603      	mov	r3, r0
 800343c:	2b00      	cmp	r3, #0
 800343e:	d141      	bne.n	80034c4 <HAL_ADC_Init+0x184>
    {
      if (__LL_ADC_IS_ENABLED_ALL_COMMON_INSTANCE(__LL_ADC_COMMON_INSTANCE(hadc->Instance)) == 0UL)
 8003440:	687b      	ldr	r3, [r7, #4]
 8003442:	681b      	ldr	r3, [r3, #0]
 8003444:	f1b3 4fa0 	cmp.w	r3, #1342177280	@ 0x50000000
 8003448:	d004      	beq.n	8003454 <HAL_ADC_Init+0x114>
 800344a:	687b      	ldr	r3, [r7, #4]
 800344c:	681b      	ldr	r3, [r3, #0]
 800344e:	4a77      	ldr	r2, [pc, #476]	@ (800362c <HAL_ADC_Init+0x2ec>)
 8003450:	4293      	cmp	r3, r2
 8003452:	d10f      	bne.n	8003474 <HAL_ADC_Init+0x134>
 8003454:	f04f 40a0 	mov.w	r0, #1342177280	@ 0x50000000
 8003458:	f7ff ff38 	bl	80032cc <LL_ADC_IsEnabled>
 800345c:	4604      	mov	r4, r0
 800345e:	4873      	ldr	r0, [pc, #460]	@ (800362c <HAL_ADC_Init+0x2ec>)
 8003460:	f7ff ff34 	bl	80032cc <LL_ADC_IsEnabled>
 8003464:	4603      	mov	r3, r0
 8003466:	4323      	orrs	r3, r4
 8003468:	2b00      	cmp	r3, #0
 800346a:	bf0c      	ite	eq
 800346c:	2301      	moveq	r3, #1
 800346e:	2300      	movne	r3, #0
 8003470:	b2db      	uxtb	r3, r3
 8003472:	e012      	b.n	800349a <HAL_ADC_Init+0x15a>
 8003474:	486e      	ldr	r0, [pc, #440]	@ (8003630 <HAL_ADC_Init+0x2f0>)
 8003476:	f7ff ff29 	bl	80032cc <LL_ADC_IsEnabled>
 800347a:	4604      	mov	r4, r0
 800347c:	486d      	ldr	r0, [pc, #436]	@ (8003634 <HAL_ADC_Init+0x2f4>)
 800347e:	f7ff ff25 	bl	80032cc <LL_ADC_IsEnabled>
 8003482:	4603      	mov	r3, r0
 8003484:	431c      	orrs	r4, r3
 8003486:	486c      	ldr	r0, [pc, #432]	@ (8003638 <HAL_ADC_Init+0x2f8>)
 8003488:	f7ff ff20 	bl	80032cc <LL_ADC_IsEnabled>
 800348c:	4603      	mov	r3, r0
 800348e:	4323      	orrs	r3, r4
 8003490:	2b00      	cmp	r3, #0
 8003492:	bf0c      	ite	eq
 8003494:	2301      	moveq	r3, #1
 8003496:	2300      	movne	r3, #0
 8003498:	b2db      	uxtb	r3, r3
 800349a:	2b00      	cmp	r3, #0
 800349c:	d012      	beq.n	80034c4 <HAL_ADC_Init+0x184>
        /*     parameters: MDMA, DMACFG, DELAY, DUAL (set by API                */
        /*     HAL_ADCEx_MultiModeConfigChannel() )                             */
        /*   - internal measurement paths: Vbat, temperature sensor, Vref       */
        /*     (set into HAL_ADC_ConfigChannel() or                             */
        /*     HAL_ADCEx_InjectedConfigChannel() )                              */
        LL_ADC_SetCommonClock(__LL_ADC_COMMON_INSTANCE(hadc->Instance), hadc->Init.ClockPrescaler);
 800349e:	687b      	ldr	r3, [r7, #4]
 80034a0:	681b      	ldr	r3, [r3, #0]
 80034a2:	f1b3 4fa0 	cmp.w	r3, #1342177280	@ 0x50000000
 80034a6:	d004      	beq.n	80034b2 <HAL_ADC_Init+0x172>
 80034a8:	687b      	ldr	r3, [r7, #4]
 80034aa:	681b      	ldr	r3, [r3, #0]
 80034ac:	4a5f      	ldr	r2, [pc, #380]	@ (800362c <HAL_ADC_Init+0x2ec>)
 80034ae:	4293      	cmp	r3, r2
 80034b0:	d101      	bne.n	80034b6 <HAL_ADC_Init+0x176>
 80034b2:	4a62      	ldr	r2, [pc, #392]	@ (800363c <HAL_ADC_Init+0x2fc>)
 80034b4:	e000      	b.n	80034b8 <HAL_ADC_Init+0x178>
 80034b6:	4a62      	ldr	r2, [pc, #392]	@ (8003640 <HAL_ADC_Init+0x300>)
 80034b8:	687b      	ldr	r3, [r7, #4]
 80034ba:	685b      	ldr	r3, [r3, #4]
 80034bc:	4619      	mov	r1, r3
 80034be:	4610      	mov	r0, r2
 80034c0:	f7ff fd68 	bl	8002f94 <LL_ADC_SetCommonClock>
    /*  - external trigger polarity                Init.ExternalTrigConvEdge  */
    /*  - continuous conversion mode               Init.ContinuousConvMode    */
    /*  - overrun                                  Init.Overrun               */
    /*  - discontinuous mode                       Init.DiscontinuousConvMode */
    /*  - discontinuous mode channel count         Init.NbrOfDiscConversion   */
    tmp_cfgr  = (ADC_CFGR_CONTINUOUS((uint32_t)hadc->Init.ContinuousConvMode)           |
 80034c4:	687b      	ldr	r3, [r7, #4]
 80034c6:	7f5b      	ldrb	r3, [r3, #29]
 80034c8:	035a      	lsls	r2, r3, #13
                 hadc->Init.Overrun                                                     |
 80034ca:	687b      	ldr	r3, [r7, #4]
 80034cc:	6bdb      	ldr	r3, [r3, #60]	@ 0x3c
    tmp_cfgr  = (ADC_CFGR_CONTINUOUS((uint32_t)hadc->Init.ContinuousConvMode)           |
 80034ce:	431a      	orrs	r2, r3
                 hadc->Init.DataAlign                                                   |
 80034d0:	687b      	ldr	r3, [r7, #4]
 80034d2:	68db      	ldr	r3, [r3, #12]
                 hadc->Init.Overrun                                                     |
 80034d4:	431a      	orrs	r2, r3
                 hadc->Init.Resolution                                                  |
 80034d6:	687b      	ldr	r3, [r7, #4]
 80034d8:	689b      	ldr	r3, [r3, #8]
                 hadc->Init.DataAlign                                                   |
 80034da:	431a      	orrs	r2, r3
                 ADC_CFGR_REG_DISCONTINUOUS((uint32_t)hadc->Init.DiscontinuousConvMode));
 80034dc:	687b      	ldr	r3, [r7, #4]
 80034de:	f893 3024 	ldrb.w	r3, [r3, #36]	@ 0x24
 80034e2:	041b      	lsls	r3, r3, #16
    tmp_cfgr  = (ADC_CFGR_CONTINUOUS((uint32_t)hadc->Init.ContinuousConvMode)           |
 80034e4:	4313      	orrs	r3, r2
 80034e6:	61bb      	str	r3, [r7, #24]

    if (hadc->Init.DiscontinuousConvMode == ENABLE)
 80034e8:	687b      	ldr	r3, [r7, #4]
 80034ea:	f893 3024 	ldrb.w	r3, [r3, #36]	@ 0x24
 80034ee:	2b01      	cmp	r3, #1
 80034f0:	d106      	bne.n	8003500 <HAL_ADC_Init+0x1c0>
    {
      tmp_cfgr |= ADC_CFGR_DISCONTINUOUS_NUM(hadc->Init.NbrOfDiscConversion);
 80034f2:	687b      	ldr	r3, [r7, #4]
 80034f4:	6a9b      	ldr	r3, [r3, #40]	@ 0x28
 80034f6:	3b01      	subs	r3, #1
 80034f8:	045b      	lsls	r3, r3, #17
 80034fa:	69ba      	ldr	r2, [r7, #24]
 80034fc:	4313      	orrs	r3, r2
 80034fe:	61bb      	str	r3, [r7, #24]
    /* Enable external trigger if trigger selection is different of software  */
    /* start.                                                                 */
    /* Note: This configuration keeps the hardware feature of parameter       */
    /*       ExternalTrigConvEdge "trigger edge none" equivalent to           */
    /*       software start.                                                  */
    if (hadc->Init.ExternalTrigConv != ADC_SOFTWARE_START)
 8003500:	687b      	ldr	r3, [r7, #4]
 8003502:	6adb      	ldr	r3, [r3, #44]	@ 0x2c
 8003504:	2b00      	cmp	r3, #0
 8003506:	d009      	beq.n	800351c <HAL_ADC_Init+0x1dc>
    {
      tmp_cfgr |= ((hadc->Init.ExternalTrigConv & ADC_CFGR_EXTSEL)
 8003508:	687b      	ldr	r3, [r7, #4]
 800350a:	6adb      	ldr	r3, [r3, #44]	@ 0x2c
 800350c:	f403 7278 	and.w	r2, r3, #992	@ 0x3e0
                   | hadc->Init.ExternalTrigConvEdge
 8003510:	687b      	ldr	r3, [r7, #4]
 8003512:	6b1b      	ldr	r3, [r3, #48]	@ 0x30
 8003514:	4313      	orrs	r3, r2
      tmp_cfgr |= ((hadc->Init.ExternalTrigConv & ADC_CFGR_EXTSEL)
 8003516:	69ba      	ldr	r2, [r7, #24]
 8003518:	4313      	orrs	r3, r2
 800351a:	61bb      	str	r3, [r7, #24]
                  );
    }

    /* Update Configuration Register CFGR */
    MODIFY_REG(hadc->Instance->CFGR, ADC_CFGR_FIELDS_1, tmp_cfgr);
 800351c:	687b      	ldr	r3, [r7, #4]
 800351e:	681b      	ldr	r3, [r3, #0]
 8003520:	68da      	ldr	r2, [r3, #12]
 8003522:	4b48      	ldr	r3, [pc, #288]	@ (8003644 <HAL_ADC_Init+0x304>)
 8003524:	4013      	ands	r3, r2
 8003526:	687a      	ldr	r2, [r7, #4]
 8003528:	6812      	ldr	r2, [r2, #0]
 800352a:	69b9      	ldr	r1, [r7, #24]
 800352c:	430b      	orrs	r3, r1
 800352e:	60d3      	str	r3, [r2, #12]

    /* Configuration of sampling mode */
    MODIFY_REG(hadc->Instance->CFGR2, ADC_CFGR2_BULB | ADC_CFGR2_SMPTRIG, hadc->Init.SamplingMode);
 8003530:	687b      	ldr	r3, [r7, #4]
 8003532:	681b      	ldr	r3, [r3, #0]
 8003534:	691b      	ldr	r3, [r3, #16]
 8003536:	f023 6140 	bic.w	r1, r3, #201326592	@ 0xc000000
 800353a:	687b      	ldr	r3, [r7, #4]
 800353c:	6b5a      	ldr	r2, [r3, #52]	@ 0x34
 800353e:	687b      	ldr	r3, [r7, #4]
 8003540:	681b      	ldr	r3, [r3, #0]
 8003542:	430a      	orrs	r2, r1
 8003544:	611a      	str	r2, [r3, #16]
    /* conversion on going on regular and injected groups:                    */
    /*  - Gain Compensation               Init.GainCompensation               */
    /*  - DMA continuous request          Init.DMAContinuousRequests          */
    /*  - LowPowerAutoWait feature        Init.LowPowerAutoWait               */
    /*  - Oversampling parameters         Init.Oversampling                   */
    tmp_adc_is_conversion_on_going_injected = LL_ADC_INJ_IsConversionOngoing(hadc->Instance);
 8003546:	687b      	ldr	r3, [r7, #4]
 8003548:	681b      	ldr	r3, [r3, #0]
 800354a:	4618      	mov	r0, r3
 800354c:	f7ff fee4 	bl	8003318 <LL_ADC_INJ_IsConversionOngoing>
 8003550:	6138      	str	r0, [r7, #16]
    if ((tmp_adc_is_conversion_on_going_regular == 0UL)
 8003552:	697b      	ldr	r3, [r7, #20]
 8003554:	2b00      	cmp	r3, #0
 8003556:	d17f      	bne.n	8003658 <HAL_ADC_Init+0x318>
        && (tmp_adc_is_conversion_on_going_injected == 0UL)
 8003558:	693b      	ldr	r3, [r7, #16]
 800355a:	2b00      	cmp	r3, #0
 800355c:	d17c      	bne.n	8003658 <HAL_ADC_Init+0x318>
       )
    {
      tmp_cfgr = (ADC_CFGR_DFSDM(hadc)                                            |
                   ADC_CFGR_AUTOWAIT((uint32_t)hadc->Init.LowPowerAutoWait)        |
 800355e:	687b      	ldr	r3, [r7, #4]
 8003560:	7f1b      	ldrb	r3, [r3, #28]
      tmp_cfgr = (ADC_CFGR_DFSDM(hadc)                                            |
 8003562:	039a      	lsls	r2, r3, #14
                   ADC_CFGR_DMACONTREQ((uint32_t)hadc->Init.DMAContinuousRequests));
 8003564:	687b      	ldr	r3, [r7, #4]
 8003566:	f893 3038 	ldrb.w	r3, [r3, #56]	@ 0x38
 800356a:	005b      	lsls	r3, r3, #1
      tmp_cfgr = (ADC_CFGR_DFSDM(hadc)                                            |
 800356c:	4313      	orrs	r3, r2
 800356e:	61bb      	str	r3, [r7, #24]

      MODIFY_REG(hadc->Instance->CFGR, ADC_CFGR_FIELDS_2, tmp_cfgr);
 8003570:	687b      	ldr	r3, [r7, #4]
 8003572:	681b      	ldr	r3, [r3, #0]
 8003574:	68db      	ldr	r3, [r3, #12]
 8003576:	f423 4380 	bic.w	r3, r3, #16384	@ 0x4000
 800357a:	f023 0302 	bic.w	r3, r3, #2
 800357e:	687a      	ldr	r2, [r7, #4]
 8003580:	6812      	ldr	r2, [r2, #0]
 8003582:	69b9      	ldr	r1, [r7, #24]
 8003584:	430b      	orrs	r3, r1
 8003586:	60d3      	str	r3, [r2, #12]

      if (hadc->Init.GainCompensation != 0UL)
 8003588:	687b      	ldr	r3, [r7, #4]
 800358a:	691b      	ldr	r3, [r3, #16]
 800358c:	2b00      	cmp	r3, #0
 800358e:	d017      	beq.n	80035c0 <HAL_ADC_Init+0x280>
      {
        SET_BIT(hadc->Instance->CFGR2, ADC_CFGR2_GCOMP);
 8003590:	687b      	ldr	r3, [r7, #4]
 8003592:	681b      	ldr	r3, [r3, #0]
 8003594:	691a      	ldr	r2, [r3, #16]
 8003596:	687b      	ldr	r3, [r7, #4]
 8003598:	681b      	ldr	r3, [r3, #0]
 800359a:	f442 3280 	orr.w	r2, r2, #65536	@ 0x10000
 800359e:	611a      	str	r2, [r3, #16]
        MODIFY_REG(hadc->Instance->GCOMP, ADC_GCOMP_GCOMPCOEFF, hadc->Init.GainCompensation);
 80035a0:	687b      	ldr	r3, [r7, #4]
 80035a2:	681b      	ldr	r3, [r3, #0]
 80035a4:	f8d3 30c0 	ldr.w	r3, [r3, #192]	@ 0xc0
 80035a8:	f423 537f 	bic.w	r3, r3, #16320	@ 0x3fc0
 80035ac:	f023 033f 	bic.w	r3, r3, #63	@ 0x3f
 80035b0:	687a      	ldr	r2, [r7, #4]
 80035b2:	6911      	ldr	r1, [r2, #16]
 80035b4:	687a      	ldr	r2, [r7, #4]
 80035b6:	6812      	ldr	r2, [r2, #0]
 80035b8:	430b      	orrs	r3, r1
 80035ba:	f8c2 30c0 	str.w	r3, [r2, #192]	@ 0xc0
 80035be:	e013      	b.n	80035e8 <HAL_ADC_Init+0x2a8>
      }
      else
      {
        CLEAR_BIT(hadc->Instance->CFGR2, ADC_CFGR2_GCOMP);
 80035c0:	687b      	ldr	r3, [r7, #4]
 80035c2:	681b      	ldr	r3, [r3, #0]
 80035c4:	691a      	ldr	r2, [r3, #16]
 80035c6:	687b      	ldr	r3, [r7, #4]
 80035c8:	681b      	ldr	r3, [r3, #0]
 80035ca:	f422 3280 	bic.w	r2, r2, #65536	@ 0x10000
 80035ce:	611a      	str	r2, [r3, #16]
        MODIFY_REG(hadc->Instance->GCOMP, ADC_GCOMP_GCOMPCOEFF, 0UL);
 80035d0:	687b      	ldr	r3, [r7, #4]
 80035d2:	681b      	ldr	r3, [r3, #0]
 80035d4:	f8d3 30c0 	ldr.w	r3, [r3, #192]	@ 0xc0
 80035d8:	687a      	ldr	r2, [r7, #4]
 80035da:	6812      	ldr	r2, [r2, #0]
 80035dc:	f423 537f 	bic.w	r3, r3, #16320	@ 0x3fc0
 80035e0:	f023 033f 	bic.w	r3, r3, #63	@ 0x3f
 80035e4:	f8c2 30c0 	str.w	r3, [r2, #192]	@ 0xc0
      }

      if (hadc->Init.OversamplingMode == ENABLE)
 80035e8:	687b      	ldr	r3, [r7, #4]
 80035ea:	f893 3040 	ldrb.w	r3, [r3, #64]	@ 0x40
 80035ee:	2b01      	cmp	r3, #1
 80035f0:	d12a      	bne.n	8003648 <HAL_ADC_Init+0x308>
        /* Configuration of Oversampler:                                      */
        /*  - Oversampling Ratio                                              */
        /*  - Right bit shift                                                 */
        /*  - Triggered mode                                                  */
        /*  - Oversampling mode (continued/resumed)                           */
        MODIFY_REG(hadc->Instance->CFGR2,
 80035f2:	687b      	ldr	r3, [r7, #4]
 80035f4:	681b      	ldr	r3, [r3, #0]
 80035f6:	691b      	ldr	r3, [r3, #16]
 80035f8:	f423 63ff 	bic.w	r3, r3, #2040	@ 0x7f8
 80035fc:	f023 0304 	bic.w	r3, r3, #4
 8003600:	687a      	ldr	r2, [r7, #4]
 8003602:	6c51      	ldr	r1, [r2, #68]	@ 0x44
 8003604:	687a      	ldr	r2, [r7, #4]
 8003606:	6c92      	ldr	r2, [r2, #72]	@ 0x48
 8003608:	4311      	orrs	r1, r2
 800360a:	687a      	ldr	r2, [r7, #4]
 800360c:	6cd2      	ldr	r2, [r2, #76]	@ 0x4c
 800360e:	4311      	orrs	r1, r2
 8003610:	687a      	ldr	r2, [r7, #4]
 8003612:	6d12      	ldr	r2, [r2, #80]	@ 0x50
 8003614:	430a      	orrs	r2, r1
 8003616:	431a      	orrs	r2, r3
 8003618:	687b      	ldr	r3, [r7, #4]
 800361a:	681b      	ldr	r3, [r3, #0]
 800361c:	f042 0201 	orr.w	r2, r2, #1
 8003620:	611a      	str	r2, [r3, #16]
 8003622:	e019      	b.n	8003658 <HAL_ADC_Init+0x318>
 8003624:	20000008 	.word	0x20000008
 8003628:	053e2d63 	.word	0x053e2d63
 800362c:	50000100 	.word	0x50000100
 8003630:	50000400 	.word	0x50000400
 8003634:	50000500 	.word	0x50000500
 8003638:	50000600 	.word	0x50000600
 800363c:	50000300 	.word	0x50000300
 8003640:	50000700 	.word	0x50000700
 8003644:	fff04007 	.word	0xfff04007
                  );
      }
      else
      {
        /* Disable ADC oversampling scope on ADC group regular */
        CLEAR_BIT(hadc->Instance->CFGR2, ADC_CFGR2_ROVSE);
 8003648:	687b      	ldr	r3, [r7, #4]
 800364a:	681b      	ldr	r3, [r3, #0]
 800364c:	691a      	ldr	r2, [r3, #16]
 800364e:	687b      	ldr	r3, [r7, #4]
 8003650:	681b      	ldr	r3, [r3, #0]
 8003652:	f022 0201 	bic.w	r2, r2, #1
 8003656:	611a      	str	r2, [r3, #16]
    /*   Note: Scan mode is not present by hardware on this device, but       */
    /*   emulated by software for alignment over all STM32 devices.           */
    /* - if scan mode is enabled, regular channels sequence length is set to  */
    /*   parameter "NbrOfConversion".                                         */

    if (hadc->Init.ScanConvMode == ADC_SCAN_ENABLE)
 8003658:	687b      	ldr	r3, [r7, #4]
 800365a:	695b      	ldr	r3, [r3, #20]
 800365c:	2b01      	cmp	r3, #1
 800365e:	d10c      	bne.n	800367a <HAL_ADC_Init+0x33a>
    {
      /* Set number of ranks in regular group sequencer */
      MODIFY_REG(hadc->Instance->SQR1, ADC_SQR1_L, (hadc->Init.NbrOfConversion - (uint8_t)1));
 8003660:	687b      	ldr	r3, [r7, #4]
 8003662:	681b      	ldr	r3, [r3, #0]
 8003664:	6b1b      	ldr	r3, [r3, #48]	@ 0x30
 8003666:	f023 010f 	bic.w	r1, r3, #15
 800366a:	687b      	ldr	r3, [r7, #4]
 800366c:	6a1b      	ldr	r3, [r3, #32]
 800366e:	1e5a      	subs	r2, r3, #1
 8003670:	687b      	ldr	r3, [r7, #4]
 8003672:	681b      	ldr	r3, [r3, #0]
 8003674:	430a      	orrs	r2, r1
 8003676:	631a      	str	r2, [r3, #48]	@ 0x30
 8003678:	e007      	b.n	800368a <HAL_ADC_Init+0x34a>
    }
    else
    {
      CLEAR_BIT(hadc->Instance->SQR1, ADC_SQR1_L);
 800367a:	687b      	ldr	r3, [r7, #4]
 800367c:	681b      	ldr	r3, [r3, #0]
 800367e:	6b1a      	ldr	r2, [r3, #48]	@ 0x30
 8003680:	687b      	ldr	r3, [r7, #4]
 8003682:	681b      	ldr	r3, [r3, #0]
 8003684:	f022 020f 	bic.w	r2, r2, #15
 8003688:	631a      	str	r2, [r3, #48]	@ 0x30
    }

    /* Initialize the ADC state */
    /* Clear HAL_ADC_STATE_BUSY_INTERNAL bit, set HAL_ADC_STATE_READY bit */
    ADC_STATE_CLR_SET(hadc->State, HAL_ADC_STATE_BUSY_INTERNAL, HAL_ADC_STATE_READY);
 800368a:	687b      	ldr	r3, [r7, #4]
 800368c:	6ddb      	ldr	r3, [r3, #92]	@ 0x5c
 800368e:	f023 0303 	bic.w	r3, r3, #3
 8003692:	f043 0201 	orr.w	r2, r3, #1
 8003696:	687b      	ldr	r3, [r7, #4]
 8003698:	65da      	str	r2, [r3, #92]	@ 0x5c
 800369a:	e007      	b.n	80036ac <HAL_ADC_Init+0x36c>
  }
  else
  {
    /* Update ADC state machine to error */
    SET_BIT(hadc->State, HAL_ADC_STATE_ERROR_INTERNAL);
 800369c:	687b      	ldr	r3, [r7, #4]
 800369e:	6ddb      	ldr	r3, [r3, #92]	@ 0x5c
 80036a0:	f043 0210 	orr.w	r2, r3, #16
 80036a4:	687b      	ldr	r3, [r7, #4]
 80036a6:	65da      	str	r2, [r3, #92]	@ 0x5c

    tmp_hal_status = HAL_ERROR;
 80036a8:	2301      	movs	r3, #1
 80036aa:	77fb      	strb	r3, [r7, #31]
  }

  /* Return function status */
  return tmp_hal_status;
 80036ac:	7ffb      	ldrb	r3, [r7, #31]
}
 80036ae:	4618      	mov	r0, r3
 80036b0:	3724      	adds	r7, #36	@ 0x24
 80036b2:	46bd      	mov	sp, r7
 80036b4:	bd90      	pop	{r4, r7, pc}
 80036b6:	bf00      	nop

080036b8 <HAL_ADC_ConfigChannel>:
  * @param hadc ADC handle
  * @param pConfig Structure of ADC channel assigned to ADC group regular.
  * @retval HAL status
  */
HAL_StatusTypeDef HAL_ADC_ConfigChannel(ADC_HandleTypeDef *hadc, const ADC_ChannelConfTypeDef *pConfig)
{
 80036b8:	b580      	push	{r7, lr}
 80036ba:	b0b6      	sub	sp, #216	@ 0xd8
 80036bc:	af00      	add	r7, sp, #0
 80036be:	6078      	str	r0, [r7, #4]
 80036c0:	6039      	str	r1, [r7, #0]
  HAL_StatusTypeDef tmp_hal_status = HAL_OK;
 80036c2:	2300      	movs	r3, #0
 80036c4:	f887 30d7 	strb.w	r3, [r7, #215]	@ 0xd7
  uint32_t tmpOffsetShifted;
  uint32_t tmp_config_internal_channel;
  __IO uint32_t wait_loop_index = 0UL;
 80036c8:	2300      	movs	r3, #0
 80036ca:	60fb      	str	r3, [r7, #12]
  {
    assert_param(IS_ADC_DIFF_CHANNEL(hadc, pConfig->Channel));
  }

  /* Process locked */
  __HAL_LOCK(hadc);
 80036cc:	687b      	ldr	r3, [r7, #4]
 80036ce:	f893 3058 	ldrb.w	r3, [r3, #88]	@ 0x58
 80036d2:	2b01      	cmp	r3, #1
 80036d4:	d102      	bne.n	80036dc <HAL_ADC_ConfigChannel+0x24>
 80036d6:	2302      	movs	r3, #2
 80036d8:	f000 bc13 	b.w	8003f02 <HAL_ADC_ConfigChannel+0x84a>
 80036dc:	687b      	ldr	r3, [r7, #4]
 80036de:	2201      	movs	r2, #1
 80036e0:	f883 2058 	strb.w	r2, [r3, #88]	@ 0x58
  /* Parameters update conditioned to ADC state:                              */
  /* Parameters that can be updated when ADC is disabled or enabled without   */
  /* conversion on going on regular group:                                    */
  /*  - Channel number                                                        */
  /*  - Channel rank                                                          */
  if (LL_ADC_REG_IsConversionOngoing(hadc->Instance) == 0UL)
 80036e4:	687b      	ldr	r3, [r7, #4]
 80036e6:	681b      	ldr	r3, [r3, #0]
 80036e8:	4618      	mov	r0, r3
 80036ea:	f7ff fe02 	bl	80032f2 <LL_ADC_REG_IsConversionOngoing>
 80036ee:	4603      	mov	r3, r0
 80036f0:	2b00      	cmp	r3, #0
 80036f2:	f040 83f3 	bne.w	8003edc <HAL_ADC_ConfigChannel+0x824>
  {
    /* Set ADC group regular sequence: channel on the selected scan sequence rank */
    LL_ADC_REG_SetSequencerRanks(hadc->Instance, pConfig->Rank, pConfig->Channel);
 80036f6:	687b      	ldr	r3, [r7, #4]
 80036f8:	6818      	ldr	r0, [r3, #0]
 80036fa:	683b      	ldr	r3, [r7, #0]
 80036fc:	6859      	ldr	r1, [r3, #4]
 80036fe:	683b      	ldr	r3, [r7, #0]
 8003700:	681b      	ldr	r3, [r3, #0]
 8003702:	461a      	mov	r2, r3
 8003704:	f7ff fd18 	bl	8003138 <LL_ADC_REG_SetSequencerRanks>
    /* Parameters update conditioned to ADC state:                              */
    /* Parameters that can be updated when ADC is disabled or enabled without   */
    /* conversion on going on regular group:                                    */
    /*  - Channel sampling time                                                 */
    /*  - Channel offset                                                        */
    tmp_adc_is_conversion_on_going_regular = LL_ADC_REG_IsConversionOngoing(hadc->Instance);
 8003708:	687b      	ldr	r3, [r7, #4]
 800370a:	681b      	ldr	r3, [r3, #0]
 800370c:	4618      	mov	r0, r3
 800370e:	f7ff fdf0 	bl	80032f2 <LL_ADC_REG_IsConversionOngoing>
 8003712:	f8c7 00d0 	str.w	r0, [r7, #208]	@ 0xd0
    tmp_adc_is_conversion_on_going_injected = LL_ADC_INJ_IsConversionOngoing(hadc->Instance);
 8003716:	687b      	ldr	r3, [r7, #4]
 8003718:	681b      	ldr	r3, [r3, #0]
 800371a:	4618      	mov	r0, r3
 800371c:	f7ff fdfc 	bl	8003318 <LL_ADC_INJ_IsConversionOngoing>
 8003720:	f8c7 00cc 	str.w	r0, [r7, #204]	@ 0xcc
    if ((tmp_adc_is_conversion_on_going_regular == 0UL)
 8003724:	f8d7 30d0 	ldr.w	r3, [r7, #208]	@ 0xd0
 8003728:	2b00      	cmp	r3, #0
 800372a:	f040 81d9 	bne.w	8003ae0 <HAL_ADC_ConfigChannel+0x428>
        && (tmp_adc_is_conversion_on_going_injected == 0UL)
 800372e:	f8d7 30cc 	ldr.w	r3, [r7, #204]	@ 0xcc
 8003732:	2b00      	cmp	r3, #0
 8003734:	f040 81d4 	bne.w	8003ae0 <HAL_ADC_ConfigChannel+0x428>
       )
    {
      /* Manage specific case of sampling time 3.5 cycles replacing 2.5 cyles */
      if (pConfig->SamplingTime == ADC_SAMPLETIME_3CYCLES_5)
 8003738:	683b      	ldr	r3, [r7, #0]
 800373a:	689b      	ldr	r3, [r3, #8]
 800373c:	f1b3 4f00 	cmp.w	r3, #2147483648	@ 0x80000000
 8003740:	d10f      	bne.n	8003762 <HAL_ADC_ConfigChannel+0xaa>
      {
        /* Set sampling time of the selected ADC channel */
        LL_ADC_SetChannelSamplingTime(hadc->Instance, pConfig->Channel, LL_ADC_SAMPLINGTIME_2CYCLES_5);
 8003742:	687b      	ldr	r3, [r7, #4]
 8003744:	6818      	ldr	r0, [r3, #0]
 8003746:	683b      	ldr	r3, [r7, #0]
 8003748:	681b      	ldr	r3, [r3, #0]
 800374a:	2200      	movs	r2, #0
 800374c:	4619      	mov	r1, r3
 800374e:	f7ff fd1f 	bl	8003190 <LL_ADC_SetChannelSamplingTime>

        /* Set ADC sampling time common configuration */
        LL_ADC_SetSamplingTimeCommonConfig(hadc->Instance, LL_ADC_SAMPLINGTIME_COMMON_3C5_REPL_2C5);
 8003752:	687b      	ldr	r3, [r7, #4]
 8003754:	681b      	ldr	r3, [r3, #0]
 8003756:	f04f 4100 	mov.w	r1, #2147483648	@ 0x80000000
 800375a:	4618      	mov	r0, r3
 800375c:	f7ff fcd9 	bl	8003112 <LL_ADC_SetSamplingTimeCommonConfig>
 8003760:	e00e      	b.n	8003780 <HAL_ADC_ConfigChannel+0xc8>
      }
      else
      {
        /* Set sampling time of the selected ADC channel */
        LL_ADC_SetChannelSamplingTime(hadc->Instance, pConfig->Channel, pConfig->SamplingTime);
 8003762:	687b      	ldr	r3, [r7, #4]
 8003764:	6818      	ldr	r0, [r3, #0]
 8003766:	683b      	ldr	r3, [r7, #0]
 8003768:	6819      	ldr	r1, [r3, #0]
 800376a:	683b      	ldr	r3, [r7, #0]
 800376c:	689b      	ldr	r3, [r3, #8]
 800376e:	461a      	mov	r2, r3
 8003770:	f7ff fd0e 	bl	8003190 <LL_ADC_SetChannelSamplingTime>

        /* Set ADC sampling time common configuration */
        LL_ADC_SetSamplingTimeCommonConfig(hadc->Instance, LL_ADC_SAMPLINGTIME_COMMON_DEFAULT);
 8003774:	687b      	ldr	r3, [r7, #4]
 8003776:	681b      	ldr	r3, [r3, #0]
 8003778:	2100      	movs	r1, #0
 800377a:	4618      	mov	r0, r3
 800377c:	f7ff fcc9 	bl	8003112 <LL_ADC_SetSamplingTimeCommonConfig>

      /* Configure the offset: offset enable/disable, channel, offset value */

      /* Shift the offset with respect to the selected ADC resolution. */
      /* Offset has to be left-aligned on bit 11, the LSB (right bits) are set to 0 */
      tmpOffsetShifted = ADC_OFFSET_SHIFT_RESOLUTION(hadc, (uint32_t)pConfig->Offset);
 8003780:	683b      	ldr	r3, [r7, #0]
 8003782:	695a      	ldr	r2, [r3, #20]
 8003784:	687b      	ldr	r3, [r7, #4]
 8003786:	681b      	ldr	r3, [r3, #0]
 8003788:	68db      	ldr	r3, [r3, #12]
 800378a:	08db      	lsrs	r3, r3, #3
 800378c:	f003 0303 	and.w	r3, r3, #3
 8003790:	005b      	lsls	r3, r3, #1
 8003792:	fa02 f303 	lsl.w	r3, r2, r3
 8003796:	f8c7 30c8 	str.w	r3, [r7, #200]	@ 0xc8

      if (pConfig->OffsetNumber != ADC_OFFSET_NONE)
 800379a:	683b      	ldr	r3, [r7, #0]
 800379c:	691b      	ldr	r3, [r3, #16]
 800379e:	2b04      	cmp	r3, #4
 80037a0:	d022      	beq.n	80037e8 <HAL_ADC_ConfigChannel+0x130>
      {
        /* Set ADC selected offset number */
        LL_ADC_SetOffset(hadc->Instance, pConfig->OffsetNumber, pConfig->Channel, tmpOffsetShifted);
 80037a2:	687b      	ldr	r3, [r7, #4]
 80037a4:	6818      	ldr	r0, [r3, #0]
 80037a6:	683b      	ldr	r3, [r7, #0]
 80037a8:	6919      	ldr	r1, [r3, #16]
 80037aa:	683b      	ldr	r3, [r7, #0]
 80037ac:	681a      	ldr	r2, [r3, #0]
 80037ae:	f8d7 30c8 	ldr.w	r3, [r7, #200]	@ 0xc8
 80037b2:	f7ff fc23 	bl	8002ffc <LL_ADC_SetOffset>

        assert_param(IS_ADC_OFFSET_SIGN(pConfig->OffsetSign));
        assert_param(IS_FUNCTIONAL_STATE(pConfig->OffsetSaturation));
        /* Set ADC selected offset sign & saturation */
        LL_ADC_SetOffsetSign(hadc->Instance, pConfig->OffsetNumber, pConfig->OffsetSign);
 80037b6:	687b      	ldr	r3, [r7, #4]
 80037b8:	6818      	ldr	r0, [r3, #0]
 80037ba:	683b      	ldr	r3, [r7, #0]
 80037bc:	6919      	ldr	r1, [r3, #16]
 80037be:	683b      	ldr	r3, [r7, #0]
 80037c0:	699b      	ldr	r3, [r3, #24]
 80037c2:	461a      	mov	r2, r3
 80037c4:	f7ff fc6f 	bl	80030a6 <LL_ADC_SetOffsetSign>
        LL_ADC_SetOffsetSaturation(hadc->Instance, pConfig->OffsetNumber,
 80037c8:	687b      	ldr	r3, [r7, #4]
 80037ca:	6818      	ldr	r0, [r3, #0]
 80037cc:	683b      	ldr	r3, [r7, #0]
 80037ce:	6919      	ldr	r1, [r3, #16]
                                   (pConfig->OffsetSaturation == ENABLE) ?
 80037d0:	683b      	ldr	r3, [r7, #0]
 80037d2:	7f1b      	ldrb	r3, [r3, #28]
        LL_ADC_SetOffsetSaturation(hadc->Instance, pConfig->OffsetNumber,
 80037d4:	2b01      	cmp	r3, #1
 80037d6:	d102      	bne.n	80037de <HAL_ADC_ConfigChannel+0x126>
 80037d8:	f04f 7300 	mov.w	r3, #33554432	@ 0x2000000
 80037dc:	e000      	b.n	80037e0 <HAL_ADC_ConfigChannel+0x128>
 80037de:	2300      	movs	r3, #0
 80037e0:	461a      	mov	r2, r3
 80037e2:	f7ff fc7b 	bl	80030dc <LL_ADC_SetOffsetSaturation>
 80037e6:	e17b      	b.n	8003ae0 <HAL_ADC_ConfigChannel+0x428>
      }
      else
      {
        /* Scan each offset register to check if the selected channel is targeted. */
        /* If this is the case, the corresponding offset number is disabled.       */
        if (__LL_ADC_CHANNEL_TO_DECIMAL_NB(LL_ADC_GetOffsetChannel(hadc->Instance, LL_ADC_OFFSET_1))
 80037e8:	687b      	ldr	r3, [r7, #4]
 80037ea:	681b      	ldr	r3, [r3, #0]
 80037ec:	2100      	movs	r1, #0
 80037ee:	4618      	mov	r0, r3
 80037f0:	f7ff fc28 	bl	8003044 <LL_ADC_GetOffsetChannel>
 80037f4:	4603      	mov	r3, r0
 80037f6:	f3c3 0312 	ubfx	r3, r3, #0, #19
 80037fa:	2b00      	cmp	r3, #0
 80037fc:	d10a      	bne.n	8003814 <HAL_ADC_ConfigChannel+0x15c>
 80037fe:	687b      	ldr	r3, [r7, #4]
 8003800:	681b      	ldr	r3, [r3, #0]
 8003802:	2100      	movs	r1, #0
 8003804:	4618      	mov	r0, r3
 8003806:	f7ff fc1d 	bl	8003044 <LL_ADC_GetOffsetChannel>
 800380a:	4603      	mov	r3, r0
 800380c:	0e9b      	lsrs	r3, r3, #26
 800380e:	f003 021f 	and.w	r2, r3, #31
 8003812:	e01e      	b.n	8003852 <HAL_ADC_ConfigChannel+0x19a>
 8003814:	687b      	ldr	r3, [r7, #4]
 8003816:	681b      	ldr	r3, [r3, #0]
 8003818:	2100      	movs	r1, #0
 800381a:	4618      	mov	r0, r3
 800381c:	f7ff fc12 	bl	8003044 <LL_ADC_GetOffsetChannel>
 8003820:	4603      	mov	r3, r0
 8003822:	f8c7 30bc 	str.w	r3, [r7, #188]	@ 0xbc
  uint32_t result;

#if ((defined (__ARM_ARCH_7M__      ) && (__ARM_ARCH_7M__      == 1)) || \
     (defined (__ARM_ARCH_7EM__     ) && (__ARM_ARCH_7EM__     == 1)) || \
     (defined (__ARM_ARCH_8M_MAIN__ ) && (__ARM_ARCH_8M_MAIN__ == 1))    )
   __ASM volatile ("rbit %0, %1" : "=r" (result) : "r" (value) );
 8003826:	f8d7 30bc 	ldr.w	r3, [r7, #188]	@ 0xbc
 800382a:	fa93 f3a3 	rbit	r3, r3
 800382e:	f8c7 30c0 	str.w	r3, [r7, #192]	@ 0xc0
    result |= value & 1U;
    s--;
  }
  result <<= s;                        /* shift when v's highest bits are zero */
#endif
  return result;
 8003832:	f8d7 30c0 	ldr.w	r3, [r7, #192]	@ 0xc0
 8003836:	f8c7 30b8 	str.w	r3, [r7, #184]	@ 0xb8
     optimisations using the logic "value was passed to __builtin_clz, so it
     is non-zero".
     ARM GCC 7.3 and possibly earlier will optimise this test away, leaving a
     single CLZ instruction.
   */
  if (value == 0U)
 800383a:	f8d7 30b8 	ldr.w	r3, [r7, #184]	@ 0xb8
 800383e:	2b00      	cmp	r3, #0
 8003840:	d101      	bne.n	8003846 <HAL_ADC_ConfigChannel+0x18e>
  {
    return 32U;
 8003842:	2320      	movs	r3, #32
 8003844:	e004      	b.n	8003850 <HAL_ADC_ConfigChannel+0x198>
  }
  return __builtin_clz(value);
 8003846:	f8d7 30b8 	ldr.w	r3, [r7, #184]	@ 0xb8
 800384a:	fab3 f383 	clz	r3, r3
 800384e:	b2db      	uxtb	r3, r3
 8003850:	461a      	mov	r2, r3
            == __LL_ADC_CHANNEL_TO_DECIMAL_NB(pConfig->Channel))
 8003852:	683b      	ldr	r3, [r7, #0]
 8003854:	681b      	ldr	r3, [r3, #0]
 8003856:	f3c3 0312 	ubfx	r3, r3, #0, #19
 800385a:	2b00      	cmp	r3, #0
 800385c:	d105      	bne.n	800386a <HAL_ADC_ConfigChannel+0x1b2>
 800385e:	683b      	ldr	r3, [r7, #0]
 8003860:	681b      	ldr	r3, [r3, #0]
 8003862:	0e9b      	lsrs	r3, r3, #26
 8003864:	f003 031f 	and.w	r3, r3, #31
 8003868:	e018      	b.n	800389c <HAL_ADC_ConfigChannel+0x1e4>
 800386a:	683b      	ldr	r3, [r7, #0]
 800386c:	681b      	ldr	r3, [r3, #0]
 800386e:	f8c7 30b0 	str.w	r3, [r7, #176]	@ 0xb0
   __ASM volatile ("rbit %0, %1" : "=r" (result) : "r" (value) );
 8003872:	f8d7 30b0 	ldr.w	r3, [r7, #176]	@ 0xb0
 8003876:	fa93 f3a3 	rbit	r3, r3
 800387a:	f8c7 30ac 	str.w	r3, [r7, #172]	@ 0xac
  return result;
 800387e:	f8d7 30ac 	ldr.w	r3, [r7, #172]	@ 0xac
 8003882:	f8c7 30b4 	str.w	r3, [r7, #180]	@ 0xb4
  if (value == 0U)
 8003886:	f8d7 30b4 	ldr.w	r3, [r7, #180]	@ 0xb4
 800388a:	2b00      	cmp	r3, #0
 800388c:	d101      	bne.n	8003892 <HAL_ADC_ConfigChannel+0x1da>
    return 32U;
 800388e:	2320      	movs	r3, #32
 8003890:	e004      	b.n	800389c <HAL_ADC_ConfigChannel+0x1e4>
  return __builtin_clz(value);
 8003892:	f8d7 30b4 	ldr.w	r3, [r7, #180]	@ 0xb4
 8003896:	fab3 f383 	clz	r3, r3
 800389a:	b2db      	uxtb	r3, r3
        if (__LL_ADC_CHANNEL_TO_DECIMAL_NB(LL_ADC_GetOffsetChannel(hadc->Instance, LL_ADC_OFFSET_1))
 800389c:	429a      	cmp	r2, r3
 800389e:	d106      	bne.n	80038ae <HAL_ADC_ConfigChannel+0x1f6>
        {
          LL_ADC_SetOffsetState(hadc->Instance, LL_ADC_OFFSET_1, LL_ADC_OFFSET_DISABLE);
 80038a0:	687b      	ldr	r3, [r7, #4]
 80038a2:	681b      	ldr	r3, [r3, #0]
 80038a4:	2200      	movs	r2, #0
 80038a6:	2100      	movs	r1, #0
 80038a8:	4618      	mov	r0, r3
 80038aa:	f7ff fbe1 	bl	8003070 <LL_ADC_SetOffsetState>
        }
        if (__LL_ADC_CHANNEL_TO_DECIMAL_NB(LL_ADC_GetOffsetChannel(hadc->Instance, LL_ADC_OFFSET_2))
 80038ae:	687b      	ldr	r3, [r7, #4]
 80038b0:	681b      	ldr	r3, [r3, #0]
 80038b2:	2101      	movs	r1, #1
 80038b4:	4618      	mov	r0, r3
 80038b6:	f7ff fbc5 	bl	8003044 <LL_ADC_GetOffsetChannel>
 80038ba:	4603      	mov	r3, r0
 80038bc:	f3c3 0312 	ubfx	r3, r3, #0, #19
 80038c0:	2b00      	cmp	r3, #0
 80038c2:	d10a      	bne.n	80038da <HAL_ADC_ConfigChannel+0x222>
 80038c4:	687b      	ldr	r3, [r7, #4]
 80038c6:	681b      	ldr	r3, [r3, #0]
 80038c8:	2101      	movs	r1, #1
 80038ca:	4618      	mov	r0, r3
 80038cc:	f7ff fbba 	bl	8003044 <LL_ADC_GetOffsetChannel>
 80038d0:	4603      	mov	r3, r0
 80038d2:	0e9b      	lsrs	r3, r3, #26
 80038d4:	f003 021f 	and.w	r2, r3, #31
 80038d8:	e01e      	b.n	8003918 <HAL_ADC_ConfigChannel+0x260>
 80038da:	687b      	ldr	r3, [r7, #4]
 80038dc:	681b      	ldr	r3, [r3, #0]
 80038de:	2101      	movs	r1, #1
 80038e0:	4618      	mov	r0, r3
 80038e2:	f7ff fbaf 	bl	8003044 <LL_ADC_GetOffsetChannel>
 80038e6:	4603      	mov	r3, r0
 80038e8:	f8c7 30a4 	str.w	r3, [r7, #164]	@ 0xa4
   __ASM volatile ("rbit %0, %1" : "=r" (result) : "r" (value) );
 80038ec:	f8d7 30a4 	ldr.w	r3, [r7, #164]	@ 0xa4
 80038f0:	fa93 f3a3 	rbit	r3, r3
 80038f4:	f8c7 30a0 	str.w	r3, [r7, #160]	@ 0xa0
  return result;
 80038f8:	f8d7 30a0 	ldr.w	r3, [r7, #160]	@ 0xa0
 80038fc:	f8c7 30a8 	str.w	r3, [r7, #168]	@ 0xa8
  if (value == 0U)
 8003900:	f8d7 30a8 	ldr.w	r3, [r7, #168]	@ 0xa8
 8003904:	2b00      	cmp	r3, #0
 8003906:	d101      	bne.n	800390c <HAL_ADC_ConfigChannel+0x254>
    return 32U;
 8003908:	2320      	movs	r3, #32
 800390a:	e004      	b.n	8003916 <HAL_ADC_ConfigChannel+0x25e>
  return __builtin_clz(value);
 800390c:	f8d7 30a8 	ldr.w	r3, [r7, #168]	@ 0xa8
 8003910:	fab3 f383 	clz	r3, r3
 8003914:	b2db      	uxtb	r3, r3
 8003916:	461a      	mov	r2, r3
            == __LL_ADC_CHANNEL_TO_DECIMAL_NB(pConfig->Channel))
 8003918:	683b      	ldr	r3, [r7, #0]
 800391a:	681b      	ldr	r3, [r3, #0]
 800391c:	f3c3 0312 	ubfx	r3, r3, #0, #19
 8003920:	2b00      	cmp	r3, #0
 8003922:	d105      	bne.n	8003930 <HAL_ADC_ConfigChannel+0x278>
 8003924:	683b      	ldr	r3, [r7, #0]
 8003926:	681b      	ldr	r3, [r3, #0]
 8003928:	0e9b      	lsrs	r3, r3, #26
 800392a:	f003 031f 	and.w	r3, r3, #31
 800392e:	e018      	b.n	8003962 <HAL_ADC_ConfigChannel+0x2aa>
 8003930:	683b      	ldr	r3, [r7, #0]
 8003932:	681b      	ldr	r3, [r3, #0]
 8003934:	f8c7 3098 	str.w	r3, [r7, #152]	@ 0x98
   __ASM volatile ("rbit %0, %1" : "=r" (result) : "r" (value) );
 8003938:	f8d7 3098 	ldr.w	r3, [r7, #152]	@ 0x98
 800393c:	fa93 f3a3 	rbit	r3, r3
 8003940:	f8c7 3094 	str.w	r3, [r7, #148]	@ 0x94
  return result;
 8003944:	f8d7 3094 	ldr.w	r3, [r7, #148]	@ 0x94
 8003948:	f8c7 309c 	str.w	r3, [r7, #156]	@ 0x9c
  if (value == 0U)
 800394c:	f8d7 309c 	ldr.w	r3, [r7, #156]	@ 0x9c
 8003950:	2b00      	cmp	r3, #0
 8003952:	d101      	bne.n	8003958 <HAL_ADC_ConfigChannel+0x2a0>
    return 32U;
 8003954:	2320      	movs	r3, #32
 8003956:	e004      	b.n	8003962 <HAL_ADC_ConfigChannel+0x2aa>
  return __builtin_clz(value);
 8003958:	f8d7 309c 	ldr.w	r3, [r7, #156]	@ 0x9c
 800395c:	fab3 f383 	clz	r3, r3
 8003960:	b2db      	uxtb	r3, r3
        if (__LL_ADC_CHANNEL_TO_DECIMAL_NB(LL_ADC_GetOffsetChannel(hadc->Instance, LL_ADC_OFFSET_2))
 8003962:	429a      	cmp	r2, r3
 8003964:	d106      	bne.n	8003974 <HAL_ADC_ConfigChannel+0x2bc>
        {
          LL_ADC_SetOffsetState(hadc->Instance, LL_ADC_OFFSET_2, LL_ADC_OFFSET_DISABLE);
 8003966:	687b      	ldr	r3, [r7, #4]
 8003968:	681b      	ldr	r3, [r3, #0]
 800396a:	2200      	movs	r2, #0
 800396c:	2101      	movs	r1, #1
 800396e:	4618      	mov	r0, r3
 8003970:	f7ff fb7e 	bl	8003070 <LL_ADC_SetOffsetState>
        }
        if (__LL_ADC_CHANNEL_TO_DECIMAL_NB(LL_ADC_GetOffsetChannel(hadc->Instance, LL_ADC_OFFSET_3))
 8003974:	687b      	ldr	r3, [r7, #4]
 8003976:	681b      	ldr	r3, [r3, #0]
 8003978:	2102      	movs	r1, #2
 800397a:	4618      	mov	r0, r3
 800397c:	f7ff fb62 	bl	8003044 <LL_ADC_GetOffsetChannel>
 8003980:	4603      	mov	r3, r0
 8003982:	f3c3 0312 	ubfx	r3, r3, #0, #19
 8003986:	2b00      	cmp	r3, #0
 8003988:	d10a      	bne.n	80039a0 <HAL_ADC_ConfigChannel+0x2e8>
 800398a:	687b      	ldr	r3, [r7, #4]
 800398c:	681b      	ldr	r3, [r3, #0]
 800398e:	2102      	movs	r1, #2
 8003990:	4618      	mov	r0, r3
 8003992:	f7ff fb57 	bl	8003044 <LL_ADC_GetOffsetChannel>
 8003996:	4603      	mov	r3, r0
 8003998:	0e9b      	lsrs	r3, r3, #26
 800399a:	f003 021f 	and.w	r2, r3, #31
 800399e:	e01e      	b.n	80039de <HAL_ADC_ConfigChannel+0x326>
 80039a0:	687b      	ldr	r3, [r7, #4]
 80039a2:	681b      	ldr	r3, [r3, #0]
 80039a4:	2102      	movs	r1, #2
 80039a6:	4618      	mov	r0, r3
 80039a8:	f7ff fb4c 	bl	8003044 <LL_ADC_GetOffsetChannel>
 80039ac:	4603      	mov	r3, r0
 80039ae:	f8c7 308c 	str.w	r3, [r7, #140]	@ 0x8c
   __ASM volatile ("rbit %0, %1" : "=r" (result) : "r" (value) );
 80039b2:	f8d7 308c 	ldr.w	r3, [r7, #140]	@ 0x8c
 80039b6:	fa93 f3a3 	rbit	r3, r3
 80039ba:	f8c7 3088 	str.w	r3, [r7, #136]	@ 0x88
  return result;
 80039be:	f8d7 3088 	ldr.w	r3, [r7, #136]	@ 0x88
 80039c2:	f8c7 3090 	str.w	r3, [r7, #144]	@ 0x90
  if (value == 0U)
 80039c6:	f8d7 3090 	ldr.w	r3, [r7, #144]	@ 0x90
 80039ca:	2b00      	cmp	r3, #0
 80039cc:	d101      	bne.n	80039d2 <HAL_ADC_ConfigChannel+0x31a>
    return 32U;
 80039ce:	2320      	movs	r3, #32
 80039d0:	e004      	b.n	80039dc <HAL_ADC_ConfigChannel+0x324>
  return __builtin_clz(value);
 80039d2:	f8d7 3090 	ldr.w	r3, [r7, #144]	@ 0x90
 80039d6:	fab3 f383 	clz	r3, r3
 80039da:	b2db      	uxtb	r3, r3
 80039dc:	461a      	mov	r2, r3
            == __LL_ADC_CHANNEL_TO_DECIMAL_NB(pConfig->Channel))
 80039de:	683b      	ldr	r3, [r7, #0]
 80039e0:	681b      	ldr	r3, [r3, #0]
 80039e2:	f3c3 0312 	ubfx	r3, r3, #0, #19
 80039e6:	2b00      	cmp	r3, #0
 80039e8:	d105      	bne.n	80039f6 <HAL_ADC_ConfigChannel+0x33e>
 80039ea:	683b      	ldr	r3, [r7, #0]
 80039ec:	681b      	ldr	r3, [r3, #0]
 80039ee:	0e9b      	lsrs	r3, r3, #26
 80039f0:	f003 031f 	and.w	r3, r3, #31
 80039f4:	e016      	b.n	8003a24 <HAL_ADC_ConfigChannel+0x36c>
 80039f6:	683b      	ldr	r3, [r7, #0]
 80039f8:	681b      	ldr	r3, [r3, #0]
 80039fa:	f8c7 3080 	str.w	r3, [r7, #128]	@ 0x80
   __ASM volatile ("rbit %0, %1" : "=r" (result) : "r" (value) );
 80039fe:	f8d7 3080 	ldr.w	r3, [r7, #128]	@ 0x80
 8003a02:	fa93 f3a3 	rbit	r3, r3
 8003a06:	67fb      	str	r3, [r7, #124]	@ 0x7c
  return result;
 8003a08:	6ffb      	ldr	r3, [r7, #124]	@ 0x7c
 8003a0a:	f8c7 3084 	str.w	r3, [r7, #132]	@ 0x84
  if (value == 0U)
 8003a0e:	f8d7 3084 	ldr.w	r3, [r7, #132]	@ 0x84
 8003a12:	2b00      	cmp	r3, #0
 8003a14:	d101      	bne.n	8003a1a <HAL_ADC_ConfigChannel+0x362>
    return 32U;
 8003a16:	2320      	movs	r3, #32
 8003a18:	e004      	b.n	8003a24 <HAL_ADC_ConfigChannel+0x36c>
  return __builtin_clz(value);
 8003a1a:	f8d7 3084 	ldr.w	r3, [r7, #132]	@ 0x84
 8003a1e:	fab3 f383 	clz	r3, r3
 8003a22:	b2db      	uxtb	r3, r3
        if (__LL_ADC_CHANNEL_TO_DECIMAL_NB(LL_ADC_GetOffsetChannel(hadc->Instance, LL_ADC_OFFSET_3))
 8003a24:	429a      	cmp	r2, r3
 8003a26:	d106      	bne.n	8003a36 <HAL_ADC_ConfigChannel+0x37e>
        {
          LL_ADC_SetOffsetState(hadc->Instance, LL_ADC_OFFSET_3, LL_ADC_OFFSET_DISABLE);
 8003a28:	687b      	ldr	r3, [r7, #4]
 8003a2a:	681b      	ldr	r3, [r3, #0]
 8003a2c:	2200      	movs	r2, #0
 8003a2e:	2102      	movs	r1, #2
 8003a30:	4618      	mov	r0, r3
 8003a32:	f7ff fb1d 	bl	8003070 <LL_ADC_SetOffsetState>
        }
        if (__LL_ADC_CHANNEL_TO_DECIMAL_NB(LL_ADC_GetOffsetChannel(hadc->Instance, LL_ADC_OFFSET_4))
 8003a36:	687b      	ldr	r3, [r7, #4]
 8003a38:	681b      	ldr	r3, [r3, #0]
 8003a3a:	2103      	movs	r1, #3
 8003a3c:	4618      	mov	r0, r3
 8003a3e:	f7ff fb01 	bl	8003044 <LL_ADC_GetOffsetChannel>
 8003a42:	4603      	mov	r3, r0
 8003a44:	f3c3 0312 	ubfx	r3, r3, #0, #19
 8003a48:	2b00      	cmp	r3, #0
 8003a4a:	d10a      	bne.n	8003a62 <HAL_ADC_ConfigChannel+0x3aa>
 8003a4c:	687b      	ldr	r3, [r7, #4]
 8003a4e:	681b      	ldr	r3, [r3, #0]
 8003a50:	2103      	movs	r1, #3
 8003a52:	4618      	mov	r0, r3
 8003a54:	f7ff faf6 	bl	8003044 <LL_ADC_GetOffsetChannel>
 8003a58:	4603      	mov	r3, r0
 8003a5a:	0e9b      	lsrs	r3, r3, #26
 8003a5c:	f003 021f 	and.w	r2, r3, #31
 8003a60:	e017      	b.n	8003a92 <HAL_ADC_ConfigChannel+0x3da>
 8003a62:	687b      	ldr	r3, [r7, #4]
 8003a64:	681b      	ldr	r3, [r3, #0]
 8003a66:	2103      	movs	r1, #3
 8003a68:	4618      	mov	r0, r3
 8003a6a:	f7ff faeb 	bl	8003044 <LL_ADC_GetOffsetChannel>
 8003a6e:	4603      	mov	r3, r0
 8003a70:	677b      	str	r3, [r7, #116]	@ 0x74
   __ASM volatile ("rbit %0, %1" : "=r" (result) : "r" (value) );
 8003a72:	6f7b      	ldr	r3, [r7, #116]	@ 0x74
 8003a74:	fa93 f3a3 	rbit	r3, r3
 8003a78:	673b      	str	r3, [r7, #112]	@ 0x70
  return result;
 8003a7a:	6f3b      	ldr	r3, [r7, #112]	@ 0x70
 8003a7c:	67bb      	str	r3, [r7, #120]	@ 0x78
  if (value == 0U)
 8003a7e:	6fbb      	ldr	r3, [r7, #120]	@ 0x78
 8003a80:	2b00      	cmp	r3, #0
 8003a82:	d101      	bne.n	8003a88 <HAL_ADC_ConfigChannel+0x3d0>
    return 32U;
 8003a84:	2320      	movs	r3, #32
 8003a86:	e003      	b.n	8003a90 <HAL_ADC_ConfigChannel+0x3d8>
  return __builtin_clz(value);
 8003a88:	6fbb      	ldr	r3, [r7, #120]	@ 0x78
 8003a8a:	fab3 f383 	clz	r3, r3
 8003a8e:	b2db      	uxtb	r3, r3
 8003a90:	461a      	mov	r2, r3
            == __LL_ADC_CHANNEL_TO_DECIMAL_NB(pConfig->Channel))
 8003a92:	683b      	ldr	r3, [r7, #0]
 8003a94:	681b      	ldr	r3, [r3, #0]
 8003a96:	f3c3 0312 	ubfx	r3, r3, #0, #19
 8003a9a:	2b00      	cmp	r3, #0
 8003a9c:	d105      	bne.n	8003aaa <HAL_ADC_ConfigChannel+0x3f2>
 8003a9e:	683b      	ldr	r3, [r7, #0]
 8003aa0:	681b      	ldr	r3, [r3, #0]
 8003aa2:	0e9b      	lsrs	r3, r3, #26
 8003aa4:	f003 031f 	and.w	r3, r3, #31
 8003aa8:	e011      	b.n	8003ace <HAL_ADC_ConfigChannel+0x416>
 8003aaa:	683b      	ldr	r3, [r7, #0]
 8003aac:	681b      	ldr	r3, [r3, #0]
 8003aae:	66bb      	str	r3, [r7, #104]	@ 0x68
   __ASM volatile ("rbit %0, %1" : "=r" (result) : "r" (value) );
 8003ab0:	6ebb      	ldr	r3, [r7, #104]	@ 0x68
 8003ab2:	fa93 f3a3 	rbit	r3, r3
 8003ab6:	667b      	str	r3, [r7, #100]	@ 0x64
  return result;
 8003ab8:	6e7b      	ldr	r3, [r7, #100]	@ 0x64
 8003aba:	66fb      	str	r3, [r7, #108]	@ 0x6c
  if (value == 0U)
 8003abc:	6efb      	ldr	r3, [r7, #108]	@ 0x6c
 8003abe:	2b00      	cmp	r3, #0
 8003ac0:	d101      	bne.n	8003ac6 <HAL_ADC_ConfigChannel+0x40e>
    return 32U;
 8003ac2:	2320      	movs	r3, #32
 8003ac4:	e003      	b.n	8003ace <HAL_ADC_ConfigChannel+0x416>
  return __builtin_clz(value);
 8003ac6:	6efb      	ldr	r3, [r7, #108]	@ 0x6c
 8003ac8:	fab3 f383 	clz	r3, r3
 8003acc:	b2db      	uxtb	r3, r3
        if (__LL_ADC_CHANNEL_TO_DECIMAL_NB(LL_ADC_GetOffsetChannel(hadc->Instance, LL_ADC_OFFSET_4))
 8003ace:	429a      	cmp	r2, r3
 8003ad0:	d106      	bne.n	8003ae0 <HAL_ADC_ConfigChannel+0x428>
        {
          LL_ADC_SetOffsetState(hadc->Instance, LL_ADC_OFFSET_4, LL_ADC_OFFSET_DISABLE);
 8003ad2:	687b      	ldr	r3, [r7, #4]
 8003ad4:	681b      	ldr	r3, [r3, #0]
 8003ad6:	2200      	movs	r2, #0
 8003ad8:	2103      	movs	r1, #3
 8003ada:	4618      	mov	r0, r3
 8003adc:	f7ff fac8 	bl	8003070 <LL_ADC_SetOffsetState>
    }

    /* Parameters update conditioned to ADC state:                              */
    /* Parameters that can be updated only when ADC is disabled:                */
    /*  - Single or differential mode                                           */
    if (LL_ADC_IsEnabled(hadc->Instance) == 0UL)
 8003ae0:	687b      	ldr	r3, [r7, #4]
 8003ae2:	681b      	ldr	r3, [r3, #0]
 8003ae4:	4618      	mov	r0, r3
 8003ae6:	f7ff fbf1 	bl	80032cc <LL_ADC_IsEnabled>
 8003aea:	4603      	mov	r3, r0
 8003aec:	2b00      	cmp	r3, #0
 8003aee:	f040 813d 	bne.w	8003d6c <HAL_ADC_ConfigChannel+0x6b4>
    {
      /* Set mode single-ended or differential input of the selected ADC channel */
      LL_ADC_SetChannelSingleDiff(hadc->Instance, pConfig->Channel, pConfig->SingleDiff);
 8003af2:	687b      	ldr	r3, [r7, #4]
 8003af4:	6818      	ldr	r0, [r3, #0]
 8003af6:	683b      	ldr	r3, [r7, #0]
 8003af8:	6819      	ldr	r1, [r3, #0]
 8003afa:	683b      	ldr	r3, [r7, #0]
 8003afc:	68db      	ldr	r3, [r3, #12]
 8003afe:	461a      	mov	r2, r3
 8003b00:	f7ff fb72 	bl	80031e8 <LL_ADC_SetChannelSingleDiff>

      /* Configuration of differential mode */
      if (pConfig->SingleDiff == ADC_DIFFERENTIAL_ENDED)
 8003b04:	683b      	ldr	r3, [r7, #0]
 8003b06:	68db      	ldr	r3, [r3, #12]
 8003b08:	4aa2      	ldr	r2, [pc, #648]	@ (8003d94 <HAL_ADC_ConfigChannel+0x6dc>)
 8003b0a:	4293      	cmp	r3, r2
 8003b0c:	f040 812e 	bne.w	8003d6c <HAL_ADC_ConfigChannel+0x6b4>
      {
        /* Set sampling time of the selected ADC channel */
        /* Note: ADC channel number masked with value "0x1F" to ensure shift value within 32 bits range */
        LL_ADC_SetChannelSamplingTime(hadc->Instance,
 8003b10:	687b      	ldr	r3, [r7, #4]
 8003b12:	6818      	ldr	r0, [r3, #0]
                                      (uint32_t)(__LL_ADC_DECIMAL_NB_TO_CHANNEL(
 8003b14:	683b      	ldr	r3, [r7, #0]
 8003b16:	681b      	ldr	r3, [r3, #0]
 8003b18:	f3c3 0312 	ubfx	r3, r3, #0, #19
 8003b1c:	2b00      	cmp	r3, #0
 8003b1e:	d10b      	bne.n	8003b38 <HAL_ADC_ConfigChannel+0x480>
 8003b20:	683b      	ldr	r3, [r7, #0]
 8003b22:	681b      	ldr	r3, [r3, #0]
 8003b24:	0e9b      	lsrs	r3, r3, #26
 8003b26:	3301      	adds	r3, #1
 8003b28:	f003 031f 	and.w	r3, r3, #31
 8003b2c:	2b09      	cmp	r3, #9
 8003b2e:	bf94      	ite	ls
 8003b30:	2301      	movls	r3, #1
 8003b32:	2300      	movhi	r3, #0
 8003b34:	b2db      	uxtb	r3, r3
 8003b36:	e019      	b.n	8003b6c <HAL_ADC_ConfigChannel+0x4b4>
 8003b38:	683b      	ldr	r3, [r7, #0]
 8003b3a:	681b      	ldr	r3, [r3, #0]
 8003b3c:	65fb      	str	r3, [r7, #92]	@ 0x5c
   __ASM volatile ("rbit %0, %1" : "=r" (result) : "r" (value) );
 8003b3e:	6dfb      	ldr	r3, [r7, #92]	@ 0x5c
 8003b40:	fa93 f3a3 	rbit	r3, r3
 8003b44:	65bb      	str	r3, [r7, #88]	@ 0x58
  return result;
 8003b46:	6dbb      	ldr	r3, [r7, #88]	@ 0x58
 8003b48:	663b      	str	r3, [r7, #96]	@ 0x60
  if (value == 0U)
 8003b4a:	6e3b      	ldr	r3, [r7, #96]	@ 0x60
 8003b4c:	2b00      	cmp	r3, #0
 8003b4e:	d101      	bne.n	8003b54 <HAL_ADC_ConfigChannel+0x49c>
    return 32U;
 8003b50:	2320      	movs	r3, #32
 8003b52:	e003      	b.n	8003b5c <HAL_ADC_ConfigChannel+0x4a4>
  return __builtin_clz(value);
 8003b54:	6e3b      	ldr	r3, [r7, #96]	@ 0x60
 8003b56:	fab3 f383 	clz	r3, r3
 8003b5a:	b2db      	uxtb	r3, r3
 8003b5c:	3301      	adds	r3, #1
 8003b5e:	f003 031f 	and.w	r3, r3, #31
 8003b62:	2b09      	cmp	r3, #9
 8003b64:	bf94      	ite	ls
 8003b66:	2301      	movls	r3, #1
 8003b68:	2300      	movhi	r3, #0
 8003b6a:	b2db      	uxtb	r3, r3
        LL_ADC_SetChannelSamplingTime(hadc->Instance,
 8003b6c:	2b00      	cmp	r3, #0
 8003b6e:	d079      	beq.n	8003c64 <HAL_ADC_ConfigChannel+0x5ac>
                                      (uint32_t)(__LL_ADC_DECIMAL_NB_TO_CHANNEL(
 8003b70:	683b      	ldr	r3, [r7, #0]
 8003b72:	681b      	ldr	r3, [r3, #0]
 8003b74:	f3c3 0312 	ubfx	r3, r3, #0, #19
 8003b78:	2b00      	cmp	r3, #0
 8003b7a:	d107      	bne.n	8003b8c <HAL_ADC_ConfigChannel+0x4d4>
 8003b7c:	683b      	ldr	r3, [r7, #0]
 8003b7e:	681b      	ldr	r3, [r3, #0]
 8003b80:	0e9b      	lsrs	r3, r3, #26
 8003b82:	3301      	adds	r3, #1
 8003b84:	069b      	lsls	r3, r3, #26
 8003b86:	f003 42f8 	and.w	r2, r3, #2080374784	@ 0x7c000000
 8003b8a:	e015      	b.n	8003bb8 <HAL_ADC_ConfigChannel+0x500>
 8003b8c:	683b      	ldr	r3, [r7, #0]
 8003b8e:	681b      	ldr	r3, [r3, #0]
 8003b90:	653b      	str	r3, [r7, #80]	@ 0x50
   __ASM volatile ("rbit %0, %1" : "=r" (result) : "r" (value) );
 8003b92:	6d3b      	ldr	r3, [r7, #80]	@ 0x50
 8003b94:	fa93 f3a3 	rbit	r3, r3
 8003b98:	64fb      	str	r3, [r7, #76]	@ 0x4c
  return result;
 8003b9a:	6cfb      	ldr	r3, [r7, #76]	@ 0x4c
 8003b9c:	657b      	str	r3, [r7, #84]	@ 0x54
  if (value == 0U)
 8003b9e:	6d7b      	ldr	r3, [r7, #84]	@ 0x54
 8003ba0:	2b00      	cmp	r3, #0
 8003ba2:	d101      	bne.n	8003ba8 <HAL_ADC_ConfigChannel+0x4f0>
    return 32U;
 8003ba4:	2320      	movs	r3, #32
 8003ba6:	e003      	b.n	8003bb0 <HAL_ADC_ConfigChannel+0x4f8>
  return __builtin_clz(value);
 8003ba8:	6d7b      	ldr	r3, [r7, #84]	@ 0x54
 8003baa:	fab3 f383 	clz	r3, r3
 8003bae:	b2db      	uxtb	r3, r3
 8003bb0:	3301      	adds	r3, #1
 8003bb2:	069b      	lsls	r3, r3, #26
 8003bb4:	f003 42f8 	and.w	r2, r3, #2080374784	@ 0x7c000000
 8003bb8:	683b      	ldr	r3, [r7, #0]
 8003bba:	681b      	ldr	r3, [r3, #0]
 8003bbc:	f3c3 0312 	ubfx	r3, r3, #0, #19
 8003bc0:	2b00      	cmp	r3, #0
 8003bc2:	d109      	bne.n	8003bd8 <HAL_ADC_ConfigChannel+0x520>
 8003bc4:	683b      	ldr	r3, [r7, #0]
 8003bc6:	681b      	ldr	r3, [r3, #0]
 8003bc8:	0e9b      	lsrs	r3, r3, #26
 8003bca:	3301      	adds	r3, #1
 8003bcc:	f003 031f 	and.w	r3, r3, #31
 8003bd0:	2101      	movs	r1, #1
 8003bd2:	fa01 f303 	lsl.w	r3, r1, r3
 8003bd6:	e017      	b.n	8003c08 <HAL_ADC_ConfigChannel+0x550>
 8003bd8:	683b      	ldr	r3, [r7, #0]
 8003bda:	681b      	ldr	r3, [r3, #0]
 8003bdc:	647b      	str	r3, [r7, #68]	@ 0x44
   __ASM volatile ("rbit %0, %1" : "=r" (result) : "r" (value) );
 8003bde:	6c7b      	ldr	r3, [r7, #68]	@ 0x44
 8003be0:	fa93 f3a3 	rbit	r3, r3
 8003be4:	643b      	str	r3, [r7, #64]	@ 0x40
  return result;
 8003be6:	6c3b      	ldr	r3, [r7, #64]	@ 0x40
 8003be8:	64bb      	str	r3, [r7, #72]	@ 0x48
  if (value == 0U)
 8003bea:	6cbb      	ldr	r3, [r7, #72]	@ 0x48
 8003bec:	2b00      	cmp	r3, #0
 8003bee:	d101      	bne.n	8003bf4 <HAL_ADC_ConfigChannel+0x53c>
    return 32U;
 8003bf0:	2320      	movs	r3, #32
 8003bf2:	e003      	b.n	8003bfc <HAL_ADC_ConfigChannel+0x544>
  return __builtin_clz(value);
 8003bf4:	6cbb      	ldr	r3, [r7, #72]	@ 0x48
 8003bf6:	fab3 f383 	clz	r3, r3
 8003bfa:	b2db      	uxtb	r3, r3
 8003bfc:	3301      	adds	r3, #1
 8003bfe:	f003 031f 	and.w	r3, r3, #31
 8003c02:	2101      	movs	r1, #1
 8003c04:	fa01 f303 	lsl.w	r3, r1, r3
 8003c08:	ea42 0103 	orr.w	r1, r2, r3
 8003c0c:	683b      	ldr	r3, [r7, #0]
 8003c0e:	681b      	ldr	r3, [r3, #0]
 8003c10:	f3c3 0312 	ubfx	r3, r3, #0, #19
 8003c14:	2b00      	cmp	r3, #0
 8003c16:	d10a      	bne.n	8003c2e <HAL_ADC_ConfigChannel+0x576>
 8003c18:	683b      	ldr	r3, [r7, #0]
 8003c1a:	681b      	ldr	r3, [r3, #0]
 8003c1c:	0e9b      	lsrs	r3, r3, #26
 8003c1e:	3301      	adds	r3, #1
 8003c20:	f003 021f 	and.w	r2, r3, #31
 8003c24:	4613      	mov	r3, r2
 8003c26:	005b      	lsls	r3, r3, #1
 8003c28:	4413      	add	r3, r2
 8003c2a:	051b      	lsls	r3, r3, #20
 8003c2c:	e018      	b.n	8003c60 <HAL_ADC_ConfigChannel+0x5a8>
 8003c2e:	683b      	ldr	r3, [r7, #0]
 8003c30:	681b      	ldr	r3, [r3, #0]
 8003c32:	63bb      	str	r3, [r7, #56]	@ 0x38
   __ASM volatile ("rbit %0, %1" : "=r" (result) : "r" (value) );
 8003c34:	6bbb      	ldr	r3, [r7, #56]	@ 0x38
 8003c36:	fa93 f3a3 	rbit	r3, r3
 8003c3a:	637b      	str	r3, [r7, #52]	@ 0x34
  return result;
 8003c3c:	6b7b      	ldr	r3, [r7, #52]	@ 0x34
 8003c3e:	63fb      	str	r3, [r7, #60]	@ 0x3c
  if (value == 0U)
 8003c40:	6bfb      	ldr	r3, [r7, #60]	@ 0x3c
 8003c42:	2b00      	cmp	r3, #0
 8003c44:	d101      	bne.n	8003c4a <HAL_ADC_ConfigChannel+0x592>
    return 32U;
 8003c46:	2320      	movs	r3, #32
 8003c48:	e003      	b.n	8003c52 <HAL_ADC_ConfigChannel+0x59a>
  return __builtin_clz(value);
 8003c4a:	6bfb      	ldr	r3, [r7, #60]	@ 0x3c
 8003c4c:	fab3 f383 	clz	r3, r3
 8003c50:	b2db      	uxtb	r3, r3
 8003c52:	3301      	adds	r3, #1
 8003c54:	f003 021f 	and.w	r2, r3, #31
 8003c58:	4613      	mov	r3, r2
 8003c5a:	005b      	lsls	r3, r3, #1
 8003c5c:	4413      	add	r3, r2
 8003c5e:	051b      	lsls	r3, r3, #20
        LL_ADC_SetChannelSamplingTime(hadc->Instance,
 8003c60:	430b      	orrs	r3, r1
 8003c62:	e07e      	b.n	8003d62 <HAL_ADC_ConfigChannel+0x6aa>
                                      (uint32_t)(__LL_ADC_DECIMAL_NB_TO_CHANNEL(
 8003c64:	683b      	ldr	r3, [r7, #0]
 8003c66:	681b      	ldr	r3, [r3, #0]
 8003c68:	f3c3 0312 	ubfx	r3, r3, #0, #19
 8003c6c:	2b00      	cmp	r3, #0
 8003c6e:	d107      	bne.n	8003c80 <HAL_ADC_ConfigChannel+0x5c8>
 8003c70:	683b      	ldr	r3, [r7, #0]
 8003c72:	681b      	ldr	r3, [r3, #0]
 8003c74:	0e9b      	lsrs	r3, r3, #26
 8003c76:	3301      	adds	r3, #1
 8003c78:	069b      	lsls	r3, r3, #26
 8003c7a:	f003 42f8 	and.w	r2, r3, #2080374784	@ 0x7c000000
 8003c7e:	e015      	b.n	8003cac <HAL_ADC_ConfigChannel+0x5f4>
 8003c80:	683b      	ldr	r3, [r7, #0]
 8003c82:	681b      	ldr	r3, [r3, #0]
 8003c84:	62fb      	str	r3, [r7, #44]	@ 0x2c
   __ASM volatile ("rbit %0, %1" : "=r" (result) : "r" (value) );
 8003c86:	6afb      	ldr	r3, [r7, #44]	@ 0x2c
 8003c88:	fa93 f3a3 	rbit	r3, r3
 8003c8c:	62bb      	str	r3, [r7, #40]	@ 0x28
  return result;
 8003c8e:	6abb      	ldr	r3, [r7, #40]	@ 0x28
 8003c90:	633b      	str	r3, [r7, #48]	@ 0x30
  if (value == 0U)
 8003c92:	6b3b      	ldr	r3, [r7, #48]	@ 0x30
 8003c94:	2b00      	cmp	r3, #0
 8003c96:	d101      	bne.n	8003c9c <HAL_ADC_ConfigChannel+0x5e4>
    return 32U;
 8003c98:	2320      	movs	r3, #32
 8003c9a:	e003      	b.n	8003ca4 <HAL_ADC_ConfigChannel+0x5ec>
  return __builtin_clz(value);
 8003c9c:	6b3b      	ldr	r3, [r7, #48]	@ 0x30
 8003c9e:	fab3 f383 	clz	r3, r3
 8003ca2:	b2db      	uxtb	r3, r3
 8003ca4:	3301      	adds	r3, #1
 8003ca6:	069b      	lsls	r3, r3, #26
 8003ca8:	f003 42f8 	and.w	r2, r3, #2080374784	@ 0x7c000000
 8003cac:	683b      	ldr	r3, [r7, #0]
 8003cae:	681b      	ldr	r3, [r3, #0]
 8003cb0:	f3c3 0312 	ubfx	r3, r3, #0, #19
 8003cb4:	2b00      	cmp	r3, #0
 8003cb6:	d109      	bne.n	8003ccc <HAL_ADC_ConfigChannel+0x614>
 8003cb8:	683b      	ldr	r3, [r7, #0]
 8003cba:	681b      	ldr	r3, [r3, #0]
 8003cbc:	0e9b      	lsrs	r3, r3, #26
 8003cbe:	3301      	adds	r3, #1
 8003cc0:	f003 031f 	and.w	r3, r3, #31
 8003cc4:	2101      	movs	r1, #1
 8003cc6:	fa01 f303 	lsl.w	r3, r1, r3
 8003cca:	e017      	b.n	8003cfc <HAL_ADC_ConfigChannel+0x644>
 8003ccc:	683b      	ldr	r3, [r7, #0]
 8003cce:	681b      	ldr	r3, [r3, #0]
 8003cd0:	623b      	str	r3, [r7, #32]
   __ASM volatile ("rbit %0, %1" : "=r" (result) : "r" (value) );
 8003cd2:	6a3b      	ldr	r3, [r7, #32]
 8003cd4:	fa93 f3a3 	rbit	r3, r3
 8003cd8:	61fb      	str	r3, [r7, #28]
  return result;
 8003cda:	69fb      	ldr	r3, [r7, #28]
 8003cdc:	627b      	str	r3, [r7, #36]	@ 0x24
  if (value == 0U)
 8003cde:	6a7b      	ldr	r3, [r7, #36]	@ 0x24
 8003ce0:	2b00      	cmp	r3, #0
 8003ce2:	d101      	bne.n	8003ce8 <HAL_ADC_ConfigChannel+0x630>
    return 32U;
 8003ce4:	2320      	movs	r3, #32
 8003ce6:	e003      	b.n	8003cf0 <HAL_ADC_ConfigChannel+0x638>
  return __builtin_clz(value);
 8003ce8:	6a7b      	ldr	r3, [r7, #36]	@ 0x24
 8003cea:	fab3 f383 	clz	r3, r3
 8003cee:	b2db      	uxtb	r3, r3
 8003cf0:	3301      	adds	r3, #1
 8003cf2:	f003 031f 	and.w	r3, r3, #31
 8003cf6:	2101      	movs	r1, #1
 8003cf8:	fa01 f303 	lsl.w	r3, r1, r3
 8003cfc:	ea42 0103 	orr.w	r1, r2, r3
 8003d00:	683b      	ldr	r3, [r7, #0]
 8003d02:	681b      	ldr	r3, [r3, #0]
 8003d04:	f3c3 0312 	ubfx	r3, r3, #0, #19
 8003d08:	2b00      	cmp	r3, #0
 8003d0a:	d10d      	bne.n	8003d28 <HAL_ADC_ConfigChannel+0x670>
 8003d0c:	683b      	ldr	r3, [r7, #0]
 8003d0e:	681b      	ldr	r3, [r3, #0]
 8003d10:	0e9b      	lsrs	r3, r3, #26
 8003d12:	3301      	adds	r3, #1
 8003d14:	f003 021f 	and.w	r2, r3, #31
 8003d18:	4613      	mov	r3, r2
 8003d1a:	005b      	lsls	r3, r3, #1
 8003d1c:	4413      	add	r3, r2
 8003d1e:	3b1e      	subs	r3, #30
 8003d20:	051b      	lsls	r3, r3, #20
 8003d22:	f043 7300 	orr.w	r3, r3, #33554432	@ 0x2000000
 8003d26:	e01b      	b.n	8003d60 <HAL_ADC_ConfigChannel+0x6a8>
 8003d28:	683b      	ldr	r3, [r7, #0]
 8003d2a:	681b      	ldr	r3, [r3, #0]
 8003d2c:	617b      	str	r3, [r7, #20]
   __ASM volatile ("rbit %0, %1" : "=r" (result) : "r" (value) );
 8003d2e:	697b      	ldr	r3, [r7, #20]
 8003d30:	fa93 f3a3 	rbit	r3, r3
 8003d34:	613b      	str	r3, [r7, #16]
  return result;
 8003d36:	693b      	ldr	r3, [r7, #16]
 8003d38:	61bb      	str	r3, [r7, #24]
  if (value == 0U)
 8003d3a:	69bb      	ldr	r3, [r7, #24]
 8003d3c:	2b00      	cmp	r3, #0
 8003d3e:	d101      	bne.n	8003d44 <HAL_ADC_ConfigChannel+0x68c>
    return 32U;
 8003d40:	2320      	movs	r3, #32
 8003d42:	e003      	b.n	8003d4c <HAL_ADC_ConfigChannel+0x694>
  return __builtin_clz(value);
 8003d44:	69bb      	ldr	r3, [r7, #24]
 8003d46:	fab3 f383 	clz	r3, r3
 8003d4a:	b2db      	uxtb	r3, r3
 8003d4c:	3301      	adds	r3, #1
 8003d4e:	f003 021f 	and.w	r2, r3, #31
 8003d52:	4613      	mov	r3, r2
 8003d54:	005b      	lsls	r3, r3, #1
 8003d56:	4413      	add	r3, r2
 8003d58:	3b1e      	subs	r3, #30
 8003d5a:	051b      	lsls	r3, r3, #20
 8003d5c:	f043 7300 	orr.w	r3, r3, #33554432	@ 0x2000000
        LL_ADC_SetChannelSamplingTime(hadc->Instance,
 8003d60:	430b      	orrs	r3, r1
                                                   (__LL_ADC_CHANNEL_TO_DECIMAL_NB((uint32_t)pConfig->Channel)
                                                    + 1UL) & 0x1FUL)),
                                      pConfig->SamplingTime);
 8003d62:	683a      	ldr	r2, [r7, #0]
 8003d64:	6892      	ldr	r2, [r2, #8]
        LL_ADC_SetChannelSamplingTime(hadc->Instance,
 8003d66:	4619      	mov	r1, r3
 8003d68:	f7ff fa12 	bl	8003190 <LL_ADC_SetChannelSamplingTime>
    /* If internal channel selected, enable dedicated internal buffers and    */
    /* paths.                                                                 */
    /* Note: these internal measurement paths can be disabled using           */
    /* HAL_ADC_DeInit().                                                      */

    if (__LL_ADC_IS_CHANNEL_INTERNAL(pConfig->Channel))
 8003d6c:	683b      	ldr	r3, [r7, #0]
 8003d6e:	681a      	ldr	r2, [r3, #0]
 8003d70:	4b09      	ldr	r3, [pc, #36]	@ (8003d98 <HAL_ADC_ConfigChannel+0x6e0>)
 8003d72:	4013      	ands	r3, r2
 8003d74:	2b00      	cmp	r3, #0
 8003d76:	f000 80be 	beq.w	8003ef6 <HAL_ADC_ConfigChannel+0x83e>
    {
      tmp_config_internal_channel = LL_ADC_GetCommonPathInternalCh(__LL_ADC_COMMON_INSTANCE(hadc->Instance));
 8003d7a:	687b      	ldr	r3, [r7, #4]
 8003d7c:	681b      	ldr	r3, [r3, #0]
 8003d7e:	f1b3 4fa0 	cmp.w	r3, #1342177280	@ 0x50000000
 8003d82:	d004      	beq.n	8003d8e <HAL_ADC_ConfigChannel+0x6d6>
 8003d84:	687b      	ldr	r3, [r7, #4]
 8003d86:	681b      	ldr	r3, [r3, #0]
 8003d88:	4a04      	ldr	r2, [pc, #16]	@ (8003d9c <HAL_ADC_ConfigChannel+0x6e4>)
 8003d8a:	4293      	cmp	r3, r2
 8003d8c:	d10a      	bne.n	8003da4 <HAL_ADC_ConfigChannel+0x6ec>
 8003d8e:	4b04      	ldr	r3, [pc, #16]	@ (8003da0 <HAL_ADC_ConfigChannel+0x6e8>)
 8003d90:	e009      	b.n	8003da6 <HAL_ADC_ConfigChannel+0x6ee>
 8003d92:	bf00      	nop
 8003d94:	407f0000 	.word	0x407f0000
 8003d98:	80080000 	.word	0x80080000
 8003d9c:	50000100 	.word	0x50000100
 8003da0:	50000300 	.word	0x50000300
 8003da4:	4b59      	ldr	r3, [pc, #356]	@ (8003f0c <HAL_ADC_ConfigChannel+0x854>)
 8003da6:	4618      	mov	r0, r3
 8003da8:	f7ff f91a 	bl	8002fe0 <LL_ADC_GetCommonPathInternalCh>
 8003dac:	f8c7 00c4 	str.w	r0, [r7, #196]	@ 0xc4

      /* If the requested internal measurement path has already been enabled, */
      /* bypass the configuration processing.                                 */
      if (((pConfig->Channel == ADC_CHANNEL_TEMPSENSOR_ADC1) || (pConfig->Channel == ADC_CHANNEL_TEMPSENSOR_ADC5))
 8003db0:	683b      	ldr	r3, [r7, #0]
 8003db2:	681b      	ldr	r3, [r3, #0]
 8003db4:	4a56      	ldr	r2, [pc, #344]	@ (8003f10 <HAL_ADC_ConfigChannel+0x858>)
 8003db6:	4293      	cmp	r3, r2
 8003db8:	d004      	beq.n	8003dc4 <HAL_ADC_ConfigChannel+0x70c>
 8003dba:	683b      	ldr	r3, [r7, #0]
 8003dbc:	681b      	ldr	r3, [r3, #0]
 8003dbe:	4a55      	ldr	r2, [pc, #340]	@ (8003f14 <HAL_ADC_ConfigChannel+0x85c>)
 8003dc0:	4293      	cmp	r3, r2
 8003dc2:	d13a      	bne.n	8003e3a <HAL_ADC_ConfigChannel+0x782>
          && ((tmp_config_internal_channel & LL_ADC_PATH_INTERNAL_TEMPSENSOR) == 0UL))
 8003dc4:	f8d7 30c4 	ldr.w	r3, [r7, #196]	@ 0xc4
 8003dc8:	f403 0300 	and.w	r3, r3, #8388608	@ 0x800000
 8003dcc:	2b00      	cmp	r3, #0
 8003dce:	d134      	bne.n	8003e3a <HAL_ADC_ConfigChannel+0x782>
      {
        if (ADC_TEMPERATURE_SENSOR_INSTANCE(hadc))
 8003dd0:	687b      	ldr	r3, [r7, #4]
 8003dd2:	681b      	ldr	r3, [r3, #0]
 8003dd4:	f1b3 4fa0 	cmp.w	r3, #1342177280	@ 0x50000000
 8003dd8:	d005      	beq.n	8003de6 <HAL_ADC_ConfigChannel+0x72e>
 8003dda:	687b      	ldr	r3, [r7, #4]
 8003ddc:	681b      	ldr	r3, [r3, #0]
 8003dde:	4a4e      	ldr	r2, [pc, #312]	@ (8003f18 <HAL_ADC_ConfigChannel+0x860>)
 8003de0:	4293      	cmp	r3, r2
 8003de2:	f040 8085 	bne.w	8003ef0 <HAL_ADC_ConfigChannel+0x838>
        {
          LL_ADC_SetCommonPathInternalCh(__LL_ADC_COMMON_INSTANCE(hadc->Instance),
 8003de6:	687b      	ldr	r3, [r7, #4]
 8003de8:	681b      	ldr	r3, [r3, #0]
 8003dea:	f1b3 4fa0 	cmp.w	r3, #1342177280	@ 0x50000000
 8003dee:	d004      	beq.n	8003dfa <HAL_ADC_ConfigChannel+0x742>
 8003df0:	687b      	ldr	r3, [r7, #4]
 8003df2:	681b      	ldr	r3, [r3, #0]
 8003df4:	4a49      	ldr	r2, [pc, #292]	@ (8003f1c <HAL_ADC_ConfigChannel+0x864>)
 8003df6:	4293      	cmp	r3, r2
 8003df8:	d101      	bne.n	8003dfe <HAL_ADC_ConfigChannel+0x746>
 8003dfa:	4a49      	ldr	r2, [pc, #292]	@ (8003f20 <HAL_ADC_ConfigChannel+0x868>)
 8003dfc:	e000      	b.n	8003e00 <HAL_ADC_ConfigChannel+0x748>
 8003dfe:	4a43      	ldr	r2, [pc, #268]	@ (8003f0c <HAL_ADC_ConfigChannel+0x854>)
 8003e00:	f8d7 30c4 	ldr.w	r3, [r7, #196]	@ 0xc4
 8003e04:	f443 0300 	orr.w	r3, r3, #8388608	@ 0x800000
 8003e08:	4619      	mov	r1, r3
 8003e0a:	4610      	mov	r0, r2
 8003e0c:	f7ff f8d5 	bl	8002fba <LL_ADC_SetCommonPathInternalCh>
          /* Delay for temperature sensor stabilization time */
          /* Wait loop initialization and execution */
          /* Note: Variable divided by 2 to compensate partially              */
          /*       CPU processing cycles, scaling in us split to not          */
          /*       exceed 32 bits register capacity and handle low frequency. */
          wait_loop_index = ((LL_ADC_DELAY_TEMPSENSOR_STAB_US / 10UL) * ((SystemCoreClock / (100000UL * 2UL)) + 1UL));
 8003e10:	4b44      	ldr	r3, [pc, #272]	@ (8003f24 <HAL_ADC_ConfigChannel+0x86c>)
 8003e12:	681b      	ldr	r3, [r3, #0]
 8003e14:	099b      	lsrs	r3, r3, #6
 8003e16:	4a44      	ldr	r2, [pc, #272]	@ (8003f28 <HAL_ADC_ConfigChannel+0x870>)
 8003e18:	fba2 2303 	umull	r2, r3, r2, r3
 8003e1c:	099b      	lsrs	r3, r3, #6
 8003e1e:	1c5a      	adds	r2, r3, #1
 8003e20:	4613      	mov	r3, r2
 8003e22:	005b      	lsls	r3, r3, #1
 8003e24:	4413      	add	r3, r2
 8003e26:	009b      	lsls	r3, r3, #2
 8003e28:	60fb      	str	r3, [r7, #12]
          while (wait_loop_index != 0UL)
 8003e2a:	e002      	b.n	8003e32 <HAL_ADC_ConfigChannel+0x77a>
          {
            wait_loop_index--;
 8003e2c:	68fb      	ldr	r3, [r7, #12]
 8003e2e:	3b01      	subs	r3, #1
 8003e30:	60fb      	str	r3, [r7, #12]
          while (wait_loop_index != 0UL)
 8003e32:	68fb      	ldr	r3, [r7, #12]
 8003e34:	2b00      	cmp	r3, #0
 8003e36:	d1f9      	bne.n	8003e2c <HAL_ADC_ConfigChannel+0x774>
        if (ADC_TEMPERATURE_SENSOR_INSTANCE(hadc))
 8003e38:	e05a      	b.n	8003ef0 <HAL_ADC_ConfigChannel+0x838>
          }
        }
      }
      else if ((pConfig->Channel == ADC_CHANNEL_VBAT)
 8003e3a:	683b      	ldr	r3, [r7, #0]
 8003e3c:	681b      	ldr	r3, [r3, #0]
 8003e3e:	4a3b      	ldr	r2, [pc, #236]	@ (8003f2c <HAL_ADC_ConfigChannel+0x874>)
 8003e40:	4293      	cmp	r3, r2
 8003e42:	d125      	bne.n	8003e90 <HAL_ADC_ConfigChannel+0x7d8>
               && ((tmp_config_internal_channel & LL_ADC_PATH_INTERNAL_VBAT) == 0UL))
 8003e44:	f8d7 30c4 	ldr.w	r3, [r7, #196]	@ 0xc4
 8003e48:	f003 7380 	and.w	r3, r3, #16777216	@ 0x1000000
 8003e4c:	2b00      	cmp	r3, #0
 8003e4e:	d11f      	bne.n	8003e90 <HAL_ADC_ConfigChannel+0x7d8>
      {
        if (ADC_BATTERY_VOLTAGE_INSTANCE(hadc))
 8003e50:	687b      	ldr	r3, [r7, #4]
 8003e52:	681b      	ldr	r3, [r3, #0]
 8003e54:	4a31      	ldr	r2, [pc, #196]	@ (8003f1c <HAL_ADC_ConfigChannel+0x864>)
 8003e56:	4293      	cmp	r3, r2
 8003e58:	d104      	bne.n	8003e64 <HAL_ADC_ConfigChannel+0x7ac>
 8003e5a:	687b      	ldr	r3, [r7, #4]
 8003e5c:	681b      	ldr	r3, [r3, #0]
 8003e5e:	4a34      	ldr	r2, [pc, #208]	@ (8003f30 <HAL_ADC_ConfigChannel+0x878>)
 8003e60:	4293      	cmp	r3, r2
 8003e62:	d047      	beq.n	8003ef4 <HAL_ADC_ConfigChannel+0x83c>
        {
          LL_ADC_SetCommonPathInternalCh(__LL_ADC_COMMON_INSTANCE(hadc->Instance),
 8003e64:	687b      	ldr	r3, [r7, #4]
 8003e66:	681b      	ldr	r3, [r3, #0]
 8003e68:	f1b3 4fa0 	cmp.w	r3, #1342177280	@ 0x50000000
 8003e6c:	d004      	beq.n	8003e78 <HAL_ADC_ConfigChannel+0x7c0>
 8003e6e:	687b      	ldr	r3, [r7, #4]
 8003e70:	681b      	ldr	r3, [r3, #0]
 8003e72:	4a2a      	ldr	r2, [pc, #168]	@ (8003f1c <HAL_ADC_ConfigChannel+0x864>)
 8003e74:	4293      	cmp	r3, r2
 8003e76:	d101      	bne.n	8003e7c <HAL_ADC_ConfigChannel+0x7c4>
 8003e78:	4a29      	ldr	r2, [pc, #164]	@ (8003f20 <HAL_ADC_ConfigChannel+0x868>)
 8003e7a:	e000      	b.n	8003e7e <HAL_ADC_ConfigChannel+0x7c6>
 8003e7c:	4a23      	ldr	r2, [pc, #140]	@ (8003f0c <HAL_ADC_ConfigChannel+0x854>)
 8003e7e:	f8d7 30c4 	ldr.w	r3, [r7, #196]	@ 0xc4
 8003e82:	f043 7380 	orr.w	r3, r3, #16777216	@ 0x1000000
 8003e86:	4619      	mov	r1, r3
 8003e88:	4610      	mov	r0, r2
 8003e8a:	f7ff f896 	bl	8002fba <LL_ADC_SetCommonPathInternalCh>
        if (ADC_BATTERY_VOLTAGE_INSTANCE(hadc))
 8003e8e:	e031      	b.n	8003ef4 <HAL_ADC_ConfigChannel+0x83c>
                                         LL_ADC_PATH_INTERNAL_VBAT | tmp_config_internal_channel);
        }
      }
      else if ((pConfig->Channel == ADC_CHANNEL_VREFINT)
 8003e90:	683b      	ldr	r3, [r7, #0]
 8003e92:	681b      	ldr	r3, [r3, #0]
 8003e94:	4a27      	ldr	r2, [pc, #156]	@ (8003f34 <HAL_ADC_ConfigChannel+0x87c>)
 8003e96:	4293      	cmp	r3, r2
 8003e98:	d12d      	bne.n	8003ef6 <HAL_ADC_ConfigChannel+0x83e>
               && ((tmp_config_internal_channel & LL_ADC_PATH_INTERNAL_VREFINT) == 0UL))
 8003e9a:	f8d7 30c4 	ldr.w	r3, [r7, #196]	@ 0xc4
 8003e9e:	f403 0380 	and.w	r3, r3, #4194304	@ 0x400000
 8003ea2:	2b00      	cmp	r3, #0
 8003ea4:	d127      	bne.n	8003ef6 <HAL_ADC_ConfigChannel+0x83e>
      {
        if (ADC_VREFINT_INSTANCE(hadc))
 8003ea6:	687b      	ldr	r3, [r7, #4]
 8003ea8:	681b      	ldr	r3, [r3, #0]
 8003eaa:	4a1c      	ldr	r2, [pc, #112]	@ (8003f1c <HAL_ADC_ConfigChannel+0x864>)
 8003eac:	4293      	cmp	r3, r2
 8003eae:	d022      	beq.n	8003ef6 <HAL_ADC_ConfigChannel+0x83e>
        {
          LL_ADC_SetCommonPathInternalCh(__LL_ADC_COMMON_INSTANCE(hadc->Instance),
 8003eb0:	687b      	ldr	r3, [r7, #4]
 8003eb2:	681b      	ldr	r3, [r3, #0]
 8003eb4:	f1b3 4fa0 	cmp.w	r3, #1342177280	@ 0x50000000
 8003eb8:	d004      	beq.n	8003ec4 <HAL_ADC_ConfigChannel+0x80c>
 8003eba:	687b      	ldr	r3, [r7, #4]
 8003ebc:	681b      	ldr	r3, [r3, #0]
 8003ebe:	4a17      	ldr	r2, [pc, #92]	@ (8003f1c <HAL_ADC_ConfigChannel+0x864>)
 8003ec0:	4293      	cmp	r3, r2
 8003ec2:	d101      	bne.n	8003ec8 <HAL_ADC_ConfigChannel+0x810>
 8003ec4:	4a16      	ldr	r2, [pc, #88]	@ (8003f20 <HAL_ADC_ConfigChannel+0x868>)
 8003ec6:	e000      	b.n	8003eca <HAL_ADC_ConfigChannel+0x812>
 8003ec8:	4a10      	ldr	r2, [pc, #64]	@ (8003f0c <HAL_ADC_ConfigChannel+0x854>)
 8003eca:	f8d7 30c4 	ldr.w	r3, [r7, #196]	@ 0xc4
 8003ece:	f443 0380 	orr.w	r3, r3, #4194304	@ 0x400000
 8003ed2:	4619      	mov	r1, r3
 8003ed4:	4610      	mov	r0, r2
 8003ed6:	f7ff f870 	bl	8002fba <LL_ADC_SetCommonPathInternalCh>
 8003eda:	e00c      	b.n	8003ef6 <HAL_ADC_ConfigChannel+0x83e>
  /* channel could be done on neither of the channel configuration structure  */
  /* parameters.                                                              */
  else
  {
    /* Update ADC state machine to error */
    SET_BIT(hadc->State, HAL_ADC_STATE_ERROR_CONFIG);
 8003edc:	687b      	ldr	r3, [r7, #4]
 8003ede:	6ddb      	ldr	r3, [r3, #92]	@ 0x5c
 8003ee0:	f043 0220 	orr.w	r2, r3, #32
 8003ee4:	687b      	ldr	r3, [r7, #4]
 8003ee6:	65da      	str	r2, [r3, #92]	@ 0x5c

    tmp_hal_status = HAL_ERROR;
 8003ee8:	2301      	movs	r3, #1
 8003eea:	f887 30d7 	strb.w	r3, [r7, #215]	@ 0xd7
 8003eee:	e002      	b.n	8003ef6 <HAL_ADC_ConfigChannel+0x83e>
        if (ADC_TEMPERATURE_SENSOR_INSTANCE(hadc))
 8003ef0:	bf00      	nop
 8003ef2:	e000      	b.n	8003ef6 <HAL_ADC_ConfigChannel+0x83e>
        if (ADC_BATTERY_VOLTAGE_INSTANCE(hadc))
 8003ef4:	bf00      	nop
  }

  /* Process unlocked */
  __HAL_UNLOCK(hadc);
 8003ef6:	687b      	ldr	r3, [r7, #4]
 8003ef8:	2200      	movs	r2, #0
 8003efa:	f883 2058 	strb.w	r2, [r3, #88]	@ 0x58

  /* Return function status */
  return tmp_hal_status;
 8003efe:	f897 30d7 	ldrb.w	r3, [r7, #215]	@ 0xd7
}
 8003f02:	4618      	mov	r0, r3
 8003f04:	37d8      	adds	r7, #216	@ 0xd8
 8003f06:	46bd      	mov	sp, r7
 8003f08:	bd80      	pop	{r7, pc}
 8003f0a:	bf00      	nop
 8003f0c:	50000700 	.word	0x50000700
 8003f10:	c3210000 	.word	0xc3210000
 8003f14:	90c00010 	.word	0x90c00010
 8003f18:	50000600 	.word	0x50000600
 8003f1c:	50000100 	.word	0x50000100
 8003f20:	50000300 	.word	0x50000300
 8003f24:	20000008 	.word	0x20000008
 8003f28:	053e2d63 	.word	0x053e2d63
 8003f2c:	c7520000 	.word	0xc7520000
 8003f30:	50000500 	.word	0x50000500
 8003f34:	cb840000 	.word	0xcb840000

08003f38 <LL_ADC_IsEnabled>:
{
 8003f38:	b480      	push	{r7}
 8003f3a:	b083      	sub	sp, #12
 8003f3c:	af00      	add	r7, sp, #0
 8003f3e:	6078      	str	r0, [r7, #4]
  return ((READ_BIT(ADCx->CR, ADC_CR_ADEN) == (ADC_CR_ADEN)) ? 1UL : 0UL);
 8003f40:	687b      	ldr	r3, [r7, #4]
 8003f42:	689b      	ldr	r3, [r3, #8]
 8003f44:	f003 0301 	and.w	r3, r3, #1
 8003f48:	2b01      	cmp	r3, #1
 8003f4a:	d101      	bne.n	8003f50 <LL_ADC_IsEnabled+0x18>
 8003f4c:	2301      	movs	r3, #1
 8003f4e:	e000      	b.n	8003f52 <LL_ADC_IsEnabled+0x1a>
 8003f50:	2300      	movs	r3, #0
}
 8003f52:	4618      	mov	r0, r3
 8003f54:	370c      	adds	r7, #12
 8003f56:	46bd      	mov	sp, r7
 8003f58:	f85d 7b04 	ldr.w	r7, [sp], #4
 8003f5c:	4770      	bx	lr

08003f5e <LL_ADC_REG_IsConversionOngoing>:
{
 8003f5e:	b480      	push	{r7}
 8003f60:	b083      	sub	sp, #12
 8003f62:	af00      	add	r7, sp, #0
 8003f64:	6078      	str	r0, [r7, #4]
  return ((READ_BIT(ADCx->CR, ADC_CR_ADSTART) == (ADC_CR_ADSTART)) ? 1UL : 0UL);
 8003f66:	687b      	ldr	r3, [r7, #4]
 8003f68:	689b      	ldr	r3, [r3, #8]
 8003f6a:	f003 0304 	and.w	r3, r3, #4
 8003f6e:	2b04      	cmp	r3, #4
 8003f70:	d101      	bne.n	8003f76 <LL_ADC_REG_IsConversionOngoing+0x18>
 8003f72:	2301      	movs	r3, #1
 8003f74:	e000      	b.n	8003f78 <LL_ADC_REG_IsConversionOngoing+0x1a>
 8003f76:	2300      	movs	r3, #0
}
 8003f78:	4618      	mov	r0, r3
 8003f7a:	370c      	adds	r7, #12
 8003f7c:	46bd      	mov	sp, r7
 8003f7e:	f85d 7b04 	ldr.w	r7, [sp], #4
 8003f82:	4770      	bx	lr

08003f84 <HAL_ADCEx_MultiModeConfigChannel>:
  * @param hadc Master ADC handle
  * @param pMultimode Structure of ADC multimode configuration
  * @retval HAL status
  */
HAL_StatusTypeDef HAL_ADCEx_MultiModeConfigChannel(ADC_HandleTypeDef *hadc, const ADC_MultiModeTypeDef *pMultimode)
{
 8003f84:	b590      	push	{r4, r7, lr}
 8003f86:	b0a1      	sub	sp, #132	@ 0x84
 8003f88:	af00      	add	r7, sp, #0
 8003f8a:	6078      	str	r0, [r7, #4]
 8003f8c:	6039      	str	r1, [r7, #0]
  HAL_StatusTypeDef tmp_hal_status = HAL_OK;
 8003f8e:	2300      	movs	r3, #0
 8003f90:	f887 307f 	strb.w	r3, [r7, #127]	@ 0x7f
    assert_param(IS_ADC_DMA_ACCESS_MULTIMODE(pMultimode->DMAAccessMode));
    assert_param(IS_ADC_SAMPLING_DELAY(pMultimode->TwoSamplingDelay));
  }

  /* Process locked */
  __HAL_LOCK(hadc);
 8003f94:	687b      	ldr	r3, [r7, #4]
 8003f96:	f893 3058 	ldrb.w	r3, [r3, #88]	@ 0x58
 8003f9a:	2b01      	cmp	r3, #1
 8003f9c:	d101      	bne.n	8003fa2 <HAL_ADCEx_MultiModeConfigChannel+0x1e>
 8003f9e:	2302      	movs	r3, #2
 8003fa0:	e0e7      	b.n	8004172 <HAL_ADCEx_MultiModeConfigChannel+0x1ee>
 8003fa2:	687b      	ldr	r3, [r7, #4]
 8003fa4:	2201      	movs	r2, #1
 8003fa6:	f883 2058 	strb.w	r2, [r3, #88]	@ 0x58

  /* Temporary handle minimum initialization */
  __HAL_ADC_RESET_HANDLE_STATE(&tmp_hadc_slave);
 8003faa:	2300      	movs	r3, #0
 8003fac:	667b      	str	r3, [r7, #100]	@ 0x64
  ADC_CLEAR_ERRORCODE(&tmp_hadc_slave);
 8003fae:	2300      	movs	r3, #0
 8003fb0:	66bb      	str	r3, [r7, #104]	@ 0x68

  ADC_MULTI_SLAVE(hadc, &tmp_hadc_slave);
 8003fb2:	687b      	ldr	r3, [r7, #4]
 8003fb4:	681b      	ldr	r3, [r3, #0]
 8003fb6:	f1b3 4fa0 	cmp.w	r3, #1342177280	@ 0x50000000
 8003fba:	d102      	bne.n	8003fc2 <HAL_ADCEx_MultiModeConfigChannel+0x3e>
 8003fbc:	4b6f      	ldr	r3, [pc, #444]	@ (800417c <HAL_ADCEx_MultiModeConfigChannel+0x1f8>)
 8003fbe:	60bb      	str	r3, [r7, #8]
 8003fc0:	e009      	b.n	8003fd6 <HAL_ADCEx_MultiModeConfigChannel+0x52>
 8003fc2:	687b      	ldr	r3, [r7, #4]
 8003fc4:	681b      	ldr	r3, [r3, #0]
 8003fc6:	4a6e      	ldr	r2, [pc, #440]	@ (8004180 <HAL_ADCEx_MultiModeConfigChannel+0x1fc>)
 8003fc8:	4293      	cmp	r3, r2
 8003fca:	d102      	bne.n	8003fd2 <HAL_ADCEx_MultiModeConfigChannel+0x4e>
 8003fcc:	4b6d      	ldr	r3, [pc, #436]	@ (8004184 <HAL_ADCEx_MultiModeConfigChannel+0x200>)
 8003fce:	60bb      	str	r3, [r7, #8]
 8003fd0:	e001      	b.n	8003fd6 <HAL_ADCEx_MultiModeConfigChannel+0x52>
 8003fd2:	2300      	movs	r3, #0
 8003fd4:	60bb      	str	r3, [r7, #8]

  if (tmp_hadc_slave.Instance == NULL)
 8003fd6:	68bb      	ldr	r3, [r7, #8]
 8003fd8:	2b00      	cmp	r3, #0
 8003fda:	d10b      	bne.n	8003ff4 <HAL_ADCEx_MultiModeConfigChannel+0x70>
  {
    /* Update ADC state machine to error */
    SET_BIT(hadc->State, HAL_ADC_STATE_ERROR_CONFIG);
 8003fdc:	687b      	ldr	r3, [r7, #4]
 8003fde:	6ddb      	ldr	r3, [r3, #92]	@ 0x5c
 8003fe0:	f043 0220 	orr.w	r2, r3, #32
 8003fe4:	687b      	ldr	r3, [r7, #4]
 8003fe6:	65da      	str	r2, [r3, #92]	@ 0x5c

    /* Process unlocked */
    __HAL_UNLOCK(hadc);
 8003fe8:	687b      	ldr	r3, [r7, #4]
 8003fea:	2200      	movs	r2, #0
 8003fec:	f883 2058 	strb.w	r2, [r3, #88]	@ 0x58

    return HAL_ERROR;
 8003ff0:	2301      	movs	r3, #1
 8003ff2:	e0be      	b.n	8004172 <HAL_ADCEx_MultiModeConfigChannel+0x1ee>
  /* Parameters update conditioned to ADC state:                              */
  /* Parameters that can be updated when ADC is disabled or enabled without   */
  /* conversion on going on regular group:                                    */
  /*  - Multimode DMA configuration                                           */
  /*  - Multimode DMA mode                                                    */
  tmp_hadc_slave_conversion_on_going = LL_ADC_REG_IsConversionOngoing((&tmp_hadc_slave)->Instance);
 8003ff4:	68bb      	ldr	r3, [r7, #8]
 8003ff6:	4618      	mov	r0, r3
 8003ff8:	f7ff ffb1 	bl	8003f5e <LL_ADC_REG_IsConversionOngoing>
 8003ffc:	67b8      	str	r0, [r7, #120]	@ 0x78
  if ((LL_ADC_REG_IsConversionOngoing(hadc->Instance) == 0UL)
 8003ffe:	687b      	ldr	r3, [r7, #4]
 8004000:	681b      	ldr	r3, [r3, #0]
 8004002:	4618      	mov	r0, r3
 8004004:	f7ff ffab 	bl	8003f5e <LL_ADC_REG_IsConversionOngoing>
 8004008:	4603      	mov	r3, r0
 800400a:	2b00      	cmp	r3, #0
 800400c:	f040 80a0 	bne.w	8004150 <HAL_ADCEx_MultiModeConfigChannel+0x1cc>
      && (tmp_hadc_slave_conversion_on_going == 0UL))
 8004010:	6fbb      	ldr	r3, [r7, #120]	@ 0x78
 8004012:	2b00      	cmp	r3, #0
 8004014:	f040 809c 	bne.w	8004150 <HAL_ADCEx_MultiModeConfigChannel+0x1cc>
  {
    /* Pointer to the common control register */
    tmpADC_Common = __LL_ADC_COMMON_INSTANCE(hadc->Instance);
 8004018:	687b      	ldr	r3, [r7, #4]
 800401a:	681b      	ldr	r3, [r3, #0]
 800401c:	f1b3 4fa0 	cmp.w	r3, #1342177280	@ 0x50000000
 8004020:	d004      	beq.n	800402c <HAL_ADCEx_MultiModeConfigChannel+0xa8>
 8004022:	687b      	ldr	r3, [r7, #4]
 8004024:	681b      	ldr	r3, [r3, #0]
 8004026:	4a55      	ldr	r2, [pc, #340]	@ (800417c <HAL_ADCEx_MultiModeConfigChannel+0x1f8>)
 8004028:	4293      	cmp	r3, r2
 800402a:	d101      	bne.n	8004030 <HAL_ADCEx_MultiModeConfigChannel+0xac>
 800402c:	4b56      	ldr	r3, [pc, #344]	@ (8004188 <HAL_ADCEx_MultiModeConfigChannel+0x204>)
 800402e:	e000      	b.n	8004032 <HAL_ADCEx_MultiModeConfigChannel+0xae>
 8004030:	4b56      	ldr	r3, [pc, #344]	@ (800418c <HAL_ADCEx_MultiModeConfigChannel+0x208>)
 8004032:	677b      	str	r3, [r7, #116]	@ 0x74

    /* If multimode is selected, configure all multimode parameters.          */
    /* Otherwise, reset multimode parameters (can be used in case of          */
    /* transition from multimode to independent mode).                        */
    if (pMultimode->Mode != ADC_MODE_INDEPENDENT)
 8004034:	683b      	ldr	r3, [r7, #0]
 8004036:	681b      	ldr	r3, [r3, #0]
 8004038:	2b00      	cmp	r3, #0
 800403a:	d04b      	beq.n	80040d4 <HAL_ADCEx_MultiModeConfigChannel+0x150>
    {
      MODIFY_REG(tmpADC_Common->CCR, ADC_CCR_MDMA | ADC_CCR_DMACFG,
 800403c:	6f7b      	ldr	r3, [r7, #116]	@ 0x74
 800403e:	689b      	ldr	r3, [r3, #8]
 8004040:	f423 4260 	bic.w	r2, r3, #57344	@ 0xe000
 8004044:	683b      	ldr	r3, [r7, #0]
 8004046:	6859      	ldr	r1, [r3, #4]
 8004048:	687b      	ldr	r3, [r7, #4]
 800404a:	f893 3038 	ldrb.w	r3, [r3, #56]	@ 0x38
 800404e:	035b      	lsls	r3, r3, #13
 8004050:	430b      	orrs	r3, r1
 8004052:	431a      	orrs	r2, r3
 8004054:	6f7b      	ldr	r3, [r7, #116]	@ 0x74
 8004056:	609a      	str	r2, [r3, #8]
      /*      from 1 to 10 clock cycles for 10 bits,                              */
      /*      from 1 to 8 clock cycles for 8 bits                                 */
      /*      from 1 to 6 clock cycles for 6 bits                                 */
      /*    If a higher delay is selected, it will be clipped to maximum delay    */
      /*    range                                                                 */
      if (__LL_ADC_IS_ENABLED_ALL_COMMON_INSTANCE(__LL_ADC_COMMON_INSTANCE(hadc->Instance)) == 0UL)
 8004058:	687b      	ldr	r3, [r7, #4]
 800405a:	681b      	ldr	r3, [r3, #0]
 800405c:	f1b3 4fa0 	cmp.w	r3, #1342177280	@ 0x50000000
 8004060:	d004      	beq.n	800406c <HAL_ADCEx_MultiModeConfigChannel+0xe8>
 8004062:	687b      	ldr	r3, [r7, #4]
 8004064:	681b      	ldr	r3, [r3, #0]
 8004066:	4a45      	ldr	r2, [pc, #276]	@ (800417c <HAL_ADCEx_MultiModeConfigChannel+0x1f8>)
 8004068:	4293      	cmp	r3, r2
 800406a:	d10f      	bne.n	800408c <HAL_ADCEx_MultiModeConfigChannel+0x108>
 800406c:	f04f 40a0 	mov.w	r0, #1342177280	@ 0x50000000
 8004070:	f7ff ff62 	bl	8003f38 <LL_ADC_IsEnabled>
 8004074:	4604      	mov	r4, r0
 8004076:	4841      	ldr	r0, [pc, #260]	@ (800417c <HAL_ADCEx_MultiModeConfigChannel+0x1f8>)
 8004078:	f7ff ff5e 	bl	8003f38 <LL_ADC_IsEnabled>
 800407c:	4603      	mov	r3, r0
 800407e:	4323      	orrs	r3, r4
 8004080:	2b00      	cmp	r3, #0
 8004082:	bf0c      	ite	eq
 8004084:	2301      	moveq	r3, #1
 8004086:	2300      	movne	r3, #0
 8004088:	b2db      	uxtb	r3, r3
 800408a:	e012      	b.n	80040b2 <HAL_ADCEx_MultiModeConfigChannel+0x12e>
 800408c:	483c      	ldr	r0, [pc, #240]	@ (8004180 <HAL_ADCEx_MultiModeConfigChannel+0x1fc>)
 800408e:	f7ff ff53 	bl	8003f38 <LL_ADC_IsEnabled>
 8004092:	4604      	mov	r4, r0
 8004094:	483b      	ldr	r0, [pc, #236]	@ (8004184 <HAL_ADCEx_MultiModeConfigChannel+0x200>)
 8004096:	f7ff ff4f 	bl	8003f38 <LL_ADC_IsEnabled>
 800409a:	4603      	mov	r3, r0
 800409c:	431c      	orrs	r4, r3
 800409e:	483c      	ldr	r0, [pc, #240]	@ (8004190 <HAL_ADCEx_MultiModeConfigChannel+0x20c>)
 80040a0:	f7ff ff4a 	bl	8003f38 <LL_ADC_IsEnabled>
 80040a4:	4603      	mov	r3, r0
 80040a6:	4323      	orrs	r3, r4
 80040a8:	2b00      	cmp	r3, #0
 80040aa:	bf0c      	ite	eq
 80040ac:	2301      	moveq	r3, #1
 80040ae:	2300      	movne	r3, #0
 80040b0:	b2db      	uxtb	r3, r3
 80040b2:	2b00      	cmp	r3, #0
 80040b4:	d056      	beq.n	8004164 <HAL_ADCEx_MultiModeConfigChannel+0x1e0>
      {
        MODIFY_REG(tmpADC_Common->CCR,
 80040b6:	6f7b      	ldr	r3, [r7, #116]	@ 0x74
 80040b8:	689b      	ldr	r3, [r3, #8]
 80040ba:	f423 6371 	bic.w	r3, r3, #3856	@ 0xf10
 80040be:	f023 030f 	bic.w	r3, r3, #15
 80040c2:	683a      	ldr	r2, [r7, #0]
 80040c4:	6811      	ldr	r1, [r2, #0]
 80040c6:	683a      	ldr	r2, [r7, #0]
 80040c8:	6892      	ldr	r2, [r2, #8]
 80040ca:	430a      	orrs	r2, r1
 80040cc:	431a      	orrs	r2, r3
 80040ce:	6f7b      	ldr	r3, [r7, #116]	@ 0x74
 80040d0:	609a      	str	r2, [r3, #8]
    if (pMultimode->Mode != ADC_MODE_INDEPENDENT)
 80040d2:	e047      	b.n	8004164 <HAL_ADCEx_MultiModeConfigChannel+0x1e0>
                  );
      }
    }
    else /* ADC_MODE_INDEPENDENT */
    {
      CLEAR_BIT(tmpADC_Common->CCR, ADC_CCR_MDMA | ADC_CCR_DMACFG);
 80040d4:	6f7b      	ldr	r3, [r7, #116]	@ 0x74
 80040d6:	689b      	ldr	r3, [r3, #8]
 80040d8:	f423 4260 	bic.w	r2, r3, #57344	@ 0xe000
 80040dc:	6f7b      	ldr	r3, [r7, #116]	@ 0x74
 80040de:	609a      	str	r2, [r3, #8]

      /* Parameters that can be updated only when ADC is disabled:                */
      /*  - Multimode mode selection                                              */
      /*  - Multimode delay                                                       */
      if (__LL_ADC_IS_ENABLED_ALL_COMMON_INSTANCE(__LL_ADC_COMMON_INSTANCE(hadc->Instance)) == 0UL)
 80040e0:	687b      	ldr	r3, [r7, #4]
 80040e2:	681b      	ldr	r3, [r3, #0]
 80040e4:	f1b3 4fa0 	cmp.w	r3, #1342177280	@ 0x50000000
 80040e8:	d004      	beq.n	80040f4 <HAL_ADCEx_MultiModeConfigChannel+0x170>
 80040ea:	687b      	ldr	r3, [r7, #4]
 80040ec:	681b      	ldr	r3, [r3, #0]
 80040ee:	4a23      	ldr	r2, [pc, #140]	@ (800417c <HAL_ADCEx_MultiModeConfigChannel+0x1f8>)
 80040f0:	4293      	cmp	r3, r2
 80040f2:	d10f      	bne.n	8004114 <HAL_ADCEx_MultiModeConfigChannel+0x190>
 80040f4:	f04f 40a0 	mov.w	r0, #1342177280	@ 0x50000000
 80040f8:	f7ff ff1e 	bl	8003f38 <LL_ADC_IsEnabled>
 80040fc:	4604      	mov	r4, r0
 80040fe:	481f      	ldr	r0, [pc, #124]	@ (800417c <HAL_ADCEx_MultiModeConfigChannel+0x1f8>)
 8004100:	f7ff ff1a 	bl	8003f38 <LL_ADC_IsEnabled>
 8004104:	4603      	mov	r3, r0
 8004106:	4323      	orrs	r3, r4
 8004108:	2b00      	cmp	r3, #0
 800410a:	bf0c      	ite	eq
 800410c:	2301      	moveq	r3, #1
 800410e:	2300      	movne	r3, #0
 8004110:	b2db      	uxtb	r3, r3
 8004112:	e012      	b.n	800413a <HAL_ADCEx_MultiModeConfigChannel+0x1b6>
 8004114:	481a      	ldr	r0, [pc, #104]	@ (8004180 <HAL_ADCEx_MultiModeConfigChannel+0x1fc>)
 8004116:	f7ff ff0f 	bl	8003f38 <LL_ADC_IsEnabled>
 800411a:	4604      	mov	r4, r0
 800411c:	4819      	ldr	r0, [pc, #100]	@ (8004184 <HAL_ADCEx_MultiModeConfigChannel+0x200>)
 800411e:	f7ff ff0b 	bl	8003f38 <LL_ADC_IsEnabled>
 8004122:	4603      	mov	r3, r0
 8004124:	431c      	orrs	r4, r3
 8004126:	481a      	ldr	r0, [pc, #104]	@ (8004190 <HAL_ADCEx_MultiModeConfigChannel+0x20c>)
 8004128:	f7ff ff06 	bl	8003f38 <LL_ADC_IsEnabled>
 800412c:	4603      	mov	r3, r0
 800412e:	4323      	orrs	r3, r4
 8004130:	2b00      	cmp	r3, #0
 8004132:	bf0c      	ite	eq
 8004134:	2301      	moveq	r3, #1
 8004136:	2300      	movne	r3, #0
 8004138:	b2db      	uxtb	r3, r3
 800413a:	2b00      	cmp	r3, #0
 800413c:	d012      	beq.n	8004164 <HAL_ADCEx_MultiModeConfigChannel+0x1e0>
      {
        CLEAR_BIT(tmpADC_Common->CCR, ADC_CCR_DUAL | ADC_CCR_DELAY);
 800413e:	6f7b      	ldr	r3, [r7, #116]	@ 0x74
 8004140:	689b      	ldr	r3, [r3, #8]
 8004142:	f423 6371 	bic.w	r3, r3, #3856	@ 0xf10
 8004146:	f023 030f 	bic.w	r3, r3, #15
 800414a:	6f7a      	ldr	r2, [r7, #116]	@ 0x74
 800414c:	6093      	str	r3, [r2, #8]
    if (pMultimode->Mode != ADC_MODE_INDEPENDENT)
 800414e:	e009      	b.n	8004164 <HAL_ADCEx_MultiModeConfigChannel+0x1e0>
  /* If one of the ADC sharing the same common group is enabled, no update    */
  /* could be done on neither of the multimode structure parameters.          */
  else
  {
    /* Update ADC state machine to error */
    SET_BIT(hadc->State, HAL_ADC_STATE_ERROR_CONFIG);
 8004150:	687b      	ldr	r3, [r7, #4]
 8004152:	6ddb      	ldr	r3, [r3, #92]	@ 0x5c
 8004154:	f043 0220 	orr.w	r2, r3, #32
 8004158:	687b      	ldr	r3, [r7, #4]
 800415a:	65da      	str	r2, [r3, #92]	@ 0x5c

    tmp_hal_status = HAL_ERROR;
 800415c:	2301      	movs	r3, #1
 800415e:	f887 307f 	strb.w	r3, [r7, #127]	@ 0x7f
 8004162:	e000      	b.n	8004166 <HAL_ADCEx_MultiModeConfigChannel+0x1e2>
    if (pMultimode->Mode != ADC_MODE_INDEPENDENT)
 8004164:	bf00      	nop
  }

  /* Process unlocked */
  __HAL_UNLOCK(hadc);
 8004166:	687b      	ldr	r3, [r7, #4]
 8004168:	2200      	movs	r2, #0
 800416a:	f883 2058 	strb.w	r2, [r3, #88]	@ 0x58

  /* Return function status */
  return tmp_hal_status;
 800416e:	f897 307f 	ldrb.w	r3, [r7, #127]	@ 0x7f
}
 8004172:	4618      	mov	r0, r3
 8004174:	3784      	adds	r7, #132	@ 0x84
 8004176:	46bd      	mov	sp, r7
 8004178:	bd90      	pop	{r4, r7, pc}
 800417a:	bf00      	nop
 800417c:	50000100 	.word	0x50000100
 8004180:	50000400 	.word	0x50000400
 8004184:	50000500 	.word	0x50000500
 8004188:	50000300 	.word	0x50000300
 800418c:	50000700 	.word	0x50000700
 8004190:	50000600 	.word	0x50000600

08004194 <__NVIC_SetPriorityGrouping>:
           In case of a conflict between priority grouping and available
           priority bits (__NVIC_PRIO_BITS), the smallest possible priority group is set.
  \param [in]      PriorityGroup  Priority grouping field.
 */
__STATIC_INLINE void __NVIC_SetPriorityGrouping(uint32_t PriorityGroup)
{
 8004194:	b480      	push	{r7}
 8004196:	b085      	sub	sp, #20
 8004198:	af00      	add	r7, sp, #0
 800419a:	6078      	str	r0, [r7, #4]
  uint32_t reg_value;
  uint32_t PriorityGroupTmp = (PriorityGroup & (uint32_t)0x07UL);             /* only values 0..7 are used          */
 800419c:	687b      	ldr	r3, [r7, #4]
 800419e:	f003 0307 	and.w	r3, r3, #7
 80041a2:	60fb      	str	r3, [r7, #12]

  reg_value  =  SCB->AIRCR;                                                   /* read old register configuration    */
 80041a4:	4b0c      	ldr	r3, [pc, #48]	@ (80041d8 <__NVIC_SetPriorityGrouping+0x44>)
 80041a6:	68db      	ldr	r3, [r3, #12]
 80041a8:	60bb      	str	r3, [r7, #8]
  reg_value &= ~((uint32_t)(SCB_AIRCR_VECTKEY_Msk | SCB_AIRCR_PRIGROUP_Msk)); /* clear bits to change               */
 80041aa:	68ba      	ldr	r2, [r7, #8]
 80041ac:	f64f 03ff 	movw	r3, #63743	@ 0xf8ff
 80041b0:	4013      	ands	r3, r2
 80041b2:	60bb      	str	r3, [r7, #8]
  reg_value  =  (reg_value                                   |
                ((uint32_t)0x5FAUL << SCB_AIRCR_VECTKEY_Pos) |
                (PriorityGroupTmp << SCB_AIRCR_PRIGROUP_Pos)  );              /* Insert write key and priority group */
 80041b4:	68fb      	ldr	r3, [r7, #12]
 80041b6:	021a      	lsls	r2, r3, #8
                ((uint32_t)0x5FAUL << SCB_AIRCR_VECTKEY_Pos) |
 80041b8:	68bb      	ldr	r3, [r7, #8]
 80041ba:	4313      	orrs	r3, r2
  reg_value  =  (reg_value                                   |
 80041bc:	f043 63bf 	orr.w	r3, r3, #100139008	@ 0x5f80000
 80041c0:	f443 3300 	orr.w	r3, r3, #131072	@ 0x20000
 80041c4:	60bb      	str	r3, [r7, #8]
  SCB->AIRCR =  reg_value;
 80041c6:	4a04      	ldr	r2, [pc, #16]	@ (80041d8 <__NVIC_SetPriorityGrouping+0x44>)
 80041c8:	68bb      	ldr	r3, [r7, #8]
 80041ca:	60d3      	str	r3, [r2, #12]
}
 80041cc:	bf00      	nop
 80041ce:	3714      	adds	r7, #20
 80041d0:	46bd      	mov	sp, r7
 80041d2:	f85d 7b04 	ldr.w	r7, [sp], #4
 80041d6:	4770      	bx	lr
 80041d8:	e000ed00 	.word	0xe000ed00

080041dc <__NVIC_GetPriorityGrouping>:
  \brief   Get Priority Grouping
  \details Reads the priority grouping field from the NVIC Interrupt Controller.
  \return                Priority grouping field (SCB->AIRCR [10:8] PRIGROUP field).
 */
__STATIC_INLINE uint32_t __NVIC_GetPriorityGrouping(void)
{
 80041dc:	b480      	push	{r7}
 80041de:	af00      	add	r7, sp, #0
  return ((uint32_t)((SCB->AIRCR & SCB_AIRCR_PRIGROUP_Msk) >> SCB_AIRCR_PRIGROUP_Pos));
 80041e0:	4b04      	ldr	r3, [pc, #16]	@ (80041f4 <__NVIC_GetPriorityGrouping+0x18>)
 80041e2:	68db      	ldr	r3, [r3, #12]
 80041e4:	0a1b      	lsrs	r3, r3, #8
 80041e6:	f003 0307 	and.w	r3, r3, #7
}
 80041ea:	4618      	mov	r0, r3
 80041ec:	46bd      	mov	sp, r7
 80041ee:	f85d 7b04 	ldr.w	r7, [sp], #4
 80041f2:	4770      	bx	lr
 80041f4:	e000ed00 	.word	0xe000ed00

080041f8 <__NVIC_EnableIRQ>:
  \details Enables a device specific interrupt in the NVIC interrupt controller.
  \param [in]      IRQn  Device specific interrupt number.
  \note    IRQn must not be negative.
 */
__STATIC_INLINE void __NVIC_EnableIRQ(IRQn_Type IRQn)
{
 80041f8:	b480      	push	{r7}
 80041fa:	b083      	sub	sp, #12
 80041fc:	af00      	add	r7, sp, #0
 80041fe:	4603      	mov	r3, r0
 8004200:	71fb      	strb	r3, [r7, #7]
  if ((int32_t)(IRQn) >= 0)
 8004202:	f997 3007 	ldrsb.w	r3, [r7, #7]
 8004206:	2b00      	cmp	r3, #0
 8004208:	db0b      	blt.n	8004222 <__NVIC_EnableIRQ+0x2a>
  {
    __COMPILER_BARRIER();
    NVIC->ISER[(((uint32_t)IRQn) >> 5UL)] = (uint32_t)(1UL << (((uint32_t)IRQn) & 0x1FUL));
 800420a:	79fb      	ldrb	r3, [r7, #7]
 800420c:	f003 021f 	and.w	r2, r3, #31
 8004210:	4907      	ldr	r1, [pc, #28]	@ (8004230 <__NVIC_EnableIRQ+0x38>)
 8004212:	f997 3007 	ldrsb.w	r3, [r7, #7]
 8004216:	095b      	lsrs	r3, r3, #5
 8004218:	2001      	movs	r0, #1
 800421a:	fa00 f202 	lsl.w	r2, r0, r2
 800421e:	f841 2023 	str.w	r2, [r1, r3, lsl #2]
    __COMPILER_BARRIER();
  }
}
 8004222:	bf00      	nop
 8004224:	370c      	adds	r7, #12
 8004226:	46bd      	mov	sp, r7
 8004228:	f85d 7b04 	ldr.w	r7, [sp], #4
 800422c:	4770      	bx	lr
 800422e:	bf00      	nop
 8004230:	e000e100 	.word	0xe000e100

08004234 <__NVIC_SetPriority>:
  \param [in]      IRQn  Interrupt number.
  \param [in]  priority  Priority to set.
  \note    The priority cannot be set for every processor exception.
 */
__STATIC_INLINE void __NVIC_SetPriority(IRQn_Type IRQn, uint32_t priority)
{
 8004234:	b480      	push	{r7}
 8004236:	b083      	sub	sp, #12
 8004238:	af00      	add	r7, sp, #0
 800423a:	4603      	mov	r3, r0
 800423c:	6039      	str	r1, [r7, #0]
 800423e:	71fb      	strb	r3, [r7, #7]
  if ((int32_t)(IRQn) >= 0)
 8004240:	f997 3007 	ldrsb.w	r3, [r7, #7]
 8004244:	2b00      	cmp	r3, #0
 8004246:	db0a      	blt.n	800425e <__NVIC_SetPriority+0x2a>
  {
    NVIC->IP[((uint32_t)IRQn)]               = (uint8_t)((priority << (8U - __NVIC_PRIO_BITS)) & (uint32_t)0xFFUL);
 8004248:	683b      	ldr	r3, [r7, #0]
 800424a:	b2da      	uxtb	r2, r3
 800424c:	490c      	ldr	r1, [pc, #48]	@ (8004280 <__NVIC_SetPriority+0x4c>)
 800424e:	f997 3007 	ldrsb.w	r3, [r7, #7]
 8004252:	0112      	lsls	r2, r2, #4
 8004254:	b2d2      	uxtb	r2, r2
 8004256:	440b      	add	r3, r1
 8004258:	f883 2300 	strb.w	r2, [r3, #768]	@ 0x300
  }
  else
  {
    SCB->SHP[(((uint32_t)IRQn) & 0xFUL)-4UL] = (uint8_t)((priority << (8U - __NVIC_PRIO_BITS)) & (uint32_t)0xFFUL);
  }
}
 800425c:	e00a      	b.n	8004274 <__NVIC_SetPriority+0x40>
    SCB->SHP[(((uint32_t)IRQn) & 0xFUL)-4UL] = (uint8_t)((priority << (8U - __NVIC_PRIO_BITS)) & (uint32_t)0xFFUL);
 800425e:	683b      	ldr	r3, [r7, #0]
 8004260:	b2da      	uxtb	r2, r3
 8004262:	4908      	ldr	r1, [pc, #32]	@ (8004284 <__NVIC_SetPriority+0x50>)
 8004264:	79fb      	ldrb	r3, [r7, #7]
 8004266:	f003 030f 	and.w	r3, r3, #15
 800426a:	3b04      	subs	r3, #4
 800426c:	0112      	lsls	r2, r2, #4
 800426e:	b2d2      	uxtb	r2, r2
 8004270:	440b      	add	r3, r1
 8004272:	761a      	strb	r2, [r3, #24]
}
 8004274:	bf00      	nop
 8004276:	370c      	adds	r7, #12
 8004278:	46bd      	mov	sp, r7
 800427a:	f85d 7b04 	ldr.w	r7, [sp], #4
 800427e:	4770      	bx	lr
 8004280:	e000e100 	.word	0xe000e100
 8004284:	e000ed00 	.word	0xe000ed00

08004288 <NVIC_EncodePriority>:
  \param [in]   PreemptPriority  Preemptive priority value (starting from 0).
  \param [in]       SubPriority  Subpriority value (starting from 0).
  \return                        Encoded priority. Value can be used in the function \ref NVIC_SetPriority().
 */
__STATIC_INLINE uint32_t NVIC_EncodePriority (uint32_t PriorityGroup, uint32_t PreemptPriority, uint32_t SubPriority)
{
 8004288:	b480      	push	{r7}
 800428a:	b089      	sub	sp, #36	@ 0x24
 800428c:	af00      	add	r7, sp, #0
 800428e:	60f8      	str	r0, [r7, #12]
 8004290:	60b9      	str	r1, [r7, #8]
 8004292:	607a      	str	r2, [r7, #4]
  uint32_t PriorityGroupTmp = (PriorityGroup & (uint32_t)0x07UL);   /* only values 0..7 are used          */
 8004294:	68fb      	ldr	r3, [r7, #12]
 8004296:	f003 0307 	and.w	r3, r3, #7
 800429a:	61fb      	str	r3, [r7, #28]
  uint32_t PreemptPriorityBits;
  uint32_t SubPriorityBits;

  PreemptPriorityBits = ((7UL - PriorityGroupTmp) > (uint32_t)(__NVIC_PRIO_BITS)) ? (uint32_t)(__NVIC_PRIO_BITS) : (uint32_t)(7UL - PriorityGroupTmp);
 800429c:	69fb      	ldr	r3, [r7, #28]
 800429e:	f1c3 0307 	rsb	r3, r3, #7
 80042a2:	2b04      	cmp	r3, #4
 80042a4:	bf28      	it	cs
 80042a6:	2304      	movcs	r3, #4
 80042a8:	61bb      	str	r3, [r7, #24]
  SubPriorityBits     = ((PriorityGroupTmp + (uint32_t)(__NVIC_PRIO_BITS)) < (uint32_t)7UL) ? (uint32_t)0UL : (uint32_t)((PriorityGroupTmp - 7UL) + (uint32_t)(__NVIC_PRIO_BITS));
 80042aa:	69fb      	ldr	r3, [r7, #28]
 80042ac:	3304      	adds	r3, #4
 80042ae:	2b06      	cmp	r3, #6
 80042b0:	d902      	bls.n	80042b8 <NVIC_EncodePriority+0x30>
 80042b2:	69fb      	ldr	r3, [r7, #28]
 80042b4:	3b03      	subs	r3, #3
 80042b6:	e000      	b.n	80042ba <NVIC_EncodePriority+0x32>
 80042b8:	2300      	movs	r3, #0
 80042ba:	617b      	str	r3, [r7, #20]

  return (
           ((PreemptPriority & (uint32_t)((1UL << (PreemptPriorityBits)) - 1UL)) << SubPriorityBits) |
 80042bc:	f04f 32ff 	mov.w	r2, #4294967295
 80042c0:	69bb      	ldr	r3, [r7, #24]
 80042c2:	fa02 f303 	lsl.w	r3, r2, r3
 80042c6:	43da      	mvns	r2, r3
 80042c8:	68bb      	ldr	r3, [r7, #8]
 80042ca:	401a      	ands	r2, r3
 80042cc:	697b      	ldr	r3, [r7, #20]
 80042ce:	409a      	lsls	r2, r3
           ((SubPriority     & (uint32_t)((1UL << (SubPriorityBits    )) - 1UL)))
 80042d0:	f04f 31ff 	mov.w	r1, #4294967295
 80042d4:	697b      	ldr	r3, [r7, #20]
 80042d6:	fa01 f303 	lsl.w	r3, r1, r3
 80042da:	43d9      	mvns	r1, r3
 80042dc:	687b      	ldr	r3, [r7, #4]
 80042de:	400b      	ands	r3, r1
           ((PreemptPriority & (uint32_t)((1UL << (PreemptPriorityBits)) - 1UL)) << SubPriorityBits) |
 80042e0:	4313      	orrs	r3, r2
         );
}
 80042e2:	4618      	mov	r0, r3
 80042e4:	3724      	adds	r7, #36	@ 0x24
 80042e6:	46bd      	mov	sp, r7
 80042e8:	f85d 7b04 	ldr.w	r7, [sp], #4
 80042ec:	4770      	bx	lr
	...

080042f0 <SysTick_Config>:
  \note    When the variable <b>__Vendor_SysTickConfig</b> is set to 1, then the
           function <b>SysTick_Config</b> is not included. In this case, the file <b><i>device</i>.h</b>
           must contain a vendor-specific implementation of this function.
 */
__STATIC_INLINE uint32_t SysTick_Config(uint32_t ticks)
{
 80042f0:	b580      	push	{r7, lr}
 80042f2:	b082      	sub	sp, #8
 80042f4:	af00      	add	r7, sp, #0
 80042f6:	6078      	str	r0, [r7, #4]
  if ((ticks - 1UL) > SysTick_LOAD_RELOAD_Msk)
 80042f8:	687b      	ldr	r3, [r7, #4]
 80042fa:	3b01      	subs	r3, #1
 80042fc:	f1b3 7f80 	cmp.w	r3, #16777216	@ 0x1000000
 8004300:	d301      	bcc.n	8004306 <SysTick_Config+0x16>
  {
    return (1UL);                                                   /* Reload value impossible */
 8004302:	2301      	movs	r3, #1
 8004304:	e00f      	b.n	8004326 <SysTick_Config+0x36>
  }

  SysTick->LOAD  = (uint32_t)(ticks - 1UL);                         /* set reload register */
 8004306:	4a0a      	ldr	r2, [pc, #40]	@ (8004330 <SysTick_Config+0x40>)
 8004308:	687b      	ldr	r3, [r7, #4]
 800430a:	3b01      	subs	r3, #1
 800430c:	6053      	str	r3, [r2, #4]
  NVIC_SetPriority (SysTick_IRQn, (1UL << __NVIC_PRIO_BITS) - 1UL); /* set Priority for Systick Interrupt */
 800430e:	210f      	movs	r1, #15
 8004310:	f04f 30ff 	mov.w	r0, #4294967295
 8004314:	f7ff ff8e 	bl	8004234 <__NVIC_SetPriority>
  SysTick->VAL   = 0UL;                                             /* Load the SysTick Counter Value */
 8004318:	4b05      	ldr	r3, [pc, #20]	@ (8004330 <SysTick_Config+0x40>)
 800431a:	2200      	movs	r2, #0
 800431c:	609a      	str	r2, [r3, #8]
  SysTick->CTRL  = SysTick_CTRL_CLKSOURCE_Msk |
 800431e:	4b04      	ldr	r3, [pc, #16]	@ (8004330 <SysTick_Config+0x40>)
 8004320:	2207      	movs	r2, #7
 8004322:	601a      	str	r2, [r3, #0]
                   SysTick_CTRL_TICKINT_Msk   |
                   SysTick_CTRL_ENABLE_Msk;                         /* Enable SysTick IRQ and SysTick Timer */
  return (0UL);                                                     /* Function successful */
 8004324:	2300      	movs	r3, #0
}
 8004326:	4618      	mov	r0, r3
 8004328:	3708      	adds	r7, #8
 800432a:	46bd      	mov	sp, r7
 800432c:	bd80      	pop	{r7, pc}
 800432e:	bf00      	nop
 8004330:	e000e010 	.word	0xe000e010

08004334 <HAL_NVIC_SetPriorityGrouping>:
  * @note   When the NVIC_PriorityGroup_0 is selected, IRQ pre-emption is no more possible.
  *         The pending IRQ priority will be managed only by the subpriority.
  * @retval None
  */
void HAL_NVIC_SetPriorityGrouping(uint32_t PriorityGroup)
{
 8004334:	b580      	push	{r7, lr}
 8004336:	b082      	sub	sp, #8
 8004338:	af00      	add	r7, sp, #0
 800433a:	6078      	str	r0, [r7, #4]
  /* Check the parameters */
  assert_param(IS_NVIC_PRIORITY_GROUP(PriorityGroup));

  /* Set the PRIGROUP[10:8] bits according to the PriorityGroup parameter value */
  NVIC_SetPriorityGrouping(PriorityGroup);
 800433c:	6878      	ldr	r0, [r7, #4]
 800433e:	f7ff ff29 	bl	8004194 <__NVIC_SetPriorityGrouping>
}
 8004342:	bf00      	nop
 8004344:	3708      	adds	r7, #8
 8004346:	46bd      	mov	sp, r7
 8004348:	bd80      	pop	{r7, pc}

0800434a <HAL_NVIC_SetPriority>:
  *         This parameter can be a value between 0 and 15
  *         A lower priority value indicates a higher priority.
  * @retval None
  */
void HAL_NVIC_SetPriority(IRQn_Type IRQn, uint32_t PreemptPriority, uint32_t SubPriority)
{
 800434a:	b580      	push	{r7, lr}
 800434c:	b086      	sub	sp, #24
 800434e:	af00      	add	r7, sp, #0
 8004350:	4603      	mov	r3, r0
 8004352:	60b9      	str	r1, [r7, #8]
 8004354:	607a      	str	r2, [r7, #4]
 8004356:	73fb      	strb	r3, [r7, #15]

  /* Check the parameters */
  assert_param(IS_NVIC_SUB_PRIORITY(SubPriority));
  assert_param(IS_NVIC_PREEMPTION_PRIORITY(PreemptPriority));

  prioritygroup = NVIC_GetPriorityGrouping();
 8004358:	f7ff ff40 	bl	80041dc <__NVIC_GetPriorityGrouping>
 800435c:	6178      	str	r0, [r7, #20]

  NVIC_SetPriority(IRQn, NVIC_EncodePriority(prioritygroup, PreemptPriority, SubPriority));
 800435e:	687a      	ldr	r2, [r7, #4]
 8004360:	68b9      	ldr	r1, [r7, #8]
 8004362:	6978      	ldr	r0, [r7, #20]
 8004364:	f7ff ff90 	bl	8004288 <NVIC_EncodePriority>
 8004368:	4602      	mov	r2, r0
 800436a:	f997 300f 	ldrsb.w	r3, [r7, #15]
 800436e:	4611      	mov	r1, r2
 8004370:	4618      	mov	r0, r3
 8004372:	f7ff ff5f 	bl	8004234 <__NVIC_SetPriority>
}
 8004376:	bf00      	nop
 8004378:	3718      	adds	r7, #24
 800437a:	46bd      	mov	sp, r7
 800437c:	bd80      	pop	{r7, pc}

0800437e <HAL_NVIC_EnableIRQ>:
  *         This parameter can be an enumerator of IRQn_Type enumeration
  *         (For the complete STM32 Devices IRQ Channels list, please refer to the appropriate CMSIS device file (stm32g4xxxx.h))
  * @retval None
  */
void HAL_NVIC_EnableIRQ(IRQn_Type IRQn)
{
 800437e:	b580      	push	{r7, lr}
 8004380:	b082      	sub	sp, #8
 8004382:	af00      	add	r7, sp, #0
 8004384:	4603      	mov	r3, r0
 8004386:	71fb      	strb	r3, [r7, #7]
  /* Check the parameters */
  assert_param(IS_NVIC_DEVICE_IRQ(IRQn));
  
  /* Enable interrupt */
  NVIC_EnableIRQ(IRQn);
 8004388:	f997 3007 	ldrsb.w	r3, [r7, #7]
 800438c:	4618      	mov	r0, r3
 800438e:	f7ff ff33 	bl	80041f8 <__NVIC_EnableIRQ>
}
 8004392:	bf00      	nop
 8004394:	3708      	adds	r7, #8
 8004396:	46bd      	mov	sp, r7
 8004398:	bd80      	pop	{r7, pc}

0800439a <HAL_SYSTICK_Config>:
  * @param  TicksNumb: Specifies the ticks Number of ticks between two interrupts.
  * @retval status:  - 0  Function succeeded.
  *                  - 1  Function failed.
  */
uint32_t HAL_SYSTICK_Config(uint32_t TicksNumb)
{
 800439a:	b580      	push	{r7, lr}
 800439c:	b082      	sub	sp, #8
 800439e:	af00      	add	r7, sp, #0
 80043a0:	6078      	str	r0, [r7, #4]
   return SysTick_Config(TicksNumb);
 80043a2:	6878      	ldr	r0, [r7, #4]
 80043a4:	f7ff ffa4 	bl	80042f0 <SysTick_Config>
 80043a8:	4603      	mov	r3, r0
}
 80043aa:	4618      	mov	r0, r3
 80043ac:	3708      	adds	r7, #8
 80043ae:	46bd      	mov	sp, r7
 80043b0:	bd80      	pop	{r7, pc}
	...

080043b4 <HAL_FDCAN_Init>:
  * @param  hfdcan pointer to an FDCAN_HandleTypeDef structure that contains
  *         the configuration information for the specified FDCAN.
  * @retval HAL status
  */
HAL_StatusTypeDef HAL_FDCAN_Init(FDCAN_HandleTypeDef *hfdcan)
{
 80043b4:	b580      	push	{r7, lr}
 80043b6:	b084      	sub	sp, #16
 80043b8:	af00      	add	r7, sp, #0
 80043ba:	6078      	str	r0, [r7, #4]
  uint32_t tickstart;

  /* Check FDCAN handle */
  if (hfdcan == NULL)
 80043bc:	687b      	ldr	r3, [r7, #4]
 80043be:	2b00      	cmp	r3, #0
 80043c0:	d101      	bne.n	80043c6 <HAL_FDCAN_Init+0x12>
  {
    return HAL_ERROR;
 80043c2:	2301      	movs	r3, #1
 80043c4:	e147      	b.n	8004656 <HAL_FDCAN_Init+0x2a2>

    /* Init the low level hardware: CLOCK, NVIC */
    hfdcan->MspInitCallback(hfdcan);
  }
#else
  if (hfdcan->State == HAL_FDCAN_STATE_RESET)
 80043c6:	687b      	ldr	r3, [r7, #4]
 80043c8:	f893 305c 	ldrb.w	r3, [r3, #92]	@ 0x5c
 80043cc:	b2db      	uxtb	r3, r3
 80043ce:	2b00      	cmp	r3, #0
 80043d0:	d106      	bne.n	80043e0 <HAL_FDCAN_Init+0x2c>
  {
    /* Allocate lock resource and initialize it */
    hfdcan->Lock = HAL_UNLOCKED;
 80043d2:	687b      	ldr	r3, [r7, #4]
 80043d4:	2200      	movs	r2, #0
 80043d6:	f883 205d 	strb.w	r2, [r3, #93]	@ 0x5d

    /* Init the low level hardware: CLOCK, NVIC */
    HAL_FDCAN_MspInit(hfdcan);
 80043da:	6878      	ldr	r0, [r7, #4]
 80043dc:	f7fe f9a6 	bl	800272c <HAL_FDCAN_MspInit>
  }
#endif /* USE_HAL_FDCAN_REGISTER_CALLBACKS */

  /* Exit from Sleep mode */
  CLEAR_BIT(hfdcan->Instance->CCCR, FDCAN_CCCR_CSR);
 80043e0:	687b      	ldr	r3, [r7, #4]
 80043e2:	681b      	ldr	r3, [r3, #0]
 80043e4:	699a      	ldr	r2, [r3, #24]
 80043e6:	687b      	ldr	r3, [r7, #4]
 80043e8:	681b      	ldr	r3, [r3, #0]
 80043ea:	f022 0210 	bic.w	r2, r2, #16
 80043ee:	619a      	str	r2, [r3, #24]

  /* Get tick */
  tickstart = HAL_GetTick();
 80043f0:	f7fe fda2 	bl	8002f38 <HAL_GetTick>
 80043f4:	60f8      	str	r0, [r7, #12]

  /* Check Sleep mode acknowledge */
  while ((hfdcan->Instance->CCCR & FDCAN_CCCR_CSA) == FDCAN_CCCR_CSA)
 80043f6:	e012      	b.n	800441e <HAL_FDCAN_Init+0x6a>
  {
    if ((HAL_GetTick() - tickstart) > FDCAN_TIMEOUT_VALUE)
 80043f8:	f7fe fd9e 	bl	8002f38 <HAL_GetTick>
 80043fc:	4602      	mov	r2, r0
 80043fe:	68fb      	ldr	r3, [r7, #12]
 8004400:	1ad3      	subs	r3, r2, r3
 8004402:	2b0a      	cmp	r3, #10
 8004404:	d90b      	bls.n	800441e <HAL_FDCAN_Init+0x6a>
    {
      /* Update error code */
      hfdcan->ErrorCode |= HAL_FDCAN_ERROR_TIMEOUT;
 8004406:	687b      	ldr	r3, [r7, #4]
 8004408:	6e1b      	ldr	r3, [r3, #96]	@ 0x60
 800440a:	f043 0201 	orr.w	r2, r3, #1
 800440e:	687b      	ldr	r3, [r7, #4]
 8004410:	661a      	str	r2, [r3, #96]	@ 0x60

      /* Change FDCAN state */
      hfdcan->State = HAL_FDCAN_STATE_ERROR;
 8004412:	687b      	ldr	r3, [r7, #4]
 8004414:	2203      	movs	r2, #3
 8004416:	f883 205c 	strb.w	r2, [r3, #92]	@ 0x5c

      return HAL_ERROR;
 800441a:	2301      	movs	r3, #1
 800441c:	e11b      	b.n	8004656 <HAL_FDCAN_Init+0x2a2>
  while ((hfdcan->Instance->CCCR & FDCAN_CCCR_CSA) == FDCAN_CCCR_CSA)
 800441e:	687b      	ldr	r3, [r7, #4]
 8004420:	681b      	ldr	r3, [r3, #0]
 8004422:	699b      	ldr	r3, [r3, #24]
 8004424:	f003 0308 	and.w	r3, r3, #8
 8004428:	2b08      	cmp	r3, #8
 800442a:	d0e5      	beq.n	80043f8 <HAL_FDCAN_Init+0x44>
    }
  }

  /* Request initialisation */
  SET_BIT(hfdcan->Instance->CCCR, FDCAN_CCCR_INIT);
 800442c:	687b      	ldr	r3, [r7, #4]
 800442e:	681b      	ldr	r3, [r3, #0]
 8004430:	699a      	ldr	r2, [r3, #24]
 8004432:	687b      	ldr	r3, [r7, #4]
 8004434:	681b      	ldr	r3, [r3, #0]
 8004436:	f042 0201 	orr.w	r2, r2, #1
 800443a:	619a      	str	r2, [r3, #24]

  /* Get tick */
  tickstart = HAL_GetTick();
 800443c:	f7fe fd7c 	bl	8002f38 <HAL_GetTick>
 8004440:	60f8      	str	r0, [r7, #12]

  /* Wait until the INIT bit into CCCR register is set */
  while ((hfdcan->Instance->CCCR & FDCAN_CCCR_INIT) == 0U)
 8004442:	e012      	b.n	800446a <HAL_FDCAN_Init+0xb6>
  {
    /* Check for the Timeout */
    if ((HAL_GetTick() - tickstart) > FDCAN_TIMEOUT_VALUE)
 8004444:	f7fe fd78 	bl	8002f38 <HAL_GetTick>
 8004448:	4602      	mov	r2, r0
 800444a:	68fb      	ldr	r3, [r7, #12]
 800444c:	1ad3      	subs	r3, r2, r3
 800444e:	2b0a      	cmp	r3, #10
 8004450:	d90b      	bls.n	800446a <HAL_FDCAN_Init+0xb6>
    {
      /* Update error code */
      hfdcan->ErrorCode |= HAL_FDCAN_ERROR_TIMEOUT;
 8004452:	687b      	ldr	r3, [r7, #4]
 8004454:	6e1b      	ldr	r3, [r3, #96]	@ 0x60
 8004456:	f043 0201 	orr.w	r2, r3, #1
 800445a:	687b      	ldr	r3, [r7, #4]
 800445c:	661a      	str	r2, [r3, #96]	@ 0x60

      /* Change FDCAN state */
      hfdcan->State = HAL_FDCAN_STATE_ERROR;
 800445e:	687b      	ldr	r3, [r7, #4]
 8004460:	2203      	movs	r2, #3
 8004462:	f883 205c 	strb.w	r2, [r3, #92]	@ 0x5c

      return HAL_ERROR;
 8004466:	2301      	movs	r3, #1
 8004468:	e0f5      	b.n	8004656 <HAL_FDCAN_Init+0x2a2>
  while ((hfdcan->Instance->CCCR & FDCAN_CCCR_INIT) == 0U)
 800446a:	687b      	ldr	r3, [r7, #4]
 800446c:	681b      	ldr	r3, [r3, #0]
 800446e:	699b      	ldr	r3, [r3, #24]
 8004470:	f003 0301 	and.w	r3, r3, #1
 8004474:	2b00      	cmp	r3, #0
 8004476:	d0e5      	beq.n	8004444 <HAL_FDCAN_Init+0x90>
    }
  }

  /* Enable configuration change */
  SET_BIT(hfdcan->Instance->CCCR, FDCAN_CCCR_CCE);
 8004478:	687b      	ldr	r3, [r7, #4]
 800447a:	681b      	ldr	r3, [r3, #0]
 800447c:	699a      	ldr	r2, [r3, #24]
 800447e:	687b      	ldr	r3, [r7, #4]
 8004480:	681b      	ldr	r3, [r3, #0]
 8004482:	f042 0202 	orr.w	r2, r2, #2
 8004486:	619a      	str	r2, [r3, #24]

  /* Check FDCAN instance */
  if (hfdcan->Instance == FDCAN1)
 8004488:	687b      	ldr	r3, [r7, #4]
 800448a:	681b      	ldr	r3, [r3, #0]
 800448c:	4a74      	ldr	r2, [pc, #464]	@ (8004660 <HAL_FDCAN_Init+0x2ac>)
 800448e:	4293      	cmp	r3, r2
 8004490:	d103      	bne.n	800449a <HAL_FDCAN_Init+0xe6>
  {
    /* Configure Clock divider */
    FDCAN_CONFIG->CKDIV = hfdcan->Init.ClockDivider;
 8004492:	4a74      	ldr	r2, [pc, #464]	@ (8004664 <HAL_FDCAN_Init+0x2b0>)
 8004494:	687b      	ldr	r3, [r7, #4]
 8004496:	685b      	ldr	r3, [r3, #4]
 8004498:	6013      	str	r3, [r2, #0]
  }

  /* Set the no automatic retransmission */
  if (hfdcan->Init.AutoRetransmission == ENABLE)
 800449a:	687b      	ldr	r3, [r7, #4]
 800449c:	7c1b      	ldrb	r3, [r3, #16]
 800449e:	2b01      	cmp	r3, #1
 80044a0:	d108      	bne.n	80044b4 <HAL_FDCAN_Init+0x100>
  {
    CLEAR_BIT(hfdcan->Instance->CCCR, FDCAN_CCCR_DAR);
 80044a2:	687b      	ldr	r3, [r7, #4]
 80044a4:	681b      	ldr	r3, [r3, #0]
 80044a6:	699a      	ldr	r2, [r3, #24]
 80044a8:	687b      	ldr	r3, [r7, #4]
 80044aa:	681b      	ldr	r3, [r3, #0]
 80044ac:	f022 0240 	bic.w	r2, r2, #64	@ 0x40
 80044b0:	619a      	str	r2, [r3, #24]
 80044b2:	e007      	b.n	80044c4 <HAL_FDCAN_Init+0x110>
  }
  else
  {
    SET_BIT(hfdcan->Instance->CCCR, FDCAN_CCCR_DAR);
 80044b4:	687b      	ldr	r3, [r7, #4]
 80044b6:	681b      	ldr	r3, [r3, #0]
 80044b8:	699a      	ldr	r2, [r3, #24]
 80044ba:	687b      	ldr	r3, [r7, #4]
 80044bc:	681b      	ldr	r3, [r3, #0]
 80044be:	f042 0240 	orr.w	r2, r2, #64	@ 0x40
 80044c2:	619a      	str	r2, [r3, #24]
  }

  /* Set the transmit pause feature */
  if (hfdcan->Init.TransmitPause == ENABLE)
 80044c4:	687b      	ldr	r3, [r7, #4]
 80044c6:	7c5b      	ldrb	r3, [r3, #17]
 80044c8:	2b01      	cmp	r3, #1
 80044ca:	d108      	bne.n	80044de <HAL_FDCAN_Init+0x12a>
  {
    SET_BIT(hfdcan->Instance->CCCR, FDCAN_CCCR_TXP);
 80044cc:	687b      	ldr	r3, [r7, #4]
 80044ce:	681b      	ldr	r3, [r3, #0]
 80044d0:	699a      	ldr	r2, [r3, #24]
 80044d2:	687b      	ldr	r3, [r7, #4]
 80044d4:	681b      	ldr	r3, [r3, #0]
 80044d6:	f442 4280 	orr.w	r2, r2, #16384	@ 0x4000
 80044da:	619a      	str	r2, [r3, #24]
 80044dc:	e007      	b.n	80044ee <HAL_FDCAN_Init+0x13a>
  }
  else
  {
    CLEAR_BIT(hfdcan->Instance->CCCR, FDCAN_CCCR_TXP);
 80044de:	687b      	ldr	r3, [r7, #4]
 80044e0:	681b      	ldr	r3, [r3, #0]
 80044e2:	699a      	ldr	r2, [r3, #24]
 80044e4:	687b      	ldr	r3, [r7, #4]
 80044e6:	681b      	ldr	r3, [r3, #0]
 80044e8:	f422 4280 	bic.w	r2, r2, #16384	@ 0x4000
 80044ec:	619a      	str	r2, [r3, #24]
  }

  /* Set the Protocol Exception Handling */
  if (hfdcan->Init.ProtocolException == ENABLE)
 80044ee:	687b      	ldr	r3, [r7, #4]
 80044f0:	7c9b      	ldrb	r3, [r3, #18]
 80044f2:	2b01      	cmp	r3, #1
 80044f4:	d108      	bne.n	8004508 <HAL_FDCAN_Init+0x154>
  {
    CLEAR_BIT(hfdcan->Instance->CCCR, FDCAN_CCCR_PXHD);
 80044f6:	687b      	ldr	r3, [r7, #4]
 80044f8:	681b      	ldr	r3, [r3, #0]
 80044fa:	699a      	ldr	r2, [r3, #24]
 80044fc:	687b      	ldr	r3, [r7, #4]
 80044fe:	681b      	ldr	r3, [r3, #0]
 8004500:	f422 5280 	bic.w	r2, r2, #4096	@ 0x1000
 8004504:	619a      	str	r2, [r3, #24]
 8004506:	e007      	b.n	8004518 <HAL_FDCAN_Init+0x164>
  }
  else
  {
    SET_BIT(hfdcan->Instance->CCCR, FDCAN_CCCR_PXHD);
 8004508:	687b      	ldr	r3, [r7, #4]
 800450a:	681b      	ldr	r3, [r3, #0]
 800450c:	699a      	ldr	r2, [r3, #24]
 800450e:	687b      	ldr	r3, [r7, #4]
 8004510:	681b      	ldr	r3, [r3, #0]
 8004512:	f442 5280 	orr.w	r2, r2, #4096	@ 0x1000
 8004516:	619a      	str	r2, [r3, #24]
  }

  /* Set FDCAN Frame Format */
  MODIFY_REG(hfdcan->Instance->CCCR, FDCAN_FRAME_FD_BRS, hfdcan->Init.FrameFormat);
 8004518:	687b      	ldr	r3, [r7, #4]
 800451a:	681b      	ldr	r3, [r3, #0]
 800451c:	699b      	ldr	r3, [r3, #24]
 800451e:	f423 7140 	bic.w	r1, r3, #768	@ 0x300
 8004522:	687b      	ldr	r3, [r7, #4]
 8004524:	689a      	ldr	r2, [r3, #8]
 8004526:	687b      	ldr	r3, [r7, #4]
 8004528:	681b      	ldr	r3, [r3, #0]
 800452a:	430a      	orrs	r2, r1
 800452c:	619a      	str	r2, [r3, #24]

  /* Reset FDCAN Operation Mode */
  CLEAR_BIT(hfdcan->Instance->CCCR, (FDCAN_CCCR_TEST | FDCAN_CCCR_MON | FDCAN_CCCR_ASM));
 800452e:	687b      	ldr	r3, [r7, #4]
 8004530:	681b      	ldr	r3, [r3, #0]
 8004532:	699a      	ldr	r2, [r3, #24]
 8004534:	687b      	ldr	r3, [r7, #4]
 8004536:	681b      	ldr	r3, [r3, #0]
 8004538:	f022 02a4 	bic.w	r2, r2, #164	@ 0xa4
 800453c:	619a      	str	r2, [r3, #24]
  CLEAR_BIT(hfdcan->Instance->TEST, FDCAN_TEST_LBCK);
 800453e:	687b      	ldr	r3, [r7, #4]
 8004540:	681b      	ldr	r3, [r3, #0]
 8004542:	691a      	ldr	r2, [r3, #16]
 8004544:	687b      	ldr	r3, [r7, #4]
 8004546:	681b      	ldr	r3, [r3, #0]
 8004548:	f022 0210 	bic.w	r2, r2, #16
 800454c:	611a      	str	r2, [r3, #16]
     CCCR.TEST |   0    |     0      |     0      |    1     |    1
     CCCR.MON  |   0    |     0      |     1      |    1     |    0
     TEST.LBCK |   0    |     0      |     0      |    1     |    1
     CCCR.ASM  |   0    |     1      |     0      |    0     |    0
  */
  if (hfdcan->Init.Mode == FDCAN_MODE_RESTRICTED_OPERATION)
 800454e:	687b      	ldr	r3, [r7, #4]
 8004550:	68db      	ldr	r3, [r3, #12]
 8004552:	2b01      	cmp	r3, #1
 8004554:	d108      	bne.n	8004568 <HAL_FDCAN_Init+0x1b4>
  {
    /* Enable Restricted Operation mode */
    SET_BIT(hfdcan->Instance->CCCR, FDCAN_CCCR_ASM);
 8004556:	687b      	ldr	r3, [r7, #4]
 8004558:	681b      	ldr	r3, [r3, #0]
 800455a:	699a      	ldr	r2, [r3, #24]
 800455c:	687b      	ldr	r3, [r7, #4]
 800455e:	681b      	ldr	r3, [r3, #0]
 8004560:	f042 0204 	orr.w	r2, r2, #4
 8004564:	619a      	str	r2, [r3, #24]
 8004566:	e02c      	b.n	80045c2 <HAL_FDCAN_Init+0x20e>
  }
  else if (hfdcan->Init.Mode != FDCAN_MODE_NORMAL)
 8004568:	687b      	ldr	r3, [r7, #4]
 800456a:	68db      	ldr	r3, [r3, #12]
 800456c:	2b00      	cmp	r3, #0
 800456e:	d028      	beq.n	80045c2 <HAL_FDCAN_Init+0x20e>
  {
    if (hfdcan->Init.Mode != FDCAN_MODE_BUS_MONITORING)
 8004570:	687b      	ldr	r3, [r7, #4]
 8004572:	68db      	ldr	r3, [r3, #12]
 8004574:	2b02      	cmp	r3, #2
 8004576:	d01c      	beq.n	80045b2 <HAL_FDCAN_Init+0x1fe>
    {
      /* Enable write access to TEST register */
      SET_BIT(hfdcan->Instance->CCCR, FDCAN_CCCR_TEST);
 8004578:	687b      	ldr	r3, [r7, #4]
 800457a:	681b      	ldr	r3, [r3, #0]
 800457c:	699a      	ldr	r2, [r3, #24]
 800457e:	687b      	ldr	r3, [r7, #4]
 8004580:	681b      	ldr	r3, [r3, #0]
 8004582:	f042 0280 	orr.w	r2, r2, #128	@ 0x80
 8004586:	619a      	str	r2, [r3, #24]

      /* Enable LoopBack mode */
      SET_BIT(hfdcan->Instance->TEST, FDCAN_TEST_LBCK);
 8004588:	687b      	ldr	r3, [r7, #4]
 800458a:	681b      	ldr	r3, [r3, #0]
 800458c:	691a      	ldr	r2, [r3, #16]
 800458e:	687b      	ldr	r3, [r7, #4]
 8004590:	681b      	ldr	r3, [r3, #0]
 8004592:	f042 0210 	orr.w	r2, r2, #16
 8004596:	611a      	str	r2, [r3, #16]

      if (hfdcan->Init.Mode == FDCAN_MODE_INTERNAL_LOOPBACK)
 8004598:	687b      	ldr	r3, [r7, #4]
 800459a:	68db      	ldr	r3, [r3, #12]
 800459c:	2b03      	cmp	r3, #3
 800459e:	d110      	bne.n	80045c2 <HAL_FDCAN_Init+0x20e>
      {
        SET_BIT(hfdcan->Instance->CCCR, FDCAN_CCCR_MON);
 80045a0:	687b      	ldr	r3, [r7, #4]
 80045a2:	681b      	ldr	r3, [r3, #0]
 80045a4:	699a      	ldr	r2, [r3, #24]
 80045a6:	687b      	ldr	r3, [r7, #4]
 80045a8:	681b      	ldr	r3, [r3, #0]
 80045aa:	f042 0220 	orr.w	r2, r2, #32
 80045ae:	619a      	str	r2, [r3, #24]
 80045b0:	e007      	b.n	80045c2 <HAL_FDCAN_Init+0x20e>
      }
    }
    else
    {
      /* Enable bus monitoring mode */
      SET_BIT(hfdcan->Instance->CCCR, FDCAN_CCCR_MON);
 80045b2:	687b      	ldr	r3, [r7, #4]
 80045b4:	681b      	ldr	r3, [r3, #0]
 80045b6:	699a      	ldr	r2, [r3, #24]
 80045b8:	687b      	ldr	r3, [r7, #4]
 80045ba:	681b      	ldr	r3, [r3, #0]
 80045bc:	f042 0220 	orr.w	r2, r2, #32
 80045c0:	619a      	str	r2, [r3, #24]
  {
    /* Nothing to do: normal mode */
  }

  /* Set the nominal bit timing register */
  hfdcan->Instance->NBTP = ((((uint32_t)hfdcan->Init.NominalSyncJumpWidth - 1U) << FDCAN_NBTP_NSJW_Pos) | \
 80045c2:	687b      	ldr	r3, [r7, #4]
 80045c4:	699b      	ldr	r3, [r3, #24]
 80045c6:	3b01      	subs	r3, #1
 80045c8:	065a      	lsls	r2, r3, #25
                            (((uint32_t)hfdcan->Init.NominalTimeSeg1 - 1U) << FDCAN_NBTP_NTSEG1_Pos)    | \
 80045ca:	687b      	ldr	r3, [r7, #4]
 80045cc:	69db      	ldr	r3, [r3, #28]
 80045ce:	3b01      	subs	r3, #1
 80045d0:	021b      	lsls	r3, r3, #8
  hfdcan->Instance->NBTP = ((((uint32_t)hfdcan->Init.NominalSyncJumpWidth - 1U) << FDCAN_NBTP_NSJW_Pos) | \
 80045d2:	431a      	orrs	r2, r3
                            (((uint32_t)hfdcan->Init.NominalTimeSeg2 - 1U) << FDCAN_NBTP_NTSEG2_Pos)    | \
 80045d4:	687b      	ldr	r3, [r7, #4]
 80045d6:	6a1b      	ldr	r3, [r3, #32]
 80045d8:	3b01      	subs	r3, #1
                            (((uint32_t)hfdcan->Init.NominalTimeSeg1 - 1U) << FDCAN_NBTP_NTSEG1_Pos)    | \
 80045da:	ea42 0103 	orr.w	r1, r2, r3
                            (((uint32_t)hfdcan->Init.NominalPrescaler - 1U) << FDCAN_NBTP_NBRP_Pos));
 80045de:	687b      	ldr	r3, [r7, #4]
 80045e0:	695b      	ldr	r3, [r3, #20]
 80045e2:	3b01      	subs	r3, #1
 80045e4:	041a      	lsls	r2, r3, #16
  hfdcan->Instance->NBTP = ((((uint32_t)hfdcan->Init.NominalSyncJumpWidth - 1U) << FDCAN_NBTP_NSJW_Pos) | \
 80045e6:	687b      	ldr	r3, [r7, #4]
 80045e8:	681b      	ldr	r3, [r3, #0]
                            (((uint32_t)hfdcan->Init.NominalTimeSeg2 - 1U) << FDCAN_NBTP_NTSEG2_Pos)    | \
 80045ea:	430a      	orrs	r2, r1
  hfdcan->Instance->NBTP = ((((uint32_t)hfdcan->Init.NominalSyncJumpWidth - 1U) << FDCAN_NBTP_NSJW_Pos) | \
 80045ec:	61da      	str	r2, [r3, #28]

  /* If FD operation with BRS is selected, set the data bit timing register */
  if (hfdcan->Init.FrameFormat == FDCAN_FRAME_FD_BRS)
 80045ee:	687b      	ldr	r3, [r7, #4]
 80045f0:	689b      	ldr	r3, [r3, #8]
 80045f2:	f5b3 7f40 	cmp.w	r3, #768	@ 0x300
 80045f6:	d115      	bne.n	8004624 <HAL_FDCAN_Init+0x270>
  {
    hfdcan->Instance->DBTP = ((((uint32_t)hfdcan->Init.DataSyncJumpWidth - 1U) << FDCAN_DBTP_DSJW_Pos)  | \
 80045f8:	687b      	ldr	r3, [r7, #4]
 80045fa:	6a9b      	ldr	r3, [r3, #40]	@ 0x28
 80045fc:	1e5a      	subs	r2, r3, #1
                              (((uint32_t)hfdcan->Init.DataTimeSeg1 - 1U) << FDCAN_DBTP_DTSEG1_Pos)     | \
 80045fe:	687b      	ldr	r3, [r7, #4]
 8004600:	6adb      	ldr	r3, [r3, #44]	@ 0x2c
 8004602:	3b01      	subs	r3, #1
 8004604:	021b      	lsls	r3, r3, #8
    hfdcan->Instance->DBTP = ((((uint32_t)hfdcan->Init.DataSyncJumpWidth - 1U) << FDCAN_DBTP_DSJW_Pos)  | \
 8004606:	431a      	orrs	r2, r3
                              (((uint32_t)hfdcan->Init.DataTimeSeg2 - 1U) << FDCAN_DBTP_DTSEG2_Pos)     | \
 8004608:	687b      	ldr	r3, [r7, #4]
 800460a:	6b1b      	ldr	r3, [r3, #48]	@ 0x30
 800460c:	3b01      	subs	r3, #1
 800460e:	011b      	lsls	r3, r3, #4
                              (((uint32_t)hfdcan->Init.DataTimeSeg1 - 1U) << FDCAN_DBTP_DTSEG1_Pos)     | \
 8004610:	ea42 0103 	orr.w	r1, r2, r3
                              (((uint32_t)hfdcan->Init.DataPrescaler - 1U) << FDCAN_DBTP_DBRP_Pos));
 8004614:	687b      	ldr	r3, [r7, #4]
 8004616:	6a5b      	ldr	r3, [r3, #36]	@ 0x24
 8004618:	3b01      	subs	r3, #1
 800461a:	041a      	lsls	r2, r3, #16
    hfdcan->Instance->DBTP = ((((uint32_t)hfdcan->Init.DataSyncJumpWidth - 1U) << FDCAN_DBTP_DSJW_Pos)  | \
 800461c:	687b      	ldr	r3, [r7, #4]
 800461e:	681b      	ldr	r3, [r3, #0]
                              (((uint32_t)hfdcan->Init.DataTimeSeg2 - 1U) << FDCAN_DBTP_DTSEG2_Pos)     | \
 8004620:	430a      	orrs	r2, r1
    hfdcan->Instance->DBTP = ((((uint32_t)hfdcan->Init.DataSyncJumpWidth - 1U) << FDCAN_DBTP_DSJW_Pos)  | \
 8004622:	60da      	str	r2, [r3, #12]
  }

  /* Select between Tx FIFO and Tx Queue operation modes */
  SET_BIT(hfdcan->Instance->TXBC, hfdcan->Init.TxFifoQueueMode);
 8004624:	687b      	ldr	r3, [r7, #4]
 8004626:	681b      	ldr	r3, [r3, #0]
 8004628:	f8d3 10c0 	ldr.w	r1, [r3, #192]	@ 0xc0
 800462c:	687b      	ldr	r3, [r7, #4]
 800462e:	6bda      	ldr	r2, [r3, #60]	@ 0x3c
 8004630:	687b      	ldr	r3, [r7, #4]
 8004632:	681b      	ldr	r3, [r3, #0]
 8004634:	430a      	orrs	r2, r1
 8004636:	f8c3 20c0 	str.w	r2, [r3, #192]	@ 0xc0

  /* Calculate each RAM block address */
  FDCAN_CalcultateRamBlockAddresses(hfdcan);
 800463a:	6878      	ldr	r0, [r7, #4]
 800463c:	f000 fc64 	bl	8004f08 <FDCAN_CalcultateRamBlockAddresses>

  /* Initialize the Latest Tx request buffer index */
  hfdcan->LatestTxFifoQRequest = 0U;
 8004640:	687b      	ldr	r3, [r7, #4]
 8004642:	2200      	movs	r2, #0
 8004644:	659a      	str	r2, [r3, #88]	@ 0x58

  /* Initialize the error code */
  hfdcan->ErrorCode = HAL_FDCAN_ERROR_NONE;
 8004646:	687b      	ldr	r3, [r7, #4]
 8004648:	2200      	movs	r2, #0
 800464a:	661a      	str	r2, [r3, #96]	@ 0x60

  /* Initialize the FDCAN state */
  hfdcan->State = HAL_FDCAN_STATE_READY;
 800464c:	687b      	ldr	r3, [r7, #4]
 800464e:	2201      	movs	r2, #1
 8004650:	f883 205c 	strb.w	r2, [r3, #92]	@ 0x5c

  /* Return function status */
  return HAL_OK;
 8004654:	2300      	movs	r3, #0
}
 8004656:	4618      	mov	r0, r3
 8004658:	3710      	adds	r7, #16
 800465a:	46bd      	mov	sp, r7
 800465c:	bd80      	pop	{r7, pc}
 800465e:	bf00      	nop
 8004660:	40006400 	.word	0x40006400
 8004664:	40006500 	.word	0x40006500

08004668 <HAL_FDCAN_ConfigFilter>:
  * @param  sFilterConfig pointer to an FDCAN_FilterTypeDef structure that
  *         contains the filter configuration information
  * @retval HAL status
  */
HAL_StatusTypeDef HAL_FDCAN_ConfigFilter(FDCAN_HandleTypeDef *hfdcan, const FDCAN_FilterTypeDef *sFilterConfig)
{
 8004668:	b480      	push	{r7}
 800466a:	b087      	sub	sp, #28
 800466c:	af00      	add	r7, sp, #0
 800466e:	6078      	str	r0, [r7, #4]
 8004670:	6039      	str	r1, [r7, #0]
  uint32_t FilterElementW1;
  uint32_t FilterElementW2;
  uint32_t *FilterAddress;
  HAL_FDCAN_StateTypeDef state = hfdcan->State;
 8004672:	687b      	ldr	r3, [r7, #4]
 8004674:	f893 305c 	ldrb.w	r3, [r3, #92]	@ 0x5c
 8004678:	75fb      	strb	r3, [r7, #23]

  if ((state == HAL_FDCAN_STATE_READY) || (state == HAL_FDCAN_STATE_BUSY))
 800467a:	7dfb      	ldrb	r3, [r7, #23]
 800467c:	2b01      	cmp	r3, #1
 800467e:	d002      	beq.n	8004686 <HAL_FDCAN_ConfigFilter+0x1e>
 8004680:	7dfb      	ldrb	r3, [r7, #23]
 8004682:	2b02      	cmp	r3, #2
 8004684:	d13d      	bne.n	8004702 <HAL_FDCAN_ConfigFilter+0x9a>
  {
    /* Check function parameters */
    assert_param(IS_FDCAN_ID_TYPE(sFilterConfig->IdType));
    assert_param(IS_FDCAN_FILTER_CFG(sFilterConfig->FilterConfig));

    if (sFilterConfig->IdType == FDCAN_STANDARD_ID)
 8004686:	683b      	ldr	r3, [r7, #0]
 8004688:	681b      	ldr	r3, [r3, #0]
 800468a:	2b00      	cmp	r3, #0
 800468c:	d119      	bne.n	80046c2 <HAL_FDCAN_ConfigFilter+0x5a>
      assert_param(IS_FDCAN_MAX_VALUE(sFilterConfig->FilterID1, 0x7FFU));
      assert_param(IS_FDCAN_MAX_VALUE(sFilterConfig->FilterID2, 0x7FFU));
      assert_param(IS_FDCAN_STD_FILTER_TYPE(sFilterConfig->FilterType));

      /* Build filter element */
      FilterElementW1 = ((sFilterConfig->FilterType << 30U)   |
 800468e:	683b      	ldr	r3, [r7, #0]
 8004690:	689b      	ldr	r3, [r3, #8]
 8004692:	079a      	lsls	r2, r3, #30
                         (sFilterConfig->FilterConfig << 27U) |
 8004694:	683b      	ldr	r3, [r7, #0]
 8004696:	68db      	ldr	r3, [r3, #12]
 8004698:	06db      	lsls	r3, r3, #27
      FilterElementW1 = ((sFilterConfig->FilterType << 30U)   |
 800469a:	431a      	orrs	r2, r3
                         (sFilterConfig->FilterID1 << 16U)    |
 800469c:	683b      	ldr	r3, [r7, #0]
 800469e:	691b      	ldr	r3, [r3, #16]
 80046a0:	041b      	lsls	r3, r3, #16
                         (sFilterConfig->FilterConfig << 27U) |
 80046a2:	431a      	orrs	r2, r3
                         sFilterConfig->FilterID2);
 80046a4:	683b      	ldr	r3, [r7, #0]
 80046a6:	695b      	ldr	r3, [r3, #20]
      FilterElementW1 = ((sFilterConfig->FilterType << 30U)   |
 80046a8:	4313      	orrs	r3, r2
 80046aa:	613b      	str	r3, [r7, #16]

      /* Calculate filter address */
      FilterAddress = (uint32_t *)(hfdcan->msgRam.StandardFilterSA + (sFilterConfig->FilterIndex * SRAMCAN_FLS_SIZE));
 80046ac:	687b      	ldr	r3, [r7, #4]
 80046ae:	6c1a      	ldr	r2, [r3, #64]	@ 0x40
 80046b0:	683b      	ldr	r3, [r7, #0]
 80046b2:	685b      	ldr	r3, [r3, #4]
 80046b4:	009b      	lsls	r3, r3, #2
 80046b6:	4413      	add	r3, r2
 80046b8:	60bb      	str	r3, [r7, #8]

      /* Write filter element to the message RAM */
      *FilterAddress = FilterElementW1;
 80046ba:	68bb      	ldr	r3, [r7, #8]
 80046bc:	693a      	ldr	r2, [r7, #16]
 80046be:	601a      	str	r2, [r3, #0]
 80046c0:	e01d      	b.n	80046fe <HAL_FDCAN_ConfigFilter+0x96>
      assert_param(IS_FDCAN_MAX_VALUE(sFilterConfig->FilterID1, 0x1FFFFFFFU));
      assert_param(IS_FDCAN_MAX_VALUE(sFilterConfig->FilterID2, 0x1FFFFFFFU));
      assert_param(IS_FDCAN_EXT_FILTER_TYPE(sFilterConfig->FilterType));

      /* Build first word of filter element */
      FilterElementW1 = ((sFilterConfig->FilterConfig << 29U) | sFilterConfig->FilterID1);
 80046c2:	683b      	ldr	r3, [r7, #0]
 80046c4:	68db      	ldr	r3, [r3, #12]
 80046c6:	075a      	lsls	r2, r3, #29
 80046c8:	683b      	ldr	r3, [r7, #0]
 80046ca:	691b      	ldr	r3, [r3, #16]
 80046cc:	4313      	orrs	r3, r2
 80046ce:	613b      	str	r3, [r7, #16]

      /* Build second word of filter element */
      FilterElementW2 = ((sFilterConfig->FilterType << 30U) | sFilterConfig->FilterID2);
 80046d0:	683b      	ldr	r3, [r7, #0]
 80046d2:	689b      	ldr	r3, [r3, #8]
 80046d4:	079a      	lsls	r2, r3, #30
 80046d6:	683b      	ldr	r3, [r7, #0]
 80046d8:	695b      	ldr	r3, [r3, #20]
 80046da:	4313      	orrs	r3, r2
 80046dc:	60fb      	str	r3, [r7, #12]

      /* Calculate filter address */
      FilterAddress = (uint32_t *)(hfdcan->msgRam.ExtendedFilterSA + (sFilterConfig->FilterIndex * SRAMCAN_FLE_SIZE));
 80046de:	687b      	ldr	r3, [r7, #4]
 80046e0:	6c5a      	ldr	r2, [r3, #68]	@ 0x44
 80046e2:	683b      	ldr	r3, [r7, #0]
 80046e4:	685b      	ldr	r3, [r3, #4]
 80046e6:	00db      	lsls	r3, r3, #3
 80046e8:	4413      	add	r3, r2
 80046ea:	60bb      	str	r3, [r7, #8]

      /* Write filter element to the message RAM */
      *FilterAddress = FilterElementW1;
 80046ec:	68bb      	ldr	r3, [r7, #8]
 80046ee:	693a      	ldr	r2, [r7, #16]
 80046f0:	601a      	str	r2, [r3, #0]
      FilterAddress++;
 80046f2:	68bb      	ldr	r3, [r7, #8]
 80046f4:	3304      	adds	r3, #4
 80046f6:	60bb      	str	r3, [r7, #8]
      *FilterAddress = FilterElementW2;
 80046f8:	68bb      	ldr	r3, [r7, #8]
 80046fa:	68fa      	ldr	r2, [r7, #12]
 80046fc:	601a      	str	r2, [r3, #0]
    }

    /* Return function status */
    return HAL_OK;
 80046fe:	2300      	movs	r3, #0
 8004700:	e006      	b.n	8004710 <HAL_FDCAN_ConfigFilter+0xa8>
  }
  else
  {
    /* Update error code */
    hfdcan->ErrorCode |= HAL_FDCAN_ERROR_NOT_INITIALIZED;
 8004702:	687b      	ldr	r3, [r7, #4]
 8004704:	6e1b      	ldr	r3, [r3, #96]	@ 0x60
 8004706:	f043 0202 	orr.w	r2, r3, #2
 800470a:	687b      	ldr	r3, [r7, #4]
 800470c:	661a      	str	r2, [r3, #96]	@ 0x60

    return HAL_ERROR;
 800470e:	2301      	movs	r3, #1
  }
}
 8004710:	4618      	mov	r0, r3
 8004712:	371c      	adds	r7, #28
 8004714:	46bd      	mov	sp, r7
 8004716:	f85d 7b04 	ldr.w	r7, [sp], #4
 800471a:	4770      	bx	lr

0800471c <HAL_FDCAN_Start>:
  * @param  hfdcan pointer to an FDCAN_HandleTypeDef structure that contains
  *         the configuration information for the specified FDCAN.
  * @retval HAL status
  */
HAL_StatusTypeDef HAL_FDCAN_Start(FDCAN_HandleTypeDef *hfdcan)
{
 800471c:	b480      	push	{r7}
 800471e:	b083      	sub	sp, #12
 8004720:	af00      	add	r7, sp, #0
 8004722:	6078      	str	r0, [r7, #4]
  if (hfdcan->State == HAL_FDCAN_STATE_READY)
 8004724:	687b      	ldr	r3, [r7, #4]
 8004726:	f893 305c 	ldrb.w	r3, [r3, #92]	@ 0x5c
 800472a:	b2db      	uxtb	r3, r3
 800472c:	2b01      	cmp	r3, #1
 800472e:	d110      	bne.n	8004752 <HAL_FDCAN_Start+0x36>
  {
    /* Change FDCAN peripheral state */
    hfdcan->State = HAL_FDCAN_STATE_BUSY;
 8004730:	687b      	ldr	r3, [r7, #4]
 8004732:	2202      	movs	r2, #2
 8004734:	f883 205c 	strb.w	r2, [r3, #92]	@ 0x5c

    /* Request leave initialisation */
    CLEAR_BIT(hfdcan->Instance->CCCR, FDCAN_CCCR_INIT);
 8004738:	687b      	ldr	r3, [r7, #4]
 800473a:	681b      	ldr	r3, [r3, #0]
 800473c:	699a      	ldr	r2, [r3, #24]
 800473e:	687b      	ldr	r3, [r7, #4]
 8004740:	681b      	ldr	r3, [r3, #0]
 8004742:	f022 0201 	bic.w	r2, r2, #1
 8004746:	619a      	str	r2, [r3, #24]

    /* Reset the FDCAN ErrorCode */
    hfdcan->ErrorCode = HAL_FDCAN_ERROR_NONE;
 8004748:	687b      	ldr	r3, [r7, #4]
 800474a:	2200      	movs	r2, #0
 800474c:	661a      	str	r2, [r3, #96]	@ 0x60

    /* Return function status */
    return HAL_OK;
 800474e:	2300      	movs	r3, #0
 8004750:	e006      	b.n	8004760 <HAL_FDCAN_Start+0x44>
  }
  else
  {
    /* Update error code */
    hfdcan->ErrorCode |= HAL_FDCAN_ERROR_NOT_READY;
 8004752:	687b      	ldr	r3, [r7, #4]
 8004754:	6e1b      	ldr	r3, [r3, #96]	@ 0x60
 8004756:	f043 0204 	orr.w	r2, r3, #4
 800475a:	687b      	ldr	r3, [r7, #4]
 800475c:	661a      	str	r2, [r3, #96]	@ 0x60

    return HAL_ERROR;
 800475e:	2301      	movs	r3, #1
  }
}
 8004760:	4618      	mov	r0, r3
 8004762:	370c      	adds	r7, #12
 8004764:	46bd      	mov	sp, r7
 8004766:	f85d 7b04 	ldr.w	r7, [sp], #4
 800476a:	4770      	bx	lr

0800476c <HAL_FDCAN_AddMessageToTxFifoQ>:
  * @param  pTxData pointer to a buffer containing the payload of the Tx frame.
  * @retval HAL status
  */
HAL_StatusTypeDef HAL_FDCAN_AddMessageToTxFifoQ(FDCAN_HandleTypeDef *hfdcan, const FDCAN_TxHeaderTypeDef *pTxHeader,
                                                const uint8_t *pTxData)
{
 800476c:	b580      	push	{r7, lr}
 800476e:	b086      	sub	sp, #24
 8004770:	af00      	add	r7, sp, #0
 8004772:	60f8      	str	r0, [r7, #12]
 8004774:	60b9      	str	r1, [r7, #8]
 8004776:	607a      	str	r2, [r7, #4]
  assert_param(IS_FDCAN_BRS(pTxHeader->BitRateSwitch));
  assert_param(IS_FDCAN_FDF(pTxHeader->FDFormat));
  assert_param(IS_FDCAN_EFC(pTxHeader->TxEventFifoControl));
  assert_param(IS_FDCAN_MAX_VALUE(pTxHeader->MessageMarker, 0xFFU));

  if (hfdcan->State == HAL_FDCAN_STATE_BUSY)
 8004778:	68fb      	ldr	r3, [r7, #12]
 800477a:	f893 305c 	ldrb.w	r3, [r3, #92]	@ 0x5c
 800477e:	b2db      	uxtb	r3, r3
 8004780:	2b02      	cmp	r3, #2
 8004782:	d12c      	bne.n	80047de <HAL_FDCAN_AddMessageToTxFifoQ+0x72>
  {
    /* Check that the Tx FIFO/Queue is not full */
    if ((hfdcan->Instance->TXFQS & FDCAN_TXFQS_TFQF) != 0U)
 8004784:	68fb      	ldr	r3, [r7, #12]
 8004786:	681b      	ldr	r3, [r3, #0]
 8004788:	f8d3 30c4 	ldr.w	r3, [r3, #196]	@ 0xc4
 800478c:	f403 1300 	and.w	r3, r3, #2097152	@ 0x200000
 8004790:	2b00      	cmp	r3, #0
 8004792:	d007      	beq.n	80047a4 <HAL_FDCAN_AddMessageToTxFifoQ+0x38>
    {
      /* Update error code */
      hfdcan->ErrorCode |= HAL_FDCAN_ERROR_FIFO_FULL;
 8004794:	68fb      	ldr	r3, [r7, #12]
 8004796:	6e1b      	ldr	r3, [r3, #96]	@ 0x60
 8004798:	f443 7200 	orr.w	r2, r3, #512	@ 0x200
 800479c:	68fb      	ldr	r3, [r7, #12]
 800479e:	661a      	str	r2, [r3, #96]	@ 0x60

      return HAL_ERROR;
 80047a0:	2301      	movs	r3, #1
 80047a2:	e023      	b.n	80047ec <HAL_FDCAN_AddMessageToTxFifoQ+0x80>
    }
    else
    {
      /* Retrieve the Tx FIFO PutIndex */
      PutIndex = ((hfdcan->Instance->TXFQS & FDCAN_TXFQS_TFQPI) >> FDCAN_TXFQS_TFQPI_Pos);
 80047a4:	68fb      	ldr	r3, [r7, #12]
 80047a6:	681b      	ldr	r3, [r3, #0]
 80047a8:	f8d3 30c4 	ldr.w	r3, [r3, #196]	@ 0xc4
 80047ac:	0c1b      	lsrs	r3, r3, #16
 80047ae:	f003 0303 	and.w	r3, r3, #3
 80047b2:	617b      	str	r3, [r7, #20]

      /* Add the message to the Tx FIFO/Queue */
      FDCAN_CopyMessageToRAM(hfdcan, pTxHeader, pTxData, PutIndex);
 80047b4:	697b      	ldr	r3, [r7, #20]
 80047b6:	687a      	ldr	r2, [r7, #4]
 80047b8:	68b9      	ldr	r1, [r7, #8]
 80047ba:	68f8      	ldr	r0, [r7, #12]
 80047bc:	f000 fc10 	bl	8004fe0 <FDCAN_CopyMessageToRAM>

      /* Activate the corresponding transmission request */
      hfdcan->Instance->TXBAR = ((uint32_t)1 << PutIndex);
 80047c0:	68fb      	ldr	r3, [r7, #12]
 80047c2:	681b      	ldr	r3, [r3, #0]
 80047c4:	2101      	movs	r1, #1
 80047c6:	697a      	ldr	r2, [r7, #20]
 80047c8:	fa01 f202 	lsl.w	r2, r1, r2
 80047cc:	f8c3 20cc 	str.w	r2, [r3, #204]	@ 0xcc

      /* Store the Latest Tx FIFO/Queue Request Buffer Index */
      hfdcan->LatestTxFifoQRequest = ((uint32_t)1 << PutIndex);
 80047d0:	2201      	movs	r2, #1
 80047d2:	697b      	ldr	r3, [r7, #20]
 80047d4:	409a      	lsls	r2, r3
 80047d6:	68fb      	ldr	r3, [r7, #12]
 80047d8:	659a      	str	r2, [r3, #88]	@ 0x58
    }

    /* Return function status */
    return HAL_OK;
 80047da:	2300      	movs	r3, #0
 80047dc:	e006      	b.n	80047ec <HAL_FDCAN_AddMessageToTxFifoQ+0x80>
  }
  else
  {
    /* Update error code */
    hfdcan->ErrorCode |= HAL_FDCAN_ERROR_NOT_STARTED;
 80047de:	68fb      	ldr	r3, [r7, #12]
 80047e0:	6e1b      	ldr	r3, [r3, #96]	@ 0x60
 80047e2:	f043 0208 	orr.w	r2, r3, #8
 80047e6:	68fb      	ldr	r3, [r7, #12]
 80047e8:	661a      	str	r2, [r3, #96]	@ 0x60

    return HAL_ERROR;
 80047ea:	2301      	movs	r3, #1
  }
}
 80047ec:	4618      	mov	r0, r3
 80047ee:	3718      	adds	r7, #24
 80047f0:	46bd      	mov	sp, r7
 80047f2:	bd80      	pop	{r7, pc}

080047f4 <HAL_FDCAN_GetRxMessage>:
  * @param  pRxData pointer to a buffer where the payload of the Rx frame will be stored.
  * @retval HAL status
  */
HAL_StatusTypeDef HAL_FDCAN_GetRxMessage(FDCAN_HandleTypeDef *hfdcan, uint32_t RxLocation,
                                         FDCAN_RxHeaderTypeDef *pRxHeader, uint8_t *pRxData)
{
 80047f4:	b480      	push	{r7}
 80047f6:	b08b      	sub	sp, #44	@ 0x2c
 80047f8:	af00      	add	r7, sp, #0
 80047fa:	60f8      	str	r0, [r7, #12]
 80047fc:	60b9      	str	r1, [r7, #8]
 80047fe:	607a      	str	r2, [r7, #4]
 8004800:	603b      	str	r3, [r7, #0]
  uint32_t *RxAddress;
  uint8_t  *pData;
  uint32_t ByteCounter;
  uint32_t GetIndex = 0;
 8004802:	2300      	movs	r3, #0
 8004804:	61fb      	str	r3, [r7, #28]
  HAL_FDCAN_StateTypeDef state = hfdcan->State;
 8004806:	68fb      	ldr	r3, [r7, #12]
 8004808:	f893 305c 	ldrb.w	r3, [r3, #92]	@ 0x5c
 800480c:	76fb      	strb	r3, [r7, #27]

  /* Check function parameters */
  assert_param(IS_FDCAN_RX_FIFO(RxLocation));

  if (state == HAL_FDCAN_STATE_BUSY)
 800480e:	7efb      	ldrb	r3, [r7, #27]
 8004810:	2b02      	cmp	r3, #2
 8004812:	f040 80e8 	bne.w	80049e6 <HAL_FDCAN_GetRxMessage+0x1f2>
  {
    if (RxLocation == FDCAN_RX_FIFO0) /* Rx element is assigned to the Rx FIFO 0 */
 8004816:	68bb      	ldr	r3, [r7, #8]
 8004818:	2b40      	cmp	r3, #64	@ 0x40
 800481a:	d137      	bne.n	800488c <HAL_FDCAN_GetRxMessage+0x98>
    {
      /* Check that the Rx FIFO 0 is not empty */
      if ((hfdcan->Instance->RXF0S & FDCAN_RXF0S_F0FL) == 0U)
 800481c:	68fb      	ldr	r3, [r7, #12]
 800481e:	681b      	ldr	r3, [r3, #0]
 8004820:	f8d3 3090 	ldr.w	r3, [r3, #144]	@ 0x90
 8004824:	f003 030f 	and.w	r3, r3, #15
 8004828:	2b00      	cmp	r3, #0
 800482a:	d107      	bne.n	800483c <HAL_FDCAN_GetRxMessage+0x48>
      {
        /* Update error code */
        hfdcan->ErrorCode |= HAL_FDCAN_ERROR_FIFO_EMPTY;
 800482c:	68fb      	ldr	r3, [r7, #12]
 800482e:	6e1b      	ldr	r3, [r3, #96]	@ 0x60
 8004830:	f443 7280 	orr.w	r2, r3, #256	@ 0x100
 8004834:	68fb      	ldr	r3, [r7, #12]
 8004836:	661a      	str	r2, [r3, #96]	@ 0x60

        return HAL_ERROR;
 8004838:	2301      	movs	r3, #1
 800483a:	e0db      	b.n	80049f4 <HAL_FDCAN_GetRxMessage+0x200>
      }
      else
      {
        /* Check that the Rx FIFO 0 is full & overwrite mode is on */
        if (((hfdcan->Instance->RXF0S & FDCAN_RXF0S_F0F) >> FDCAN_RXF0S_F0F_Pos) == 1U)
 800483c:	68fb      	ldr	r3, [r7, #12]
 800483e:	681b      	ldr	r3, [r3, #0]
 8004840:	f8d3 3090 	ldr.w	r3, [r3, #144]	@ 0x90
 8004844:	f003 7380 	and.w	r3, r3, #16777216	@ 0x1000000
 8004848:	f1b3 7f80 	cmp.w	r3, #16777216	@ 0x1000000
 800484c:	d10a      	bne.n	8004864 <HAL_FDCAN_GetRxMessage+0x70>
        {
          if (((hfdcan->Instance->RXGFC & FDCAN_RXGFC_F0OM) >> FDCAN_RXGFC_F0OM_Pos) == FDCAN_RX_FIFO_OVERWRITE)
 800484e:	68fb      	ldr	r3, [r7, #12]
 8004850:	681b      	ldr	r3, [r3, #0]
 8004852:	f8d3 3080 	ldr.w	r3, [r3, #128]	@ 0x80
 8004856:	f403 7300 	and.w	r3, r3, #512	@ 0x200
 800485a:	f5b3 7f00 	cmp.w	r3, #512	@ 0x200
 800485e:	d101      	bne.n	8004864 <HAL_FDCAN_GetRxMessage+0x70>
          {
            /* When overwrite status is on discard first message in FIFO */
            GetIndex = 1U;
 8004860:	2301      	movs	r3, #1
 8004862:	61fb      	str	r3, [r7, #28]
          }
        }

        /* Calculate Rx FIFO 0 element index */
        GetIndex += ((hfdcan->Instance->RXF0S & FDCAN_RXF0S_F0GI) >> FDCAN_RXF0S_F0GI_Pos);
 8004864:	68fb      	ldr	r3, [r7, #12]
 8004866:	681b      	ldr	r3, [r3, #0]
 8004868:	f8d3 3090 	ldr.w	r3, [r3, #144]	@ 0x90
 800486c:	0a1b      	lsrs	r3, r3, #8
 800486e:	f003 0303 	and.w	r3, r3, #3
 8004872:	69fa      	ldr	r2, [r7, #28]
 8004874:	4413      	add	r3, r2
 8004876:	61fb      	str	r3, [r7, #28]

        /* Calculate Rx FIFO 0 element address */
        RxAddress = (uint32_t *)(hfdcan->msgRam.RxFIFO0SA + (GetIndex * SRAMCAN_RF0_SIZE));
 8004878:	68fb      	ldr	r3, [r7, #12]
 800487a:	6c99      	ldr	r1, [r3, #72]	@ 0x48
 800487c:	69fa      	ldr	r2, [r7, #28]
 800487e:	4613      	mov	r3, r2
 8004880:	00db      	lsls	r3, r3, #3
 8004882:	4413      	add	r3, r2
 8004884:	00db      	lsls	r3, r3, #3
 8004886:	440b      	add	r3, r1
 8004888:	627b      	str	r3, [r7, #36]	@ 0x24
 800488a:	e036      	b.n	80048fa <HAL_FDCAN_GetRxMessage+0x106>
      }
    }
    else /* Rx element is assigned to the Rx FIFO 1 */
    {
      /* Check that the Rx FIFO 1 is not empty */
      if ((hfdcan->Instance->RXF1S & FDCAN_RXF1S_F1FL) == 0U)
 800488c:	68fb      	ldr	r3, [r7, #12]
 800488e:	681b      	ldr	r3, [r3, #0]
 8004890:	f8d3 3098 	ldr.w	r3, [r3, #152]	@ 0x98
 8004894:	f003 030f 	and.w	r3, r3, #15
 8004898:	2b00      	cmp	r3, #0
 800489a:	d107      	bne.n	80048ac <HAL_FDCAN_GetRxMessage+0xb8>
      {
        /* Update error code */
        hfdcan->ErrorCode |= HAL_FDCAN_ERROR_FIFO_EMPTY;
 800489c:	68fb      	ldr	r3, [r7, #12]
 800489e:	6e1b      	ldr	r3, [r3, #96]	@ 0x60
 80048a0:	f443 7280 	orr.w	r2, r3, #256	@ 0x100
 80048a4:	68fb      	ldr	r3, [r7, #12]
 80048a6:	661a      	str	r2, [r3, #96]	@ 0x60

        return HAL_ERROR;
 80048a8:	2301      	movs	r3, #1
 80048aa:	e0a3      	b.n	80049f4 <HAL_FDCAN_GetRxMessage+0x200>
      }
      else
      {
        /* Check that the Rx FIFO 1 is full & overwrite mode is on */
        if (((hfdcan->Instance->RXF1S & FDCAN_RXF1S_F1F) >> FDCAN_RXF1S_F1F_Pos) == 1U)
 80048ac:	68fb      	ldr	r3, [r7, #12]
 80048ae:	681b      	ldr	r3, [r3, #0]
 80048b0:	f8d3 3098 	ldr.w	r3, [r3, #152]	@ 0x98
 80048b4:	f003 7380 	and.w	r3, r3, #16777216	@ 0x1000000
 80048b8:	f1b3 7f80 	cmp.w	r3, #16777216	@ 0x1000000
 80048bc:	d10a      	bne.n	80048d4 <HAL_FDCAN_GetRxMessage+0xe0>
        {
          if (((hfdcan->Instance->RXGFC & FDCAN_RXGFC_F1OM) >> FDCAN_RXGFC_F1OM_Pos) == FDCAN_RX_FIFO_OVERWRITE)
 80048be:	68fb      	ldr	r3, [r7, #12]
 80048c0:	681b      	ldr	r3, [r3, #0]
 80048c2:	f8d3 3080 	ldr.w	r3, [r3, #128]	@ 0x80
 80048c6:	f403 7380 	and.w	r3, r3, #256	@ 0x100
 80048ca:	f5b3 7f80 	cmp.w	r3, #256	@ 0x100
 80048ce:	d101      	bne.n	80048d4 <HAL_FDCAN_GetRxMessage+0xe0>
          {
            /* When overwrite status is on discard first message in FIFO */
            GetIndex = 1U;
 80048d0:	2301      	movs	r3, #1
 80048d2:	61fb      	str	r3, [r7, #28]
          }
        }

        /* Calculate Rx FIFO 1 element index */
        GetIndex += ((hfdcan->Instance->RXF1S & FDCAN_RXF1S_F1GI) >> FDCAN_RXF1S_F1GI_Pos);
 80048d4:	68fb      	ldr	r3, [r7, #12]
 80048d6:	681b      	ldr	r3, [r3, #0]
 80048d8:	f8d3 3098 	ldr.w	r3, [r3, #152]	@ 0x98
 80048dc:	0a1b      	lsrs	r3, r3, #8
 80048de:	f003 0303 	and.w	r3, r3, #3
 80048e2:	69fa      	ldr	r2, [r7, #28]
 80048e4:	4413      	add	r3, r2
 80048e6:	61fb      	str	r3, [r7, #28]
        /* Calculate Rx FIFO 1 element address */
        RxAddress = (uint32_t *)(hfdcan->msgRam.RxFIFO1SA + (GetIndex * SRAMCAN_RF1_SIZE));
 80048e8:	68fb      	ldr	r3, [r7, #12]
 80048ea:	6cd9      	ldr	r1, [r3, #76]	@ 0x4c
 80048ec:	69fa      	ldr	r2, [r7, #28]
 80048ee:	4613      	mov	r3, r2
 80048f0:	00db      	lsls	r3, r3, #3
 80048f2:	4413      	add	r3, r2
 80048f4:	00db      	lsls	r3, r3, #3
 80048f6:	440b      	add	r3, r1
 80048f8:	627b      	str	r3, [r7, #36]	@ 0x24
      }
    }

    /* Retrieve IdType */
    pRxHeader->IdType = *RxAddress & FDCAN_ELEMENT_MASK_XTD;
 80048fa:	6a7b      	ldr	r3, [r7, #36]	@ 0x24
 80048fc:	681b      	ldr	r3, [r3, #0]
 80048fe:	f003 4280 	and.w	r2, r3, #1073741824	@ 0x40000000
 8004902:	687b      	ldr	r3, [r7, #4]
 8004904:	605a      	str	r2, [r3, #4]

    /* Retrieve Identifier */
    if (pRxHeader->IdType == FDCAN_STANDARD_ID) /* Standard ID element */
 8004906:	687b      	ldr	r3, [r7, #4]
 8004908:	685b      	ldr	r3, [r3, #4]
 800490a:	2b00      	cmp	r3, #0
 800490c:	d107      	bne.n	800491e <HAL_FDCAN_GetRxMessage+0x12a>
    {
      pRxHeader->Identifier = ((*RxAddress & FDCAN_ELEMENT_MASK_STDID) >> 18U);
 800490e:	6a7b      	ldr	r3, [r7, #36]	@ 0x24
 8004910:	681b      	ldr	r3, [r3, #0]
 8004912:	0c9b      	lsrs	r3, r3, #18
 8004914:	f3c3 020a 	ubfx	r2, r3, #0, #11
 8004918:	687b      	ldr	r3, [r7, #4]
 800491a:	601a      	str	r2, [r3, #0]
 800491c:	e005      	b.n	800492a <HAL_FDCAN_GetRxMessage+0x136>
    }
    else /* Extended ID element */
    {
      pRxHeader->Identifier = (*RxAddress & FDCAN_ELEMENT_MASK_EXTID);
 800491e:	6a7b      	ldr	r3, [r7, #36]	@ 0x24
 8004920:	681b      	ldr	r3, [r3, #0]
 8004922:	f023 4260 	bic.w	r2, r3, #3758096384	@ 0xe0000000
 8004926:	687b      	ldr	r3, [r7, #4]
 8004928:	601a      	str	r2, [r3, #0]
    }

    /* Retrieve RxFrameType */
    pRxHeader->RxFrameType = (*RxAddress & FDCAN_ELEMENT_MASK_RTR);
 800492a:	6a7b      	ldr	r3, [r7, #36]	@ 0x24
 800492c:	681b      	ldr	r3, [r3, #0]
 800492e:	f003 5200 	and.w	r2, r3, #536870912	@ 0x20000000
 8004932:	687b      	ldr	r3, [r7, #4]
 8004934:	609a      	str	r2, [r3, #8]

    /* Retrieve ErrorStateIndicator */
    pRxHeader->ErrorStateIndicator = (*RxAddress & FDCAN_ELEMENT_MASK_ESI);
 8004936:	6a7b      	ldr	r3, [r7, #36]	@ 0x24
 8004938:	681b      	ldr	r3, [r3, #0]
 800493a:	f003 4200 	and.w	r2, r3, #2147483648	@ 0x80000000
 800493e:	687b      	ldr	r3, [r7, #4]
 8004940:	611a      	str	r2, [r3, #16]

    /* Increment RxAddress pointer to second word of Rx FIFO element */
    RxAddress++;
 8004942:	6a7b      	ldr	r3, [r7, #36]	@ 0x24
 8004944:	3304      	adds	r3, #4
 8004946:	627b      	str	r3, [r7, #36]	@ 0x24

    /* Retrieve RxTimestamp */
    pRxHeader->RxTimestamp = (*RxAddress & FDCAN_ELEMENT_MASK_TS);
 8004948:	6a7b      	ldr	r3, [r7, #36]	@ 0x24
 800494a:	681b      	ldr	r3, [r3, #0]
 800494c:	b29a      	uxth	r2, r3
 800494e:	687b      	ldr	r3, [r7, #4]
 8004950:	61da      	str	r2, [r3, #28]

    /* Retrieve DataLength */
    pRxHeader->DataLength = ((*RxAddress & FDCAN_ELEMENT_MASK_DLC) >> 16U);
 8004952:	6a7b      	ldr	r3, [r7, #36]	@ 0x24
 8004954:	681b      	ldr	r3, [r3, #0]
 8004956:	0c1b      	lsrs	r3, r3, #16
 8004958:	f003 020f 	and.w	r2, r3, #15
 800495c:	687b      	ldr	r3, [r7, #4]
 800495e:	60da      	str	r2, [r3, #12]

    /* Retrieve BitRateSwitch */
    pRxHeader->BitRateSwitch = (*RxAddress & FDCAN_ELEMENT_MASK_BRS);
 8004960:	6a7b      	ldr	r3, [r7, #36]	@ 0x24
 8004962:	681b      	ldr	r3, [r3, #0]
 8004964:	f403 1280 	and.w	r2, r3, #1048576	@ 0x100000
 8004968:	687b      	ldr	r3, [r7, #4]
 800496a:	615a      	str	r2, [r3, #20]

    /* Retrieve FDFormat */
    pRxHeader->FDFormat = (*RxAddress & FDCAN_ELEMENT_MASK_FDF);
 800496c:	6a7b      	ldr	r3, [r7, #36]	@ 0x24
 800496e:	681b      	ldr	r3, [r3, #0]
 8004970:	f403 1200 	and.w	r2, r3, #2097152	@ 0x200000
 8004974:	687b      	ldr	r3, [r7, #4]
 8004976:	619a      	str	r2, [r3, #24]

    /* Retrieve FilterIndex */
    pRxHeader->FilterIndex = ((*RxAddress & FDCAN_ELEMENT_MASK_FIDX) >> 24U);
 8004978:	6a7b      	ldr	r3, [r7, #36]	@ 0x24
 800497a:	681b      	ldr	r3, [r3, #0]
 800497c:	0e1b      	lsrs	r3, r3, #24
 800497e:	f003 027f 	and.w	r2, r3, #127	@ 0x7f
 8004982:	687b      	ldr	r3, [r7, #4]
 8004984:	621a      	str	r2, [r3, #32]

    /* Retrieve NonMatchingFrame */
    pRxHeader->IsFilterMatchingFrame = ((*RxAddress & FDCAN_ELEMENT_MASK_ANMF) >> 31U);
 8004986:	6a7b      	ldr	r3, [r7, #36]	@ 0x24
 8004988:	681b      	ldr	r3, [r3, #0]
 800498a:	0fda      	lsrs	r2, r3, #31
 800498c:	687b      	ldr	r3, [r7, #4]
 800498e:	625a      	str	r2, [r3, #36]	@ 0x24

    /* Increment RxAddress pointer to payload of Rx FIFO element */
    RxAddress++;
 8004990:	6a7b      	ldr	r3, [r7, #36]	@ 0x24
 8004992:	3304      	adds	r3, #4
 8004994:	627b      	str	r3, [r7, #36]	@ 0x24

    /* Retrieve Rx payload */
    pData = (uint8_t *)RxAddress;
 8004996:	6a7b      	ldr	r3, [r7, #36]	@ 0x24
 8004998:	617b      	str	r3, [r7, #20]
    for (ByteCounter = 0; ByteCounter < DLCtoBytes[pRxHeader->DataLength]; ByteCounter++)
 800499a:	2300      	movs	r3, #0
 800499c:	623b      	str	r3, [r7, #32]
 800499e:	e00a      	b.n	80049b6 <HAL_FDCAN_GetRxMessage+0x1c2>
    {
      pRxData[ByteCounter] = pData[ByteCounter];
 80049a0:	697a      	ldr	r2, [r7, #20]
 80049a2:	6a3b      	ldr	r3, [r7, #32]
 80049a4:	441a      	add	r2, r3
 80049a6:	6839      	ldr	r1, [r7, #0]
 80049a8:	6a3b      	ldr	r3, [r7, #32]
 80049aa:	440b      	add	r3, r1
 80049ac:	7812      	ldrb	r2, [r2, #0]
 80049ae:	701a      	strb	r2, [r3, #0]
    for (ByteCounter = 0; ByteCounter < DLCtoBytes[pRxHeader->DataLength]; ByteCounter++)
 80049b0:	6a3b      	ldr	r3, [r7, #32]
 80049b2:	3301      	adds	r3, #1
 80049b4:	623b      	str	r3, [r7, #32]
 80049b6:	687b      	ldr	r3, [r7, #4]
 80049b8:	68db      	ldr	r3, [r3, #12]
 80049ba:	4a11      	ldr	r2, [pc, #68]	@ (8004a00 <HAL_FDCAN_GetRxMessage+0x20c>)
 80049bc:	5cd3      	ldrb	r3, [r2, r3]
 80049be:	461a      	mov	r2, r3
 80049c0:	6a3b      	ldr	r3, [r7, #32]
 80049c2:	4293      	cmp	r3, r2
 80049c4:	d3ec      	bcc.n	80049a0 <HAL_FDCAN_GetRxMessage+0x1ac>
    }

    if (RxLocation == FDCAN_RX_FIFO0) /* Rx element is assigned to the Rx FIFO 0 */
 80049c6:	68bb      	ldr	r3, [r7, #8]
 80049c8:	2b40      	cmp	r3, #64	@ 0x40
 80049ca:	d105      	bne.n	80049d8 <HAL_FDCAN_GetRxMessage+0x1e4>
    {
      /* Acknowledge the Rx FIFO 0 that the oldest element is read so that it increments the GetIndex */
      hfdcan->Instance->RXF0A = GetIndex;
 80049cc:	68fb      	ldr	r3, [r7, #12]
 80049ce:	681b      	ldr	r3, [r3, #0]
 80049d0:	69fa      	ldr	r2, [r7, #28]
 80049d2:	f8c3 2094 	str.w	r2, [r3, #148]	@ 0x94
 80049d6:	e004      	b.n	80049e2 <HAL_FDCAN_GetRxMessage+0x1ee>
    }
    else /* Rx element is assigned to the Rx FIFO 1 */
    {
      /* Acknowledge the Rx FIFO 1 that the oldest element is read so that it increments the GetIndex */
      hfdcan->Instance->RXF1A = GetIndex;
 80049d8:	68fb      	ldr	r3, [r7, #12]
 80049da:	681b      	ldr	r3, [r3, #0]
 80049dc:	69fa      	ldr	r2, [r7, #28]
 80049de:	f8c3 209c 	str.w	r2, [r3, #156]	@ 0x9c
    }

    /* Return function status */
    return HAL_OK;
 80049e2:	2300      	movs	r3, #0
 80049e4:	e006      	b.n	80049f4 <HAL_FDCAN_GetRxMessage+0x200>
  }
  else
  {
    /* Update error code */
    hfdcan->ErrorCode |= HAL_FDCAN_ERROR_NOT_STARTED;
 80049e6:	68fb      	ldr	r3, [r7, #12]
 80049e8:	6e1b      	ldr	r3, [r3, #96]	@ 0x60
 80049ea:	f043 0208 	orr.w	r2, r3, #8
 80049ee:	68fb      	ldr	r3, [r7, #12]
 80049f0:	661a      	str	r2, [r3, #96]	@ 0x60

    return HAL_ERROR;
 80049f2:	2301      	movs	r3, #1
  }
}
 80049f4:	4618      	mov	r0, r3
 80049f6:	372c      	adds	r7, #44	@ 0x2c
 80049f8:	46bd      	mov	sp, r7
 80049fa:	f85d 7b04 	ldr.w	r7, [sp], #4
 80049fe:	4770      	bx	lr
 8004a00:	080082b8 	.word	0x080082b8

08004a04 <HAL_FDCAN_ActivateNotification>:
  *           - FDCAN_IT_TX_ABORT_COMPLETE
  * @retval HAL status
  */
HAL_StatusTypeDef HAL_FDCAN_ActivateNotification(FDCAN_HandleTypeDef *hfdcan, uint32_t ActiveITs,
                                                 uint32_t BufferIndexes)
{
 8004a04:	b480      	push	{r7}
 8004a06:	b087      	sub	sp, #28
 8004a08:	af00      	add	r7, sp, #0
 8004a0a:	60f8      	str	r0, [r7, #12]
 8004a0c:	60b9      	str	r1, [r7, #8]
 8004a0e:	607a      	str	r2, [r7, #4]
  HAL_FDCAN_StateTypeDef state = hfdcan->State;
 8004a10:	68fb      	ldr	r3, [r7, #12]
 8004a12:	f893 305c 	ldrb.w	r3, [r3, #92]	@ 0x5c
 8004a16:	75fb      	strb	r3, [r7, #23]
  if ((ActiveITs & (FDCAN_IT_TX_COMPLETE | FDCAN_IT_TX_ABORT_COMPLETE)) != 0U)
  {
    assert_param(IS_FDCAN_TX_LOCATION_LIST(BufferIndexes));
  }

  if ((state == HAL_FDCAN_STATE_READY) || (state == HAL_FDCAN_STATE_BUSY))
 8004a18:	7dfb      	ldrb	r3, [r7, #23]
 8004a1a:	2b01      	cmp	r3, #1
 8004a1c:	d003      	beq.n	8004a26 <HAL_FDCAN_ActivateNotification+0x22>
 8004a1e:	7dfb      	ldrb	r3, [r7, #23]
 8004a20:	2b02      	cmp	r3, #2
 8004a22:	f040 80c8 	bne.w	8004bb6 <HAL_FDCAN_ActivateNotification+0x1b2>
  {
    /* Get interrupts line selection */
    ITs_lines_selection = hfdcan->Instance->ILS;
 8004a26:	68fb      	ldr	r3, [r7, #12]
 8004a28:	681b      	ldr	r3, [r3, #0]
 8004a2a:	6d9b      	ldr	r3, [r3, #88]	@ 0x58
 8004a2c:	613b      	str	r3, [r7, #16]

    /* Enable Interrupt lines */
    if ((((ActiveITs & FDCAN_IT_LIST_RX_FIFO0) != 0U)
 8004a2e:	68bb      	ldr	r3, [r7, #8]
 8004a30:	f003 0307 	and.w	r3, r3, #7
 8004a34:	2b00      	cmp	r3, #0
 8004a36:	d004      	beq.n	8004a42 <HAL_FDCAN_ActivateNotification+0x3e>
         && (((ITs_lines_selection) & FDCAN_IT_GROUP_RX_FIFO0) == 0U)) || \
 8004a38:	693b      	ldr	r3, [r7, #16]
 8004a3a:	f003 0301 	and.w	r3, r3, #1
 8004a3e:	2b00      	cmp	r3, #0
 8004a40:	d03b      	beq.n	8004aba <HAL_FDCAN_ActivateNotification+0xb6>
        (((ActiveITs & FDCAN_IT_LIST_RX_FIFO1)       != 0U)
 8004a42:	68bb      	ldr	r3, [r7, #8]
 8004a44:	f003 0338 	and.w	r3, r3, #56	@ 0x38
         && (((ITs_lines_selection) & FDCAN_IT_GROUP_RX_FIFO0) == 0U)) || \
 8004a48:	2b00      	cmp	r3, #0
 8004a4a:	d004      	beq.n	8004a56 <HAL_FDCAN_ActivateNotification+0x52>
         && (((ITs_lines_selection) & FDCAN_IT_GROUP_RX_FIFO1) == 0U)) || \
 8004a4c:	693b      	ldr	r3, [r7, #16]
 8004a4e:	f003 0302 	and.w	r3, r3, #2
 8004a52:	2b00      	cmp	r3, #0
 8004a54:	d031      	beq.n	8004aba <HAL_FDCAN_ActivateNotification+0xb6>
        (((ActiveITs & FDCAN_IT_LIST_SMSG)           != 0U)
 8004a56:	68bb      	ldr	r3, [r7, #8]
 8004a58:	f403 73e0 	and.w	r3, r3, #448	@ 0x1c0
         && (((ITs_lines_selection) & FDCAN_IT_GROUP_RX_FIFO1) == 0U)) || \
 8004a5c:	2b00      	cmp	r3, #0
 8004a5e:	d004      	beq.n	8004a6a <HAL_FDCAN_ActivateNotification+0x66>
         && (((ITs_lines_selection) & FDCAN_IT_GROUP_SMSG)     == 0U)) || \
 8004a60:	693b      	ldr	r3, [r7, #16]
 8004a62:	f003 0304 	and.w	r3, r3, #4
 8004a66:	2b00      	cmp	r3, #0
 8004a68:	d027      	beq.n	8004aba <HAL_FDCAN_ActivateNotification+0xb6>
        (((ActiveITs & FDCAN_IT_LIST_TX_FIFO_ERROR)  != 0U)
 8004a6a:	68bb      	ldr	r3, [r7, #8]
 8004a6c:	f403 53f0 	and.w	r3, r3, #7680	@ 0x1e00
         && (((ITs_lines_selection) & FDCAN_IT_GROUP_SMSG)     == 0U)) || \
 8004a70:	2b00      	cmp	r3, #0
 8004a72:	d004      	beq.n	8004a7e <HAL_FDCAN_ActivateNotification+0x7a>
         && (((ITs_lines_selection) & FDCAN_IT_GROUP_TX_FIFO_ERROR)  == 0U)) || \
 8004a74:	693b      	ldr	r3, [r7, #16]
 8004a76:	f003 0308 	and.w	r3, r3, #8
 8004a7a:	2b00      	cmp	r3, #0
 8004a7c:	d01d      	beq.n	8004aba <HAL_FDCAN_ActivateNotification+0xb6>
        (((ActiveITs & FDCAN_IT_LIST_MISC)           != 0U)
 8004a7e:	68bb      	ldr	r3, [r7, #8]
 8004a80:	f403 4360 	and.w	r3, r3, #57344	@ 0xe000
         && (((ITs_lines_selection) & FDCAN_IT_GROUP_TX_FIFO_ERROR)  == 0U)) || \
 8004a84:	2b00      	cmp	r3, #0
 8004a86:	d004      	beq.n	8004a92 <HAL_FDCAN_ActivateNotification+0x8e>
         && (((ITs_lines_selection) & FDCAN_IT_GROUP_MISC)           == 0U)) || \
 8004a88:	693b      	ldr	r3, [r7, #16]
 8004a8a:	f003 0310 	and.w	r3, r3, #16
 8004a8e:	2b00      	cmp	r3, #0
 8004a90:	d013      	beq.n	8004aba <HAL_FDCAN_ActivateNotification+0xb6>
        (((ActiveITs & FDCAN_IT_LIST_BIT_LINE_ERROR) != 0U)
 8004a92:	68bb      	ldr	r3, [r7, #8]
 8004a94:	f403 3340 	and.w	r3, r3, #196608	@ 0x30000
         && (((ITs_lines_selection) & FDCAN_IT_GROUP_MISC)           == 0U)) || \
 8004a98:	2b00      	cmp	r3, #0
 8004a9a:	d004      	beq.n	8004aa6 <HAL_FDCAN_ActivateNotification+0xa2>
         && (((ITs_lines_selection) & FDCAN_IT_GROUP_BIT_LINE_ERROR) == 0U)) || \
 8004a9c:	693b      	ldr	r3, [r7, #16]
 8004a9e:	f003 0320 	and.w	r3, r3, #32
 8004aa2:	2b00      	cmp	r3, #0
 8004aa4:	d009      	beq.n	8004aba <HAL_FDCAN_ActivateNotification+0xb6>
        (((ActiveITs & FDCAN_IT_LIST_PROTOCOL_ERROR) != 0U)
 8004aa6:	68bb      	ldr	r3, [r7, #8]
 8004aa8:	f403 037c 	and.w	r3, r3, #16515072	@ 0xfc0000
         && (((ITs_lines_selection) & FDCAN_IT_GROUP_BIT_LINE_ERROR) == 0U)) || \
 8004aac:	2b00      	cmp	r3, #0
 8004aae:	d00c      	beq.n	8004aca <HAL_FDCAN_ActivateNotification+0xc6>
         && (((ITs_lines_selection) & FDCAN_IT_GROUP_PROTOCOL_ERROR) == 0U)))
 8004ab0:	693b      	ldr	r3, [r7, #16]
 8004ab2:	f003 0340 	and.w	r3, r3, #64	@ 0x40
 8004ab6:	2b00      	cmp	r3, #0
 8004ab8:	d107      	bne.n	8004aca <HAL_FDCAN_ActivateNotification+0xc6>
    {
      /* Enable Interrupt line 0 */
      SET_BIT(hfdcan->Instance->ILE, FDCAN_INTERRUPT_LINE0);
 8004aba:	68fb      	ldr	r3, [r7, #12]
 8004abc:	681b      	ldr	r3, [r3, #0]
 8004abe:	6dda      	ldr	r2, [r3, #92]	@ 0x5c
 8004ac0:	68fb      	ldr	r3, [r7, #12]
 8004ac2:	681b      	ldr	r3, [r3, #0]
 8004ac4:	f042 0201 	orr.w	r2, r2, #1
 8004ac8:	65da      	str	r2, [r3, #92]	@ 0x5c
    }
    if ((((ActiveITs & FDCAN_IT_LIST_RX_FIFO0)       != 0U)
 8004aca:	68bb      	ldr	r3, [r7, #8]
 8004acc:	f003 0307 	and.w	r3, r3, #7
 8004ad0:	2b00      	cmp	r3, #0
 8004ad2:	d004      	beq.n	8004ade <HAL_FDCAN_ActivateNotification+0xda>
         && (((ITs_lines_selection) & FDCAN_IT_GROUP_RX_FIFO0)      != 0U)) || \
 8004ad4:	693b      	ldr	r3, [r7, #16]
 8004ad6:	f003 0301 	and.w	r3, r3, #1
 8004ada:	2b00      	cmp	r3, #0
 8004adc:	d13b      	bne.n	8004b56 <HAL_FDCAN_ActivateNotification+0x152>
        (((ActiveITs & FDCAN_IT_LIST_RX_FIFO1)       != 0U)
 8004ade:	68bb      	ldr	r3, [r7, #8]
 8004ae0:	f003 0338 	and.w	r3, r3, #56	@ 0x38
         && (((ITs_lines_selection) & FDCAN_IT_GROUP_RX_FIFO0)      != 0U)) || \
 8004ae4:	2b00      	cmp	r3, #0
 8004ae6:	d004      	beq.n	8004af2 <HAL_FDCAN_ActivateNotification+0xee>
         && (((ITs_lines_selection) & FDCAN_IT_GROUP_RX_FIFO1)       != 0U)) || \
 8004ae8:	693b      	ldr	r3, [r7, #16]
 8004aea:	f003 0302 	and.w	r3, r3, #2
 8004aee:	2b00      	cmp	r3, #0
 8004af0:	d131      	bne.n	8004b56 <HAL_FDCAN_ActivateNotification+0x152>
        (((ActiveITs & FDCAN_IT_LIST_SMSG)           != 0U)
 8004af2:	68bb      	ldr	r3, [r7, #8]
 8004af4:	f403 73e0 	and.w	r3, r3, #448	@ 0x1c0
         && (((ITs_lines_selection) & FDCAN_IT_GROUP_RX_FIFO1)       != 0U)) || \
 8004af8:	2b00      	cmp	r3, #0
 8004afa:	d004      	beq.n	8004b06 <HAL_FDCAN_ActivateNotification+0x102>
         && (((ITs_lines_selection) & FDCAN_IT_GROUP_SMSG)           != 0U)) || \
 8004afc:	693b      	ldr	r3, [r7, #16]
 8004afe:	f003 0304 	and.w	r3, r3, #4
 8004b02:	2b00      	cmp	r3, #0
 8004b04:	d127      	bne.n	8004b56 <HAL_FDCAN_ActivateNotification+0x152>
        (((ActiveITs & FDCAN_IT_LIST_TX_FIFO_ERROR)  != 0U)
 8004b06:	68bb      	ldr	r3, [r7, #8]
 8004b08:	f403 53f0 	and.w	r3, r3, #7680	@ 0x1e00
         && (((ITs_lines_selection) & FDCAN_IT_GROUP_SMSG)           != 0U)) || \
 8004b0c:	2b00      	cmp	r3, #0
 8004b0e:	d004      	beq.n	8004b1a <HAL_FDCAN_ActivateNotification+0x116>
         && (((ITs_lines_selection) & FDCAN_IT_GROUP_TX_FIFO_ERROR)  != 0U)) || \
 8004b10:	693b      	ldr	r3, [r7, #16]
 8004b12:	f003 0308 	and.w	r3, r3, #8
 8004b16:	2b00      	cmp	r3, #0
 8004b18:	d11d      	bne.n	8004b56 <HAL_FDCAN_ActivateNotification+0x152>
        (((ActiveITs & FDCAN_IT_LIST_MISC)           != 0U)
 8004b1a:	68bb      	ldr	r3, [r7, #8]
 8004b1c:	f403 4360 	and.w	r3, r3, #57344	@ 0xe000
         && (((ITs_lines_selection) & FDCAN_IT_GROUP_TX_FIFO_ERROR)  != 0U)) || \
 8004b20:	2b00      	cmp	r3, #0
 8004b22:	d004      	beq.n	8004b2e <HAL_FDCAN_ActivateNotification+0x12a>
         && (((ITs_lines_selection) & FDCAN_IT_GROUP_MISC)           != 0U)) || \
 8004b24:	693b      	ldr	r3, [r7, #16]
 8004b26:	f003 0310 	and.w	r3, r3, #16
 8004b2a:	2b00      	cmp	r3, #0
 8004b2c:	d113      	bne.n	8004b56 <HAL_FDCAN_ActivateNotification+0x152>
        (((ActiveITs & FDCAN_IT_LIST_BIT_LINE_ERROR) != 0U)
 8004b2e:	68bb      	ldr	r3, [r7, #8]
 8004b30:	f403 3340 	and.w	r3, r3, #196608	@ 0x30000
         && (((ITs_lines_selection) & FDCAN_IT_GROUP_MISC)           != 0U)) || \
 8004b34:	2b00      	cmp	r3, #0
 8004b36:	d004      	beq.n	8004b42 <HAL_FDCAN_ActivateNotification+0x13e>
         && (((ITs_lines_selection) & FDCAN_IT_GROUP_BIT_LINE_ERROR) != 0U)) || \
 8004b38:	693b      	ldr	r3, [r7, #16]
 8004b3a:	f003 0320 	and.w	r3, r3, #32
 8004b3e:	2b00      	cmp	r3, #0
 8004b40:	d109      	bne.n	8004b56 <HAL_FDCAN_ActivateNotification+0x152>
        (((ActiveITs & FDCAN_IT_LIST_PROTOCOL_ERROR) != 0U)
 8004b42:	68bb      	ldr	r3, [r7, #8]
 8004b44:	f403 037c 	and.w	r3, r3, #16515072	@ 0xfc0000
         && (((ITs_lines_selection) & FDCAN_IT_GROUP_BIT_LINE_ERROR) != 0U)) || \
 8004b48:	2b00      	cmp	r3, #0
 8004b4a:	d00c      	beq.n	8004b66 <HAL_FDCAN_ActivateNotification+0x162>
         && (((ITs_lines_selection) & FDCAN_IT_GROUP_PROTOCOL_ERROR) != 0U)))
 8004b4c:	693b      	ldr	r3, [r7, #16]
 8004b4e:	f003 0340 	and.w	r3, r3, #64	@ 0x40
 8004b52:	2b00      	cmp	r3, #0
 8004b54:	d007      	beq.n	8004b66 <HAL_FDCAN_ActivateNotification+0x162>
    {
      /* Enable Interrupt line 1 */
      SET_BIT(hfdcan->Instance->ILE, FDCAN_INTERRUPT_LINE1);
 8004b56:	68fb      	ldr	r3, [r7, #12]
 8004b58:	681b      	ldr	r3, [r3, #0]
 8004b5a:	6dda      	ldr	r2, [r3, #92]	@ 0x5c
 8004b5c:	68fb      	ldr	r3, [r7, #12]
 8004b5e:	681b      	ldr	r3, [r3, #0]
 8004b60:	f042 0202 	orr.w	r2, r2, #2
 8004b64:	65da      	str	r2, [r3, #92]	@ 0x5c
    }

    if ((ActiveITs & FDCAN_IT_TX_COMPLETE) != 0U)
 8004b66:	68bb      	ldr	r3, [r7, #8]
 8004b68:	f003 0380 	and.w	r3, r3, #128	@ 0x80
 8004b6c:	2b00      	cmp	r3, #0
 8004b6e:	d009      	beq.n	8004b84 <HAL_FDCAN_ActivateNotification+0x180>
    {
      /* Enable Tx Buffer Transmission Interrupt to set TC flag in IR register,
         but interrupt will only occur if TC is enabled in IE register */
      SET_BIT(hfdcan->Instance->TXBTIE, BufferIndexes);
 8004b70:	68fb      	ldr	r3, [r7, #12]
 8004b72:	681b      	ldr	r3, [r3, #0]
 8004b74:	f8d3 10dc 	ldr.w	r1, [r3, #220]	@ 0xdc
 8004b78:	68fb      	ldr	r3, [r7, #12]
 8004b7a:	681b      	ldr	r3, [r3, #0]
 8004b7c:	687a      	ldr	r2, [r7, #4]
 8004b7e:	430a      	orrs	r2, r1
 8004b80:	f8c3 20dc 	str.w	r2, [r3, #220]	@ 0xdc
    }

    if ((ActiveITs & FDCAN_IT_TX_ABORT_COMPLETE) != 0U)
 8004b84:	68bb      	ldr	r3, [r7, #8]
 8004b86:	f403 7380 	and.w	r3, r3, #256	@ 0x100
 8004b8a:	2b00      	cmp	r3, #0
 8004b8c:	d009      	beq.n	8004ba2 <HAL_FDCAN_ActivateNotification+0x19e>
    {
      /* Enable Tx Buffer Cancellation Finished Interrupt to set TCF flag in IR register,
         but interrupt will only occur if TCF is enabled in IE register */
      SET_BIT(hfdcan->Instance->TXBCIE, BufferIndexes);
 8004b8e:	68fb      	ldr	r3, [r7, #12]
 8004b90:	681b      	ldr	r3, [r3, #0]
 8004b92:	f8d3 10e0 	ldr.w	r1, [r3, #224]	@ 0xe0
 8004b96:	68fb      	ldr	r3, [r7, #12]
 8004b98:	681b      	ldr	r3, [r3, #0]
 8004b9a:	687a      	ldr	r2, [r7, #4]
 8004b9c:	430a      	orrs	r2, r1
 8004b9e:	f8c3 20e0 	str.w	r2, [r3, #224]	@ 0xe0
    }

    /* Enable the selected interrupts */
    __HAL_FDCAN_ENABLE_IT(hfdcan, ActiveITs);
 8004ba2:	68fb      	ldr	r3, [r7, #12]
 8004ba4:	681b      	ldr	r3, [r3, #0]
 8004ba6:	6d59      	ldr	r1, [r3, #84]	@ 0x54
 8004ba8:	68fb      	ldr	r3, [r7, #12]
 8004baa:	681b      	ldr	r3, [r3, #0]
 8004bac:	68ba      	ldr	r2, [r7, #8]
 8004bae:	430a      	orrs	r2, r1
 8004bb0:	655a      	str	r2, [r3, #84]	@ 0x54

    /* Return function status */
    return HAL_OK;
 8004bb2:	2300      	movs	r3, #0
 8004bb4:	e006      	b.n	8004bc4 <HAL_FDCAN_ActivateNotification+0x1c0>
  }
  else
  {
    /* Update error code */
    hfdcan->ErrorCode |= HAL_FDCAN_ERROR_NOT_INITIALIZED;
 8004bb6:	68fb      	ldr	r3, [r7, #12]
 8004bb8:	6e1b      	ldr	r3, [r3, #96]	@ 0x60
 8004bba:	f043 0202 	orr.w	r2, r3, #2
 8004bbe:	68fb      	ldr	r3, [r7, #12]
 8004bc0:	661a      	str	r2, [r3, #96]	@ 0x60

    return HAL_ERROR;
 8004bc2:	2301      	movs	r3, #1
  }
}
 8004bc4:	4618      	mov	r0, r3
 8004bc6:	371c      	adds	r7, #28
 8004bc8:	46bd      	mov	sp, r7
 8004bca:	f85d 7b04 	ldr.w	r7, [sp], #4
 8004bce:	4770      	bx	lr

08004bd0 <HAL_FDCAN_IRQHandler>:
  * @param  hfdcan pointer to an FDCAN_HandleTypeDef structure that contains
  *         the configuration information for the specified FDCAN.
  * @retval HAL status
  */
void HAL_FDCAN_IRQHandler(FDCAN_HandleTypeDef *hfdcan)
{
 8004bd0:	b580      	push	{r7, lr}
 8004bd2:	b08c      	sub	sp, #48	@ 0x30
 8004bd4:	af00      	add	r7, sp, #0
 8004bd6:	6078      	str	r0, [r7, #4]
  uint32_t TransmittedBuffers;
  uint32_t AbortedBuffers;
  uint32_t itsource;
  uint32_t itflag;

  TxEventFifoITs = hfdcan->Instance->IR & FDCAN_TX_EVENT_FIFO_MASK;
 8004bd8:	687b      	ldr	r3, [r7, #4]
 8004bda:	681b      	ldr	r3, [r3, #0]
 8004bdc:	6d1b      	ldr	r3, [r3, #80]	@ 0x50
 8004bde:	f403 53e0 	and.w	r3, r3, #7168	@ 0x1c00
 8004be2:	62fb      	str	r3, [r7, #44]	@ 0x2c
  TxEventFifoITs &= hfdcan->Instance->IE;
 8004be4:	687b      	ldr	r3, [r7, #4]
 8004be6:	681b      	ldr	r3, [r3, #0]
 8004be8:	6d5b      	ldr	r3, [r3, #84]	@ 0x54
 8004bea:	6afa      	ldr	r2, [r7, #44]	@ 0x2c
 8004bec:	4013      	ands	r3, r2
 8004bee:	62fb      	str	r3, [r7, #44]	@ 0x2c
  RxFifo0ITs = hfdcan->Instance->IR & FDCAN_RX_FIFO0_MASK;
 8004bf0:	687b      	ldr	r3, [r7, #4]
 8004bf2:	681b      	ldr	r3, [r3, #0]
 8004bf4:	6d1b      	ldr	r3, [r3, #80]	@ 0x50
 8004bf6:	f003 0307 	and.w	r3, r3, #7
 8004bfa:	62bb      	str	r3, [r7, #40]	@ 0x28
  RxFifo0ITs &= hfdcan->Instance->IE;
 8004bfc:	687b      	ldr	r3, [r7, #4]
 8004bfe:	681b      	ldr	r3, [r3, #0]
 8004c00:	6d5b      	ldr	r3, [r3, #84]	@ 0x54
 8004c02:	6aba      	ldr	r2, [r7, #40]	@ 0x28
 8004c04:	4013      	ands	r3, r2
 8004c06:	62bb      	str	r3, [r7, #40]	@ 0x28
  RxFifo1ITs = hfdcan->Instance->IR & FDCAN_RX_FIFO1_MASK;
 8004c08:	687b      	ldr	r3, [r7, #4]
 8004c0a:	681b      	ldr	r3, [r3, #0]
 8004c0c:	6d1b      	ldr	r3, [r3, #80]	@ 0x50
 8004c0e:	f003 0338 	and.w	r3, r3, #56	@ 0x38
 8004c12:	627b      	str	r3, [r7, #36]	@ 0x24
  RxFifo1ITs &= hfdcan->Instance->IE;
 8004c14:	687b      	ldr	r3, [r7, #4]
 8004c16:	681b      	ldr	r3, [r3, #0]
 8004c18:	6d5b      	ldr	r3, [r3, #84]	@ 0x54
 8004c1a:	6a7a      	ldr	r2, [r7, #36]	@ 0x24
 8004c1c:	4013      	ands	r3, r2
 8004c1e:	627b      	str	r3, [r7, #36]	@ 0x24
  Errors = hfdcan->Instance->IR & FDCAN_ERROR_MASK;
 8004c20:	687b      	ldr	r3, [r7, #4]
 8004c22:	681b      	ldr	r3, [r3, #0]
 8004c24:	6d1b      	ldr	r3, [r3, #80]	@ 0x50
 8004c26:	f403 0371 	and.w	r3, r3, #15794176	@ 0xf10000
 8004c2a:	623b      	str	r3, [r7, #32]
  Errors &= hfdcan->Instance->IE;
 8004c2c:	687b      	ldr	r3, [r7, #4]
 8004c2e:	681b      	ldr	r3, [r3, #0]
 8004c30:	6d5b      	ldr	r3, [r3, #84]	@ 0x54
 8004c32:	6a3a      	ldr	r2, [r7, #32]
 8004c34:	4013      	ands	r3, r2
 8004c36:	623b      	str	r3, [r7, #32]
  ErrorStatusITs = hfdcan->Instance->IR & FDCAN_ERROR_STATUS_MASK;
 8004c38:	687b      	ldr	r3, [r7, #4]
 8004c3a:	681b      	ldr	r3, [r3, #0]
 8004c3c:	6d1b      	ldr	r3, [r3, #80]	@ 0x50
 8004c3e:	f403 2360 	and.w	r3, r3, #917504	@ 0xe0000
 8004c42:	61fb      	str	r3, [r7, #28]
  ErrorStatusITs &= hfdcan->Instance->IE;
 8004c44:	687b      	ldr	r3, [r7, #4]
 8004c46:	681b      	ldr	r3, [r3, #0]
 8004c48:	6d5b      	ldr	r3, [r3, #84]	@ 0x54
 8004c4a:	69fa      	ldr	r2, [r7, #28]
 8004c4c:	4013      	ands	r3, r2
 8004c4e:	61fb      	str	r3, [r7, #28]
  itsource = hfdcan->Instance->IE;
 8004c50:	687b      	ldr	r3, [r7, #4]
 8004c52:	681b      	ldr	r3, [r3, #0]
 8004c54:	6d5b      	ldr	r3, [r3, #84]	@ 0x54
 8004c56:	61bb      	str	r3, [r7, #24]
  itflag = hfdcan->Instance->IR;
 8004c58:	687b      	ldr	r3, [r7, #4]
 8004c5a:	681b      	ldr	r3, [r3, #0]
 8004c5c:	6d1b      	ldr	r3, [r3, #80]	@ 0x50
 8004c5e:	617b      	str	r3, [r7, #20]

  /* High Priority Message interrupt management *******************************/
  if (FDCAN_CHECK_FLAG(itflag, FDCAN_FLAG_RX_HIGH_PRIORITY_MSG) != RESET)
 8004c60:	697b      	ldr	r3, [r7, #20]
 8004c62:	099b      	lsrs	r3, r3, #6
 8004c64:	f003 0301 	and.w	r3, r3, #1
 8004c68:	2b00      	cmp	r3, #0
 8004c6a:	d00c      	beq.n	8004c86 <HAL_FDCAN_IRQHandler+0xb6>
  {
    if (FDCAN_CHECK_IT_SOURCE(itsource, FDCAN_IT_RX_HIGH_PRIORITY_MSG) != RESET)
 8004c6c:	69bb      	ldr	r3, [r7, #24]
 8004c6e:	099b      	lsrs	r3, r3, #6
 8004c70:	f003 0301 	and.w	r3, r3, #1
 8004c74:	2b00      	cmp	r3, #0
 8004c76:	d006      	beq.n	8004c86 <HAL_FDCAN_IRQHandler+0xb6>
    {
      /* Clear the High Priority Message flag */
      __HAL_FDCAN_CLEAR_FLAG(hfdcan, FDCAN_FLAG_RX_HIGH_PRIORITY_MSG);
 8004c78:	687b      	ldr	r3, [r7, #4]
 8004c7a:	681b      	ldr	r3, [r3, #0]
 8004c7c:	2240      	movs	r2, #64	@ 0x40
 8004c7e:	651a      	str	r2, [r3, #80]	@ 0x50
#if USE_HAL_FDCAN_REGISTER_CALLBACKS == 1
      /* Call registered callback*/
      hfdcan->HighPriorityMessageCallback(hfdcan);
#else
      /* High Priority Message Callback */
      HAL_FDCAN_HighPriorityMessageCallback(hfdcan);
 8004c80:	6878      	ldr	r0, [r7, #4]
 8004c82:	f000 f922 	bl	8004eca <HAL_FDCAN_HighPriorityMessageCallback>
#endif /* USE_HAL_FDCAN_REGISTER_CALLBACKS */
    }
  }

  /* Transmission Abort interrupt management **********************************/
  if (FDCAN_CHECK_FLAG(itflag, FDCAN_FLAG_TX_ABORT_COMPLETE) != RESET)
 8004c86:	697b      	ldr	r3, [r7, #20]
 8004c88:	0a1b      	lsrs	r3, r3, #8
 8004c8a:	f003 0301 	and.w	r3, r3, #1
 8004c8e:	2b00      	cmp	r3, #0
 8004c90:	d01a      	beq.n	8004cc8 <HAL_FDCAN_IRQHandler+0xf8>
  {
    if (FDCAN_CHECK_IT_SOURCE(itsource, FDCAN_IT_TX_ABORT_COMPLETE) != RESET)
 8004c92:	69bb      	ldr	r3, [r7, #24]
 8004c94:	0a1b      	lsrs	r3, r3, #8
 8004c96:	f003 0301 	and.w	r3, r3, #1
 8004c9a:	2b00      	cmp	r3, #0
 8004c9c:	d014      	beq.n	8004cc8 <HAL_FDCAN_IRQHandler+0xf8>
    {
      /* List of aborted monitored buffers */
      AbortedBuffers = hfdcan->Instance->TXBCF;
 8004c9e:	687b      	ldr	r3, [r7, #4]
 8004ca0:	681b      	ldr	r3, [r3, #0]
 8004ca2:	f8d3 30d8 	ldr.w	r3, [r3, #216]	@ 0xd8
 8004ca6:	613b      	str	r3, [r7, #16]
      AbortedBuffers &= hfdcan->Instance->TXBCIE;
 8004ca8:	687b      	ldr	r3, [r7, #4]
 8004caa:	681b      	ldr	r3, [r3, #0]
 8004cac:	f8d3 30e0 	ldr.w	r3, [r3, #224]	@ 0xe0
 8004cb0:	693a      	ldr	r2, [r7, #16]
 8004cb2:	4013      	ands	r3, r2
 8004cb4:	613b      	str	r3, [r7, #16]

      /* Clear the Transmission Cancellation flag */
      __HAL_FDCAN_CLEAR_FLAG(hfdcan, FDCAN_FLAG_TX_ABORT_COMPLETE);
 8004cb6:	687b      	ldr	r3, [r7, #4]
 8004cb8:	681b      	ldr	r3, [r3, #0]
 8004cba:	f44f 7280 	mov.w	r2, #256	@ 0x100
 8004cbe:	651a      	str	r2, [r3, #80]	@ 0x50
#if USE_HAL_FDCAN_REGISTER_CALLBACKS == 1
      /* Call registered callback*/
      hfdcan->TxBufferAbortCallback(hfdcan, AbortedBuffers);
#else
      /* Transmission Cancellation Callback */
      HAL_FDCAN_TxBufferAbortCallback(hfdcan, AbortedBuffers);
 8004cc0:	6939      	ldr	r1, [r7, #16]
 8004cc2:	6878      	ldr	r0, [r7, #4]
 8004cc4:	f000 f8e2 	bl	8004e8c <HAL_FDCAN_TxBufferAbortCallback>
#endif /* USE_HAL_FDCAN_REGISTER_CALLBACKS */
    }
  }

  /* Tx event FIFO interrupts management **************************************/
  if (TxEventFifoITs != 0U)
 8004cc8:	6afb      	ldr	r3, [r7, #44]	@ 0x2c
 8004cca:	2b00      	cmp	r3, #0
 8004ccc:	d007      	beq.n	8004cde <HAL_FDCAN_IRQHandler+0x10e>
  {
    /* Clear the Tx Event FIFO flags */
    __HAL_FDCAN_CLEAR_FLAG(hfdcan, TxEventFifoITs);
 8004cce:	687b      	ldr	r3, [r7, #4]
 8004cd0:	681b      	ldr	r3, [r3, #0]
 8004cd2:	6afa      	ldr	r2, [r7, #44]	@ 0x2c
 8004cd4:	651a      	str	r2, [r3, #80]	@ 0x50
#if USE_HAL_FDCAN_REGISTER_CALLBACKS == 1
    /* Call registered callback*/
    hfdcan->TxEventFifoCallback(hfdcan, TxEventFifoITs);
#else
    /* Tx Event FIFO Callback */
    HAL_FDCAN_TxEventFifoCallback(hfdcan, TxEventFifoITs);
 8004cd6:	6af9      	ldr	r1, [r7, #44]	@ 0x2c
 8004cd8:	6878      	ldr	r0, [r7, #4]
 8004cda:	f000 f8ac 	bl	8004e36 <HAL_FDCAN_TxEventFifoCallback>
#endif /* USE_HAL_FDCAN_REGISTER_CALLBACKS */
  }

  /* Rx FIFO 0 interrupts management ******************************************/
  if (RxFifo0ITs != 0U)
 8004cde:	6abb      	ldr	r3, [r7, #40]	@ 0x28
 8004ce0:	2b00      	cmp	r3, #0
 8004ce2:	d007      	beq.n	8004cf4 <HAL_FDCAN_IRQHandler+0x124>
  {
    /* Clear the Rx FIFO 0 flags */
    __HAL_FDCAN_CLEAR_FLAG(hfdcan, RxFifo0ITs);
 8004ce4:	687b      	ldr	r3, [r7, #4]
 8004ce6:	681b      	ldr	r3, [r3, #0]
 8004ce8:	6aba      	ldr	r2, [r7, #40]	@ 0x28
 8004cea:	651a      	str	r2, [r3, #80]	@ 0x50
#if USE_HAL_FDCAN_REGISTER_CALLBACKS == 1
    /* Call registered callback*/
    hfdcan->RxFifo0Callback(hfdcan, RxFifo0ITs);
#else
    /* Rx FIFO 0 Callback */
    HAL_FDCAN_RxFifo0Callback(hfdcan, RxFifo0ITs);
 8004cec:	6ab9      	ldr	r1, [r7, #40]	@ 0x28
 8004cee:	6878      	ldr	r0, [r7, #4]
 8004cf0:	f7fd fa8a 	bl	8002208 <HAL_FDCAN_RxFifo0Callback>
#endif /* USE_HAL_FDCAN_REGISTER_CALLBACKS */
  }

  /* Rx FIFO 1 interrupts management ******************************************/
  if (RxFifo1ITs != 0U)
 8004cf4:	6a7b      	ldr	r3, [r7, #36]	@ 0x24
 8004cf6:	2b00      	cmp	r3, #0
 8004cf8:	d007      	beq.n	8004d0a <HAL_FDCAN_IRQHandler+0x13a>
  {
    /* Clear the Rx FIFO 1 flags */
    __HAL_FDCAN_CLEAR_FLAG(hfdcan, RxFifo1ITs);
 8004cfa:	687b      	ldr	r3, [r7, #4]
 8004cfc:	681b      	ldr	r3, [r3, #0]
 8004cfe:	6a7a      	ldr	r2, [r7, #36]	@ 0x24
 8004d00:	651a      	str	r2, [r3, #80]	@ 0x50
#if USE_HAL_FDCAN_REGISTER_CALLBACKS == 1
    /* Call registered callback*/
    hfdcan->RxFifo1Callback(hfdcan, RxFifo1ITs);
#else
    /* Rx FIFO 1 Callback */
    HAL_FDCAN_RxFifo1Callback(hfdcan, RxFifo1ITs);
 8004d02:	6a79      	ldr	r1, [r7, #36]	@ 0x24
 8004d04:	6878      	ldr	r0, [r7, #4]
 8004d06:	f000 f8a1 	bl	8004e4c <HAL_FDCAN_RxFifo1Callback>
#endif /* USE_HAL_FDCAN_REGISTER_CALLBACKS */
  }

  /* Tx FIFO empty interrupt management ***************************************/
  if (FDCAN_CHECK_FLAG(itflag, FDCAN_FLAG_TX_FIFO_EMPTY) != RESET)
 8004d0a:	697b      	ldr	r3, [r7, #20]
 8004d0c:	0a5b      	lsrs	r3, r3, #9
 8004d0e:	f003 0301 	and.w	r3, r3, #1
 8004d12:	2b00      	cmp	r3, #0
 8004d14:	d00d      	beq.n	8004d32 <HAL_FDCAN_IRQHandler+0x162>
  {
    if (FDCAN_CHECK_IT_SOURCE(itsource, FDCAN_IT_TX_FIFO_EMPTY) != RESET)
 8004d16:	69bb      	ldr	r3, [r7, #24]
 8004d18:	0a5b      	lsrs	r3, r3, #9
 8004d1a:	f003 0301 	and.w	r3, r3, #1
 8004d1e:	2b00      	cmp	r3, #0
 8004d20:	d007      	beq.n	8004d32 <HAL_FDCAN_IRQHandler+0x162>
    {
      /* Clear the Tx FIFO empty flag */
      __HAL_FDCAN_CLEAR_FLAG(hfdcan, FDCAN_FLAG_TX_FIFO_EMPTY);
 8004d22:	687b      	ldr	r3, [r7, #4]
 8004d24:	681b      	ldr	r3, [r3, #0]
 8004d26:	f44f 7200 	mov.w	r2, #512	@ 0x200
 8004d2a:	651a      	str	r2, [r3, #80]	@ 0x50
#if USE_HAL_FDCAN_REGISTER_CALLBACKS == 1
      /* Call registered callback*/
      hfdcan->TxFifoEmptyCallback(hfdcan);
#else
      /* Tx FIFO empty Callback */
      HAL_FDCAN_TxFifoEmptyCallback(hfdcan);
 8004d2c:	6878      	ldr	r0, [r7, #4]
 8004d2e:	f000 f898 	bl	8004e62 <HAL_FDCAN_TxFifoEmptyCallback>
#endif /* USE_HAL_FDCAN_REGISTER_CALLBACKS */
    }
  }

  /* Transmission Complete interrupt management *******************************/
  if (FDCAN_CHECK_FLAG(itflag, FDCAN_FLAG_TX_COMPLETE) != RESET)
 8004d32:	697b      	ldr	r3, [r7, #20]
 8004d34:	09db      	lsrs	r3, r3, #7
 8004d36:	f003 0301 	and.w	r3, r3, #1
 8004d3a:	2b00      	cmp	r3, #0
 8004d3c:	d019      	beq.n	8004d72 <HAL_FDCAN_IRQHandler+0x1a2>
  {
    if (FDCAN_CHECK_IT_SOURCE(itsource, FDCAN_IT_TX_COMPLETE) != RESET)
 8004d3e:	69bb      	ldr	r3, [r7, #24]
 8004d40:	09db      	lsrs	r3, r3, #7
 8004d42:	f003 0301 	and.w	r3, r3, #1
 8004d46:	2b00      	cmp	r3, #0
 8004d48:	d013      	beq.n	8004d72 <HAL_FDCAN_IRQHandler+0x1a2>
    {
      /* List of transmitted monitored buffers */
      TransmittedBuffers = hfdcan->Instance->TXBTO;
 8004d4a:	687b      	ldr	r3, [r7, #4]
 8004d4c:	681b      	ldr	r3, [r3, #0]
 8004d4e:	f8d3 30d4 	ldr.w	r3, [r3, #212]	@ 0xd4
 8004d52:	60fb      	str	r3, [r7, #12]
      TransmittedBuffers &= hfdcan->Instance->TXBTIE;
 8004d54:	687b      	ldr	r3, [r7, #4]
 8004d56:	681b      	ldr	r3, [r3, #0]
 8004d58:	f8d3 30dc 	ldr.w	r3, [r3, #220]	@ 0xdc
 8004d5c:	68fa      	ldr	r2, [r7, #12]
 8004d5e:	4013      	ands	r3, r2
 8004d60:	60fb      	str	r3, [r7, #12]

      /* Clear the Transmission Complete flag */
      __HAL_FDCAN_CLEAR_FLAG(hfdcan, FDCAN_FLAG_TX_COMPLETE);
 8004d62:	687b      	ldr	r3, [r7, #4]
 8004d64:	681b      	ldr	r3, [r3, #0]
 8004d66:	2280      	movs	r2, #128	@ 0x80
 8004d68:	651a      	str	r2, [r3, #80]	@ 0x50
#if USE_HAL_FDCAN_REGISTER_CALLBACKS == 1
      /* Call registered callback*/
      hfdcan->TxBufferCompleteCallback(hfdcan, TransmittedBuffers);
#else
      /* Transmission Complete Callback */
      HAL_FDCAN_TxBufferCompleteCallback(hfdcan, TransmittedBuffers);
 8004d6a:	68f9      	ldr	r1, [r7, #12]
 8004d6c:	6878      	ldr	r0, [r7, #4]
 8004d6e:	f000 f882 	bl	8004e76 <HAL_FDCAN_TxBufferCompleteCallback>
#endif /* USE_HAL_FDCAN_REGISTER_CALLBACKS */
    }
  }

  /* Timestamp Wraparound interrupt management ********************************/
  if (FDCAN_CHECK_FLAG(itflag, FDCAN_FLAG_TIMESTAMP_WRAPAROUND) != RESET)
 8004d72:	697b      	ldr	r3, [r7, #20]
 8004d74:	0b5b      	lsrs	r3, r3, #13
 8004d76:	f003 0301 	and.w	r3, r3, #1
 8004d7a:	2b00      	cmp	r3, #0
 8004d7c:	d00d      	beq.n	8004d9a <HAL_FDCAN_IRQHandler+0x1ca>
  {
    if (FDCAN_CHECK_IT_SOURCE(itsource, FDCAN_IT_TIMESTAMP_WRAPAROUND) != RESET)
 8004d7e:	69bb      	ldr	r3, [r7, #24]
 8004d80:	0b5b      	lsrs	r3, r3, #13
 8004d82:	f003 0301 	and.w	r3, r3, #1
 8004d86:	2b00      	cmp	r3, #0
 8004d88:	d007      	beq.n	8004d9a <HAL_FDCAN_IRQHandler+0x1ca>
    {
      /* Clear the Timestamp Wraparound flag */
      __HAL_FDCAN_CLEAR_FLAG(hfdcan, FDCAN_FLAG_TIMESTAMP_WRAPAROUND);
 8004d8a:	687b      	ldr	r3, [r7, #4]
 8004d8c:	681b      	ldr	r3, [r3, #0]
 8004d8e:	f44f 5200 	mov.w	r2, #8192	@ 0x2000
 8004d92:	651a      	str	r2, [r3, #80]	@ 0x50
#if USE_HAL_FDCAN_REGISTER_CALLBACKS == 1
      /* Call registered callback*/
      hfdcan->TimestampWraparoundCallback(hfdcan);
#else
      /* Timestamp Wraparound Callback */
      HAL_FDCAN_TimestampWraparoundCallback(hfdcan);
 8004d94:	6878      	ldr	r0, [r7, #4]
 8004d96:	f000 f884 	bl	8004ea2 <HAL_FDCAN_TimestampWraparoundCallback>
#endif /* USE_HAL_FDCAN_REGISTER_CALLBACKS */
    }
  }

  /* Timeout Occurred interrupt management ************************************/
  if (FDCAN_CHECK_FLAG(itflag, FDCAN_FLAG_TIMEOUT_OCCURRED) != RESET)
 8004d9a:	697b      	ldr	r3, [r7, #20]
 8004d9c:	0bdb      	lsrs	r3, r3, #15
 8004d9e:	f003 0301 	and.w	r3, r3, #1
 8004da2:	2b00      	cmp	r3, #0
 8004da4:	d00d      	beq.n	8004dc2 <HAL_FDCAN_IRQHandler+0x1f2>
  {
    if (FDCAN_CHECK_IT_SOURCE(itsource, FDCAN_IT_TIMEOUT_OCCURRED) != RESET)
 8004da6:	69bb      	ldr	r3, [r7, #24]
 8004da8:	0bdb      	lsrs	r3, r3, #15
 8004daa:	f003 0301 	and.w	r3, r3, #1
 8004dae:	2b00      	cmp	r3, #0
 8004db0:	d007      	beq.n	8004dc2 <HAL_FDCAN_IRQHandler+0x1f2>
    {
      /* Clear the Timeout Occurred flag */
      __HAL_FDCAN_CLEAR_FLAG(hfdcan, FDCAN_FLAG_TIMEOUT_OCCURRED);
 8004db2:	687b      	ldr	r3, [r7, #4]
 8004db4:	681b      	ldr	r3, [r3, #0]
 8004db6:	f44f 4200 	mov.w	r2, #32768	@ 0x8000
 8004dba:	651a      	str	r2, [r3, #80]	@ 0x50
#if USE_HAL_FDCAN_REGISTER_CALLBACKS == 1
      /* Call registered callback*/
      hfdcan->TimeoutOccurredCallback(hfdcan);
#else
      /* Timeout Occurred Callback */
      HAL_FDCAN_TimeoutOccurredCallback(hfdcan);
 8004dbc:	6878      	ldr	r0, [r7, #4]
 8004dbe:	f000 f87a 	bl	8004eb6 <HAL_FDCAN_TimeoutOccurredCallback>
#endif /* USE_HAL_FDCAN_REGISTER_CALLBACKS */
    }
  }

  /* Message RAM access failure interrupt management **************************/
  if (FDCAN_CHECK_FLAG(itflag, FDCAN_FLAG_RAM_ACCESS_FAILURE) != RESET)
 8004dc2:	697b      	ldr	r3, [r7, #20]
 8004dc4:	0b9b      	lsrs	r3, r3, #14
 8004dc6:	f003 0301 	and.w	r3, r3, #1
 8004dca:	2b00      	cmp	r3, #0
 8004dcc:	d010      	beq.n	8004df0 <HAL_FDCAN_IRQHandler+0x220>
  {
    if (FDCAN_CHECK_IT_SOURCE(itsource, FDCAN_IT_RAM_ACCESS_FAILURE) != RESET)
 8004dce:	69bb      	ldr	r3, [r7, #24]
 8004dd0:	0b9b      	lsrs	r3, r3, #14
 8004dd2:	f003 0301 	and.w	r3, r3, #1
 8004dd6:	2b00      	cmp	r3, #0
 8004dd8:	d00a      	beq.n	8004df0 <HAL_FDCAN_IRQHandler+0x220>
    {
      /* Clear the Message RAM access failure flag */
      __HAL_FDCAN_CLEAR_FLAG(hfdcan, FDCAN_FLAG_RAM_ACCESS_FAILURE);
 8004dda:	687b      	ldr	r3, [r7, #4]
 8004ddc:	681b      	ldr	r3, [r3, #0]
 8004dde:	f44f 4280 	mov.w	r2, #16384	@ 0x4000
 8004de2:	651a      	str	r2, [r3, #80]	@ 0x50

      /* Update error code */
      hfdcan->ErrorCode |= HAL_FDCAN_ERROR_RAM_ACCESS;
 8004de4:	687b      	ldr	r3, [r7, #4]
 8004de6:	6e1b      	ldr	r3, [r3, #96]	@ 0x60
 8004de8:	f043 0280 	orr.w	r2, r3, #128	@ 0x80
 8004dec:	687b      	ldr	r3, [r7, #4]
 8004dee:	661a      	str	r2, [r3, #96]	@ 0x60
    }
  }

  /* Error Status interrupts management ***************************************/
  if (ErrorStatusITs != 0U)
 8004df0:	69fb      	ldr	r3, [r7, #28]
 8004df2:	2b00      	cmp	r3, #0
 8004df4:	d007      	beq.n	8004e06 <HAL_FDCAN_IRQHandler+0x236>
  {
    /* Clear the Error flags */
    __HAL_FDCAN_CLEAR_FLAG(hfdcan, ErrorStatusITs);
 8004df6:	687b      	ldr	r3, [r7, #4]
 8004df8:	681b      	ldr	r3, [r3, #0]
 8004dfa:	69fa      	ldr	r2, [r7, #28]
 8004dfc:	651a      	str	r2, [r3, #80]	@ 0x50
#if USE_HAL_FDCAN_REGISTER_CALLBACKS == 1
    /* Call registered callback*/
    hfdcan->ErrorStatusCallback(hfdcan, ErrorStatusITs);
#else
    /* Error Status Callback */
    HAL_FDCAN_ErrorStatusCallback(hfdcan, ErrorStatusITs);
 8004dfe:	69f9      	ldr	r1, [r7, #28]
 8004e00:	6878      	ldr	r0, [r7, #4]
 8004e02:	f000 f876 	bl	8004ef2 <HAL_FDCAN_ErrorStatusCallback>
#endif /* USE_HAL_FDCAN_REGISTER_CALLBACKS */
  }

  /* Error interrupts management **********************************************/
  if (Errors != 0U)
 8004e06:	6a3b      	ldr	r3, [r7, #32]
 8004e08:	2b00      	cmp	r3, #0
 8004e0a:	d009      	beq.n	8004e20 <HAL_FDCAN_IRQHandler+0x250>
  {
    /* Clear the Error flags */
    __HAL_FDCAN_CLEAR_FLAG(hfdcan, Errors);
 8004e0c:	687b      	ldr	r3, [r7, #4]
 8004e0e:	681b      	ldr	r3, [r3, #0]
 8004e10:	6a3a      	ldr	r2, [r7, #32]
 8004e12:	651a      	str	r2, [r3, #80]	@ 0x50

    /* Update error code */
    hfdcan->ErrorCode |= Errors;
 8004e14:	687b      	ldr	r3, [r7, #4]
 8004e16:	6e1a      	ldr	r2, [r3, #96]	@ 0x60
 8004e18:	6a3b      	ldr	r3, [r7, #32]
 8004e1a:	431a      	orrs	r2, r3
 8004e1c:	687b      	ldr	r3, [r7, #4]
 8004e1e:	661a      	str	r2, [r3, #96]	@ 0x60
  }

  if (hfdcan->ErrorCode != HAL_FDCAN_ERROR_NONE)
 8004e20:	687b      	ldr	r3, [r7, #4]
 8004e22:	6e1b      	ldr	r3, [r3, #96]	@ 0x60
 8004e24:	2b00      	cmp	r3, #0
 8004e26:	d002      	beq.n	8004e2e <HAL_FDCAN_IRQHandler+0x25e>
#if USE_HAL_FDCAN_REGISTER_CALLBACKS == 1
    /* Call registered callback*/
    hfdcan->ErrorCallback(hfdcan);
#else
    /* Error Callback */
    HAL_FDCAN_ErrorCallback(hfdcan);
 8004e28:	6878      	ldr	r0, [r7, #4]
 8004e2a:	f000 f858 	bl	8004ede <HAL_FDCAN_ErrorCallback>
#endif /* USE_HAL_FDCAN_REGISTER_CALLBACKS */
  }
}
 8004e2e:	bf00      	nop
 8004e30:	3730      	adds	r7, #48	@ 0x30
 8004e32:	46bd      	mov	sp, r7
 8004e34:	bd80      	pop	{r7, pc}

08004e36 <HAL_FDCAN_TxEventFifoCallback>:
  * @param  TxEventFifoITs indicates which Tx Event FIFO interrupts are signaled.
  *         This parameter can be any combination of @arg FDCAN_Tx_Event_Fifo_Interrupts.
  * @retval None
  */
__weak void HAL_FDCAN_TxEventFifoCallback(FDCAN_HandleTypeDef *hfdcan, uint32_t TxEventFifoITs)
{
 8004e36:	b480      	push	{r7}
 8004e38:	b083      	sub	sp, #12
 8004e3a:	af00      	add	r7, sp, #0
 8004e3c:	6078      	str	r0, [r7, #4]
 8004e3e:	6039      	str	r1, [r7, #0]
  UNUSED(TxEventFifoITs);

  /* NOTE: This function Should not be modified, when the callback is needed,
            the HAL_FDCAN_TxEventFifoCallback could be implemented in the user file
   */
}
 8004e40:	bf00      	nop
 8004e42:	370c      	adds	r7, #12
 8004e44:	46bd      	mov	sp, r7
 8004e46:	f85d 7b04 	ldr.w	r7, [sp], #4
 8004e4a:	4770      	bx	lr

08004e4c <HAL_FDCAN_RxFifo1Callback>:
  * @param  RxFifo1ITs indicates which Rx FIFO 1 interrupts are signaled.
  *         This parameter can be any combination of @arg FDCAN_Rx_Fifo1_Interrupts.
  * @retval None
  */
__weak void HAL_FDCAN_RxFifo1Callback(FDCAN_HandleTypeDef *hfdcan, uint32_t RxFifo1ITs)
{
 8004e4c:	b480      	push	{r7}
 8004e4e:	b083      	sub	sp, #12
 8004e50:	af00      	add	r7, sp, #0
 8004e52:	6078      	str	r0, [r7, #4]
 8004e54:	6039      	str	r1, [r7, #0]
  UNUSED(RxFifo1ITs);

  /* NOTE: This function Should not be modified, when the callback is needed,
            the HAL_FDCAN_RxFifo1Callback could be implemented in the user file
   */
}
 8004e56:	bf00      	nop
 8004e58:	370c      	adds	r7, #12
 8004e5a:	46bd      	mov	sp, r7
 8004e5c:	f85d 7b04 	ldr.w	r7, [sp], #4
 8004e60:	4770      	bx	lr

08004e62 <HAL_FDCAN_TxFifoEmptyCallback>:
  * @param  hfdcan pointer to an FDCAN_HandleTypeDef structure that contains
  *         the configuration information for the specified FDCAN.
  * @retval None
  */
__weak void HAL_FDCAN_TxFifoEmptyCallback(FDCAN_HandleTypeDef *hfdcan)
{
 8004e62:	b480      	push	{r7}
 8004e64:	b083      	sub	sp, #12
 8004e66:	af00      	add	r7, sp, #0
 8004e68:	6078      	str	r0, [r7, #4]
  UNUSED(hfdcan);

  /* NOTE: This function Should not be modified, when the callback is needed,
            the HAL_FDCAN_TxFifoEmptyCallback could be implemented in the user file
   */
}
 8004e6a:	bf00      	nop
 8004e6c:	370c      	adds	r7, #12
 8004e6e:	46bd      	mov	sp, r7
 8004e70:	f85d 7b04 	ldr.w	r7, [sp], #4
 8004e74:	4770      	bx	lr

08004e76 <HAL_FDCAN_TxBufferCompleteCallback>:
  * @param  BufferIndexes Indexes of the transmitted buffers.
  *         This parameter can be any combination of @arg FDCAN_Tx_location.
  * @retval None
  */
__weak void HAL_FDCAN_TxBufferCompleteCallback(FDCAN_HandleTypeDef *hfdcan, uint32_t BufferIndexes)
{
 8004e76:	b480      	push	{r7}
 8004e78:	b083      	sub	sp, #12
 8004e7a:	af00      	add	r7, sp, #0
 8004e7c:	6078      	str	r0, [r7, #4]
 8004e7e:	6039      	str	r1, [r7, #0]
  UNUSED(BufferIndexes);

  /* NOTE: This function Should not be modified, when the callback is needed,
            the HAL_FDCAN_TxBufferCompleteCallback could be implemented in the user file
   */
}
 8004e80:	bf00      	nop
 8004e82:	370c      	adds	r7, #12
 8004e84:	46bd      	mov	sp, r7
 8004e86:	f85d 7b04 	ldr.w	r7, [sp], #4
 8004e8a:	4770      	bx	lr

08004e8c <HAL_FDCAN_TxBufferAbortCallback>:
  * @param  BufferIndexes Indexes of the aborted buffers.
  *         This parameter can be any combination of @arg FDCAN_Tx_location.
  * @retval None
  */
__weak void HAL_FDCAN_TxBufferAbortCallback(FDCAN_HandleTypeDef *hfdcan, uint32_t BufferIndexes)
{
 8004e8c:	b480      	push	{r7}
 8004e8e:	b083      	sub	sp, #12
 8004e90:	af00      	add	r7, sp, #0
 8004e92:	6078      	str	r0, [r7, #4]
 8004e94:	6039      	str	r1, [r7, #0]
  UNUSED(BufferIndexes);

  /* NOTE: This function Should not be modified, when the callback is needed,
            the HAL_FDCAN_TxBufferAbortCallback could be implemented in the user file
   */
}
 8004e96:	bf00      	nop
 8004e98:	370c      	adds	r7, #12
 8004e9a:	46bd      	mov	sp, r7
 8004e9c:	f85d 7b04 	ldr.w	r7, [sp], #4
 8004ea0:	4770      	bx	lr

08004ea2 <HAL_FDCAN_TimestampWraparoundCallback>:
  * @param  hfdcan pointer to an FDCAN_HandleTypeDef structure that contains
  *         the configuration information for the specified FDCAN.
  * @retval None
  */
__weak void HAL_FDCAN_TimestampWraparoundCallback(FDCAN_HandleTypeDef *hfdcan)
{
 8004ea2:	b480      	push	{r7}
 8004ea4:	b083      	sub	sp, #12
 8004ea6:	af00      	add	r7, sp, #0
 8004ea8:	6078      	str	r0, [r7, #4]
  UNUSED(hfdcan);

  /* NOTE: This function Should not be modified, when the callback is needed,
            the HAL_FDCAN_TimestampWraparoundCallback could be implemented in the user file
   */
}
 8004eaa:	bf00      	nop
 8004eac:	370c      	adds	r7, #12
 8004eae:	46bd      	mov	sp, r7
 8004eb0:	f85d 7b04 	ldr.w	r7, [sp], #4
 8004eb4:	4770      	bx	lr

08004eb6 <HAL_FDCAN_TimeoutOccurredCallback>:
  * @param  hfdcan pointer to an FDCAN_HandleTypeDef structure that contains
  *         the configuration information for the specified FDCAN.
  * @retval None
  */
__weak void HAL_FDCAN_TimeoutOccurredCallback(FDCAN_HandleTypeDef *hfdcan)
{
 8004eb6:	b480      	push	{r7}
 8004eb8:	b083      	sub	sp, #12
 8004eba:	af00      	add	r7, sp, #0
 8004ebc:	6078      	str	r0, [r7, #4]
  UNUSED(hfdcan);

  /* NOTE: This function Should not be modified, when the callback is needed,
            the HAL_FDCAN_TimeoutOccurredCallback could be implemented in the user file
   */
}
 8004ebe:	bf00      	nop
 8004ec0:	370c      	adds	r7, #12
 8004ec2:	46bd      	mov	sp, r7
 8004ec4:	f85d 7b04 	ldr.w	r7, [sp], #4
 8004ec8:	4770      	bx	lr

08004eca <HAL_FDCAN_HighPriorityMessageCallback>:
  * @param  hfdcan pointer to an FDCAN_HandleTypeDef structure that contains
  *         the configuration information for the specified FDCAN.
  * @retval None
  */
__weak void HAL_FDCAN_HighPriorityMessageCallback(FDCAN_HandleTypeDef *hfdcan)
{
 8004eca:	b480      	push	{r7}
 8004ecc:	b083      	sub	sp, #12
 8004ece:	af00      	add	r7, sp, #0
 8004ed0:	6078      	str	r0, [r7, #4]
  UNUSED(hfdcan);

  /* NOTE: This function Should not be modified, when the callback is needed,
            the HAL_FDCAN_HighPriorityMessageCallback could be implemented in the user file
   */
}
 8004ed2:	bf00      	nop
 8004ed4:	370c      	adds	r7, #12
 8004ed6:	46bd      	mov	sp, r7
 8004ed8:	f85d 7b04 	ldr.w	r7, [sp], #4
 8004edc:	4770      	bx	lr

08004ede <HAL_FDCAN_ErrorCallback>:
  * @param  hfdcan pointer to an FDCAN_HandleTypeDef structure that contains
  *         the configuration information for the specified FDCAN.
  * @retval None
  */
__weak void HAL_FDCAN_ErrorCallback(FDCAN_HandleTypeDef *hfdcan)
{
 8004ede:	b480      	push	{r7}
 8004ee0:	b083      	sub	sp, #12
 8004ee2:	af00      	add	r7, sp, #0
 8004ee4:	6078      	str	r0, [r7, #4]
  UNUSED(hfdcan);

  /* NOTE: This function Should not be modified, when the callback is needed,
            the HAL_FDCAN_ErrorCallback could be implemented in the user file
   */
}
 8004ee6:	bf00      	nop
 8004ee8:	370c      	adds	r7, #12
 8004eea:	46bd      	mov	sp, r7
 8004eec:	f85d 7b04 	ldr.w	r7, [sp], #4
 8004ef0:	4770      	bx	lr

08004ef2 <HAL_FDCAN_ErrorStatusCallback>:
  * @param  ErrorStatusITs indicates which Error Status interrupts are signaled.
  *         This parameter can be any combination of @arg FDCAN_Error_Status_Interrupts.
  * @retval None
  */
__weak void HAL_FDCAN_ErrorStatusCallback(FDCAN_HandleTypeDef *hfdcan, uint32_t ErrorStatusITs)
{
 8004ef2:	b480      	push	{r7}
 8004ef4:	b083      	sub	sp, #12
 8004ef6:	af00      	add	r7, sp, #0
 8004ef8:	6078      	str	r0, [r7, #4]
 8004efa:	6039      	str	r1, [r7, #0]
  UNUSED(ErrorStatusITs);

  /* NOTE: This function Should not be modified, when the callback is needed,
            the HAL_FDCAN_ErrorStatusCallback could be implemented in the user file
   */
}
 8004efc:	bf00      	nop
 8004efe:	370c      	adds	r7, #12
 8004f00:	46bd      	mov	sp, r7
 8004f02:	f85d 7b04 	ldr.w	r7, [sp], #4
 8004f06:	4770      	bx	lr

08004f08 <FDCAN_CalcultateRamBlockAddresses>:
  * @param  hfdcan pointer to an FDCAN_HandleTypeDef structure that contains
  *         the configuration information for the specified FDCAN.
  * @retval none
 */
static void FDCAN_CalcultateRamBlockAddresses(FDCAN_HandleTypeDef *hfdcan)
{
 8004f08:	b480      	push	{r7}
 8004f0a:	b085      	sub	sp, #20
 8004f0c:	af00      	add	r7, sp, #0
 8004f0e:	6078      	str	r0, [r7, #4]
  uint32_t RAMcounter;
  uint32_t SramCanInstanceBase = SRAMCAN_BASE;
 8004f10:	4b30      	ldr	r3, [pc, #192]	@ (8004fd4 <FDCAN_CalcultateRamBlockAddresses+0xcc>)
 8004f12:	60bb      	str	r3, [r7, #8]
#if defined(FDCAN2)

  if (hfdcan->Instance == FDCAN2)
 8004f14:	687b      	ldr	r3, [r7, #4]
 8004f16:	681b      	ldr	r3, [r3, #0]
 8004f18:	4a2f      	ldr	r2, [pc, #188]	@ (8004fd8 <FDCAN_CalcultateRamBlockAddresses+0xd0>)
 8004f1a:	4293      	cmp	r3, r2
 8004f1c:	d103      	bne.n	8004f26 <FDCAN_CalcultateRamBlockAddresses+0x1e>
  {
    SramCanInstanceBase += SRAMCAN_SIZE;
 8004f1e:	68bb      	ldr	r3, [r7, #8]
 8004f20:	f503 7354 	add.w	r3, r3, #848	@ 0x350
 8004f24:	60bb      	str	r3, [r7, #8]
  }
#endif /* FDCAN2 */
#if defined(FDCAN3)
  if (hfdcan->Instance == FDCAN3)
 8004f26:	687b      	ldr	r3, [r7, #4]
 8004f28:	681b      	ldr	r3, [r3, #0]
 8004f2a:	4a2c      	ldr	r2, [pc, #176]	@ (8004fdc <FDCAN_CalcultateRamBlockAddresses+0xd4>)
 8004f2c:	4293      	cmp	r3, r2
 8004f2e:	d103      	bne.n	8004f38 <FDCAN_CalcultateRamBlockAddresses+0x30>
  {
    SramCanInstanceBase += SRAMCAN_SIZE * 2U;
 8004f30:	68bb      	ldr	r3, [r7, #8]
 8004f32:	f503 63d4 	add.w	r3, r3, #1696	@ 0x6a0
 8004f36:	60bb      	str	r3, [r7, #8]
  }
#endif /* FDCAN3 */

  /* Standard filter list start address */
  hfdcan->msgRam.StandardFilterSA = SramCanInstanceBase + SRAMCAN_FLSSA;
 8004f38:	687b      	ldr	r3, [r7, #4]
 8004f3a:	68ba      	ldr	r2, [r7, #8]
 8004f3c:	641a      	str	r2, [r3, #64]	@ 0x40

  /* Standard filter elements number */
  MODIFY_REG(hfdcan->Instance->RXGFC, FDCAN_RXGFC_LSS, (hfdcan->Init.StdFiltersNbr << FDCAN_RXGFC_LSS_Pos));
 8004f3e:	687b      	ldr	r3, [r7, #4]
 8004f40:	681b      	ldr	r3, [r3, #0]
 8004f42:	f8d3 3080 	ldr.w	r3, [r3, #128]	@ 0x80
 8004f46:	f423 11f8 	bic.w	r1, r3, #2031616	@ 0x1f0000
 8004f4a:	687b      	ldr	r3, [r7, #4]
 8004f4c:	6b5b      	ldr	r3, [r3, #52]	@ 0x34
 8004f4e:	041a      	lsls	r2, r3, #16
 8004f50:	687b      	ldr	r3, [r7, #4]
 8004f52:	681b      	ldr	r3, [r3, #0]
 8004f54:	430a      	orrs	r2, r1
 8004f56:	f8c3 2080 	str.w	r2, [r3, #128]	@ 0x80

  /* Extended filter list start address */
  hfdcan->msgRam.ExtendedFilterSA = SramCanInstanceBase + SRAMCAN_FLESA;
 8004f5a:	68bb      	ldr	r3, [r7, #8]
 8004f5c:	f103 0270 	add.w	r2, r3, #112	@ 0x70
 8004f60:	687b      	ldr	r3, [r7, #4]
 8004f62:	645a      	str	r2, [r3, #68]	@ 0x44

  /* Extended filter elements number */
  MODIFY_REG(hfdcan->Instance->RXGFC, FDCAN_RXGFC_LSE, (hfdcan->Init.ExtFiltersNbr << FDCAN_RXGFC_LSE_Pos));
 8004f64:	687b      	ldr	r3, [r7, #4]
 8004f66:	681b      	ldr	r3, [r3, #0]
 8004f68:	f8d3 3080 	ldr.w	r3, [r3, #128]	@ 0x80
 8004f6c:	f023 6170 	bic.w	r1, r3, #251658240	@ 0xf000000
 8004f70:	687b      	ldr	r3, [r7, #4]
 8004f72:	6b9b      	ldr	r3, [r3, #56]	@ 0x38
 8004f74:	061a      	lsls	r2, r3, #24
 8004f76:	687b      	ldr	r3, [r7, #4]
 8004f78:	681b      	ldr	r3, [r3, #0]
 8004f7a:	430a      	orrs	r2, r1
 8004f7c:	f8c3 2080 	str.w	r2, [r3, #128]	@ 0x80

  /* Rx FIFO 0 start address */
  hfdcan->msgRam.RxFIFO0SA = SramCanInstanceBase + SRAMCAN_RF0SA;
 8004f80:	68bb      	ldr	r3, [r7, #8]
 8004f82:	f103 02b0 	add.w	r2, r3, #176	@ 0xb0
 8004f86:	687b      	ldr	r3, [r7, #4]
 8004f88:	649a      	str	r2, [r3, #72]	@ 0x48

  /* Rx FIFO 1 start address */
  hfdcan->msgRam.RxFIFO1SA = SramCanInstanceBase + SRAMCAN_RF1SA;
 8004f8a:	68bb      	ldr	r3, [r7, #8]
 8004f8c:	f503 72c4 	add.w	r2, r3, #392	@ 0x188
 8004f90:	687b      	ldr	r3, [r7, #4]
 8004f92:	64da      	str	r2, [r3, #76]	@ 0x4c

  /* Tx event FIFO start address */
  hfdcan->msgRam.TxEventFIFOSA = SramCanInstanceBase + SRAMCAN_TEFSA;
 8004f94:	68bb      	ldr	r3, [r7, #8]
 8004f96:	f503 7218 	add.w	r2, r3, #608	@ 0x260
 8004f9a:	687b      	ldr	r3, [r7, #4]
 8004f9c:	651a      	str	r2, [r3, #80]	@ 0x50

  /* Tx FIFO/queue start address */
  hfdcan->msgRam.TxFIFOQSA = SramCanInstanceBase + SRAMCAN_TFQSA;
 8004f9e:	68bb      	ldr	r3, [r7, #8]
 8004fa0:	f503 721e 	add.w	r2, r3, #632	@ 0x278
 8004fa4:	687b      	ldr	r3, [r7, #4]
 8004fa6:	655a      	str	r2, [r3, #84]	@ 0x54

  /* Flush the allocated Message RAM area */
  for (RAMcounter = SramCanInstanceBase; RAMcounter < (SramCanInstanceBase + SRAMCAN_SIZE); RAMcounter += 4U)
 8004fa8:	68bb      	ldr	r3, [r7, #8]
 8004faa:	60fb      	str	r3, [r7, #12]
 8004fac:	e005      	b.n	8004fba <FDCAN_CalcultateRamBlockAddresses+0xb2>
  {
    *(uint32_t *)(RAMcounter) = 0x00000000U;
 8004fae:	68fb      	ldr	r3, [r7, #12]
 8004fb0:	2200      	movs	r2, #0
 8004fb2:	601a      	str	r2, [r3, #0]
  for (RAMcounter = SramCanInstanceBase; RAMcounter < (SramCanInstanceBase + SRAMCAN_SIZE); RAMcounter += 4U)
 8004fb4:	68fb      	ldr	r3, [r7, #12]
 8004fb6:	3304      	adds	r3, #4
 8004fb8:	60fb      	str	r3, [r7, #12]
 8004fba:	68bb      	ldr	r3, [r7, #8]
 8004fbc:	f503 7354 	add.w	r3, r3, #848	@ 0x350
 8004fc0:	68fa      	ldr	r2, [r7, #12]
 8004fc2:	429a      	cmp	r2, r3
 8004fc4:	d3f3      	bcc.n	8004fae <FDCAN_CalcultateRamBlockAddresses+0xa6>
  }
}
 8004fc6:	bf00      	nop
 8004fc8:	bf00      	nop
 8004fca:	3714      	adds	r7, #20
 8004fcc:	46bd      	mov	sp, r7
 8004fce:	f85d 7b04 	ldr.w	r7, [sp], #4
 8004fd2:	4770      	bx	lr
 8004fd4:	4000a400 	.word	0x4000a400
 8004fd8:	40006800 	.word	0x40006800
 8004fdc:	40006c00 	.word	0x40006c00

08004fe0 <FDCAN_CopyMessageToRAM>:
  * @param  BufferIndex index of the buffer to be configured.
  * @retval none
 */
static void FDCAN_CopyMessageToRAM(const FDCAN_HandleTypeDef *hfdcan, const FDCAN_TxHeaderTypeDef *pTxHeader,
                                   const uint8_t *pTxData, uint32_t BufferIndex)
{
 8004fe0:	b480      	push	{r7}
 8004fe2:	b089      	sub	sp, #36	@ 0x24
 8004fe4:	af00      	add	r7, sp, #0
 8004fe6:	60f8      	str	r0, [r7, #12]
 8004fe8:	60b9      	str	r1, [r7, #8]
 8004fea:	607a      	str	r2, [r7, #4]
 8004fec:	603b      	str	r3, [r7, #0]
  uint32_t TxElementW2;
  uint32_t *TxAddress;
  uint32_t ByteCounter;

  /* Build first word of Tx header element */
  if (pTxHeader->IdType == FDCAN_STANDARD_ID)
 8004fee:	68bb      	ldr	r3, [r7, #8]
 8004ff0:	685b      	ldr	r3, [r3, #4]
 8004ff2:	2b00      	cmp	r3, #0
 8004ff4:	d10a      	bne.n	800500c <FDCAN_CopyMessageToRAM+0x2c>
  {
    TxElementW1 = (pTxHeader->ErrorStateIndicator |
 8004ff6:	68bb      	ldr	r3, [r7, #8]
 8004ff8:	691a      	ldr	r2, [r3, #16]
                   FDCAN_STANDARD_ID |
                   pTxHeader->TxFrameType |
 8004ffa:	68bb      	ldr	r3, [r7, #8]
 8004ffc:	689b      	ldr	r3, [r3, #8]
                   FDCAN_STANDARD_ID |
 8004ffe:	431a      	orrs	r2, r3
                   (pTxHeader->Identifier << 18U));
 8005000:	68bb      	ldr	r3, [r7, #8]
 8005002:	681b      	ldr	r3, [r3, #0]
 8005004:	049b      	lsls	r3, r3, #18
    TxElementW1 = (pTxHeader->ErrorStateIndicator |
 8005006:	4313      	orrs	r3, r2
 8005008:	61fb      	str	r3, [r7, #28]
 800500a:	e00a      	b.n	8005022 <FDCAN_CopyMessageToRAM+0x42>
  }
  else /* pTxHeader->IdType == FDCAN_EXTENDED_ID */
  {
    TxElementW1 = (pTxHeader->ErrorStateIndicator |
 800500c:	68bb      	ldr	r3, [r7, #8]
 800500e:	691a      	ldr	r2, [r3, #16]
                   FDCAN_EXTENDED_ID |
                   pTxHeader->TxFrameType |
 8005010:	68bb      	ldr	r3, [r7, #8]
 8005012:	689b      	ldr	r3, [r3, #8]
                   FDCAN_EXTENDED_ID |
 8005014:	431a      	orrs	r2, r3
                   pTxHeader->Identifier);
 8005016:	68bb      	ldr	r3, [r7, #8]
 8005018:	681b      	ldr	r3, [r3, #0]
                   pTxHeader->TxFrameType |
 800501a:	4313      	orrs	r3, r2
    TxElementW1 = (pTxHeader->ErrorStateIndicator |
 800501c:	f043 4380 	orr.w	r3, r3, #1073741824	@ 0x40000000
 8005020:	61fb      	str	r3, [r7, #28]
  }

  /* Build second word of Tx header element */
  TxElementW2 = ((pTxHeader->MessageMarker << 24U) |
 8005022:	68bb      	ldr	r3, [r7, #8]
 8005024:	6a1b      	ldr	r3, [r3, #32]
 8005026:	061a      	lsls	r2, r3, #24
                 pTxHeader->TxEventFifoControl |
 8005028:	68bb      	ldr	r3, [r7, #8]
 800502a:	69db      	ldr	r3, [r3, #28]
  TxElementW2 = ((pTxHeader->MessageMarker << 24U) |
 800502c:	431a      	orrs	r2, r3
                 pTxHeader->FDFormat |
 800502e:	68bb      	ldr	r3, [r7, #8]
 8005030:	699b      	ldr	r3, [r3, #24]
                 pTxHeader->TxEventFifoControl |
 8005032:	431a      	orrs	r2, r3
                 pTxHeader->BitRateSwitch |
 8005034:	68bb      	ldr	r3, [r7, #8]
 8005036:	695b      	ldr	r3, [r3, #20]
                 pTxHeader->FDFormat |
 8005038:	431a      	orrs	r2, r3
                 (pTxHeader->DataLength << 16U));
 800503a:	68bb      	ldr	r3, [r7, #8]
 800503c:	68db      	ldr	r3, [r3, #12]
 800503e:	041b      	lsls	r3, r3, #16
  TxElementW2 = ((pTxHeader->MessageMarker << 24U) |
 8005040:	4313      	orrs	r3, r2
 8005042:	613b      	str	r3, [r7, #16]

  /* Calculate Tx element address */
  TxAddress = (uint32_t *)(hfdcan->msgRam.TxFIFOQSA + (BufferIndex * SRAMCAN_TFQ_SIZE));
 8005044:	68fb      	ldr	r3, [r7, #12]
 8005046:	6d59      	ldr	r1, [r3, #84]	@ 0x54
 8005048:	683a      	ldr	r2, [r7, #0]
 800504a:	4613      	mov	r3, r2
 800504c:	00db      	lsls	r3, r3, #3
 800504e:	4413      	add	r3, r2
 8005050:	00db      	lsls	r3, r3, #3
 8005052:	440b      	add	r3, r1
 8005054:	61bb      	str	r3, [r7, #24]

  /* Write Tx element header to the message RAM */
  *TxAddress = TxElementW1;
 8005056:	69bb      	ldr	r3, [r7, #24]
 8005058:	69fa      	ldr	r2, [r7, #28]
 800505a:	601a      	str	r2, [r3, #0]
  TxAddress++;
 800505c:	69bb      	ldr	r3, [r7, #24]
 800505e:	3304      	adds	r3, #4
 8005060:	61bb      	str	r3, [r7, #24]
  *TxAddress = TxElementW2;
 8005062:	69bb      	ldr	r3, [r7, #24]
 8005064:	693a      	ldr	r2, [r7, #16]
 8005066:	601a      	str	r2, [r3, #0]
  TxAddress++;
 8005068:	69bb      	ldr	r3, [r7, #24]
 800506a:	3304      	adds	r3, #4
 800506c:	61bb      	str	r3, [r7, #24]

  /* Write Tx payload to the message RAM */
  for (ByteCounter = 0; ByteCounter < DLCtoBytes[pTxHeader->DataLength]; ByteCounter += 4U)
 800506e:	2300      	movs	r3, #0
 8005070:	617b      	str	r3, [r7, #20]
 8005072:	e020      	b.n	80050b6 <FDCAN_CopyMessageToRAM+0xd6>
  {
    *TxAddress = (((uint32_t)pTxData[ByteCounter + 3U] << 24U) |
 8005074:	697b      	ldr	r3, [r7, #20]
 8005076:	3303      	adds	r3, #3
 8005078:	687a      	ldr	r2, [r7, #4]
 800507a:	4413      	add	r3, r2
 800507c:	781b      	ldrb	r3, [r3, #0]
 800507e:	061a      	lsls	r2, r3, #24
                  ((uint32_t)pTxData[ByteCounter + 2U] << 16U) |
 8005080:	697b      	ldr	r3, [r7, #20]
 8005082:	3302      	adds	r3, #2
 8005084:	6879      	ldr	r1, [r7, #4]
 8005086:	440b      	add	r3, r1
 8005088:	781b      	ldrb	r3, [r3, #0]
 800508a:	041b      	lsls	r3, r3, #16
    *TxAddress = (((uint32_t)pTxData[ByteCounter + 3U] << 24U) |
 800508c:	431a      	orrs	r2, r3
                  ((uint32_t)pTxData[ByteCounter + 1U] << 8U)  |
 800508e:	697b      	ldr	r3, [r7, #20]
 8005090:	3301      	adds	r3, #1
 8005092:	6879      	ldr	r1, [r7, #4]
 8005094:	440b      	add	r3, r1
 8005096:	781b      	ldrb	r3, [r3, #0]
 8005098:	021b      	lsls	r3, r3, #8
                  ((uint32_t)pTxData[ByteCounter + 2U] << 16U) |
 800509a:	4313      	orrs	r3, r2
                  (uint32_t)pTxData[ByteCounter]);
 800509c:	6879      	ldr	r1, [r7, #4]
 800509e:	697a      	ldr	r2, [r7, #20]
 80050a0:	440a      	add	r2, r1
 80050a2:	7812      	ldrb	r2, [r2, #0]
                  ((uint32_t)pTxData[ByteCounter + 1U] << 8U)  |
 80050a4:	431a      	orrs	r2, r3
    *TxAddress = (((uint32_t)pTxData[ByteCounter + 3U] << 24U) |
 80050a6:	69bb      	ldr	r3, [r7, #24]
 80050a8:	601a      	str	r2, [r3, #0]
    TxAddress++;
 80050aa:	69bb      	ldr	r3, [r7, #24]
 80050ac:	3304      	adds	r3, #4
 80050ae:	61bb      	str	r3, [r7, #24]
  for (ByteCounter = 0; ByteCounter < DLCtoBytes[pTxHeader->DataLength]; ByteCounter += 4U)
 80050b0:	697b      	ldr	r3, [r7, #20]
 80050b2:	3304      	adds	r3, #4
 80050b4:	617b      	str	r3, [r7, #20]
 80050b6:	68bb      	ldr	r3, [r7, #8]
 80050b8:	68db      	ldr	r3, [r3, #12]
 80050ba:	4a06      	ldr	r2, [pc, #24]	@ (80050d4 <FDCAN_CopyMessageToRAM+0xf4>)
 80050bc:	5cd3      	ldrb	r3, [r2, r3]
 80050be:	461a      	mov	r2, r3
 80050c0:	697b      	ldr	r3, [r7, #20]
 80050c2:	4293      	cmp	r3, r2
 80050c4:	d3d6      	bcc.n	8005074 <FDCAN_CopyMessageToRAM+0x94>
  }
}
 80050c6:	bf00      	nop
 80050c8:	bf00      	nop
 80050ca:	3724      	adds	r7, #36	@ 0x24
 80050cc:	46bd      	mov	sp, r7
 80050ce:	f85d 7b04 	ldr.w	r7, [sp], #4
 80050d2:	4770      	bx	lr
 80050d4:	080082b8 	.word	0x080082b8

080050d8 <HAL_GPIO_Init>:
  * @param  GPIO_Init pointer to a GPIO_InitTypeDef structure that contains
  *         the configuration information for the specified GPIO peripheral.
  * @retval None
  */
void HAL_GPIO_Init(GPIO_TypeDef  *GPIOx, GPIO_InitTypeDef *GPIO_Init)
{
 80050d8:	b480      	push	{r7}
 80050da:	b087      	sub	sp, #28
 80050dc:	af00      	add	r7, sp, #0
 80050de:	6078      	str	r0, [r7, #4]
 80050e0:	6039      	str	r1, [r7, #0]
  uint32_t position = 0x00U;
 80050e2:	2300      	movs	r3, #0
 80050e4:	617b      	str	r3, [r7, #20]
  assert_param(IS_GPIO_ALL_INSTANCE(GPIOx));
  assert_param(IS_GPIO_PIN(GPIO_Init->Pin));
  assert_param(IS_GPIO_MODE(GPIO_Init->Mode));

  /* Configure the port pins */
  while (((GPIO_Init->Pin) >> position) != 0U)
 80050e6:	e15a      	b.n	800539e <HAL_GPIO_Init+0x2c6>
  {
    /* Get current io position */
    iocurrent = (GPIO_Init->Pin) & (1UL << position);
 80050e8:	683b      	ldr	r3, [r7, #0]
 80050ea:	681a      	ldr	r2, [r3, #0]
 80050ec:	2101      	movs	r1, #1
 80050ee:	697b      	ldr	r3, [r7, #20]
 80050f0:	fa01 f303 	lsl.w	r3, r1, r3
 80050f4:	4013      	ands	r3, r2
 80050f6:	60fb      	str	r3, [r7, #12]

    if (iocurrent != 0x00u)
 80050f8:	68fb      	ldr	r3, [r7, #12]
 80050fa:	2b00      	cmp	r3, #0
 80050fc:	f000 814c 	beq.w	8005398 <HAL_GPIO_Init+0x2c0>
    {
      /*--------------------- GPIO Mode Configuration ------------------------*/
      /* In case of Output or Alternate function mode selection */
      if(((GPIO_Init->Mode & GPIO_MODE) == MODE_OUTPUT) ||
 8005100:	683b      	ldr	r3, [r7, #0]
 8005102:	685b      	ldr	r3, [r3, #4]
 8005104:	f003 0303 	and.w	r3, r3, #3
 8005108:	2b01      	cmp	r3, #1
 800510a:	d005      	beq.n	8005118 <HAL_GPIO_Init+0x40>
         ((GPIO_Init->Mode & GPIO_MODE) == MODE_AF))
 800510c:	683b      	ldr	r3, [r7, #0]
 800510e:	685b      	ldr	r3, [r3, #4]
 8005110:	f003 0303 	and.w	r3, r3, #3
      if(((GPIO_Init->Mode & GPIO_MODE) == MODE_OUTPUT) ||
 8005114:	2b02      	cmp	r3, #2
 8005116:	d130      	bne.n	800517a <HAL_GPIO_Init+0xa2>
      {
        /* Check the Speed parameter */
        assert_param(IS_GPIO_SPEED(GPIO_Init->Speed));
        /* Configure the IO Speed */
        temp = GPIOx->OSPEEDR;
 8005118:	687b      	ldr	r3, [r7, #4]
 800511a:	689b      	ldr	r3, [r3, #8]
 800511c:	613b      	str	r3, [r7, #16]
        temp &= ~(GPIO_OSPEEDR_OSPEED0 << (position * 2U));
 800511e:	697b      	ldr	r3, [r7, #20]
 8005120:	005b      	lsls	r3, r3, #1
 8005122:	2203      	movs	r2, #3
 8005124:	fa02 f303 	lsl.w	r3, r2, r3
 8005128:	43db      	mvns	r3, r3
 800512a:	693a      	ldr	r2, [r7, #16]
 800512c:	4013      	ands	r3, r2
 800512e:	613b      	str	r3, [r7, #16]
        temp |= (GPIO_Init->Speed << (position * 2U));
 8005130:	683b      	ldr	r3, [r7, #0]
 8005132:	68da      	ldr	r2, [r3, #12]
 8005134:	697b      	ldr	r3, [r7, #20]
 8005136:	005b      	lsls	r3, r3, #1
 8005138:	fa02 f303 	lsl.w	r3, r2, r3
 800513c:	693a      	ldr	r2, [r7, #16]
 800513e:	4313      	orrs	r3, r2
 8005140:	613b      	str	r3, [r7, #16]
        GPIOx->OSPEEDR = temp;
 8005142:	687b      	ldr	r3, [r7, #4]
 8005144:	693a      	ldr	r2, [r7, #16]
 8005146:	609a      	str	r2, [r3, #8]

        /* Configure the IO Output Type */
        temp = GPIOx->OTYPER;
 8005148:	687b      	ldr	r3, [r7, #4]
 800514a:	685b      	ldr	r3, [r3, #4]
 800514c:	613b      	str	r3, [r7, #16]
        temp &= ~(GPIO_OTYPER_OT0 << position) ;
 800514e:	2201      	movs	r2, #1
 8005150:	697b      	ldr	r3, [r7, #20]
 8005152:	fa02 f303 	lsl.w	r3, r2, r3
 8005156:	43db      	mvns	r3, r3
 8005158:	693a      	ldr	r2, [r7, #16]
 800515a:	4013      	ands	r3, r2
 800515c:	613b      	str	r3, [r7, #16]
        temp |= (((GPIO_Init->Mode & OUTPUT_TYPE) >> OUTPUT_TYPE_Pos) << position);
 800515e:	683b      	ldr	r3, [r7, #0]
 8005160:	685b      	ldr	r3, [r3, #4]
 8005162:	091b      	lsrs	r3, r3, #4
 8005164:	f003 0201 	and.w	r2, r3, #1
 8005168:	697b      	ldr	r3, [r7, #20]
 800516a:	fa02 f303 	lsl.w	r3, r2, r3
 800516e:	693a      	ldr	r2, [r7, #16]
 8005170:	4313      	orrs	r3, r2
 8005172:	613b      	str	r3, [r7, #16]
        GPIOx->OTYPER = temp;
 8005174:	687b      	ldr	r3, [r7, #4]
 8005176:	693a      	ldr	r2, [r7, #16]
 8005178:	605a      	str	r2, [r3, #4]
      }

      if ((GPIO_Init->Mode & GPIO_MODE) != MODE_ANALOG)
 800517a:	683b      	ldr	r3, [r7, #0]
 800517c:	685b      	ldr	r3, [r3, #4]
 800517e:	f003 0303 	and.w	r3, r3, #3
 8005182:	2b03      	cmp	r3, #3
 8005184:	d017      	beq.n	80051b6 <HAL_GPIO_Init+0xde>
      {
        /* Check the Pull parameter */
        assert_param(IS_GPIO_PULL(GPIO_Init->Pull));

        /* Activate the Pull-up or Pull down resistor for the current IO */
        temp = GPIOx->PUPDR;
 8005186:	687b      	ldr	r3, [r7, #4]
 8005188:	68db      	ldr	r3, [r3, #12]
 800518a:	613b      	str	r3, [r7, #16]
        temp &= ~(GPIO_PUPDR_PUPD0 << (position * 2U));
 800518c:	697b      	ldr	r3, [r7, #20]
 800518e:	005b      	lsls	r3, r3, #1
 8005190:	2203      	movs	r2, #3
 8005192:	fa02 f303 	lsl.w	r3, r2, r3
 8005196:	43db      	mvns	r3, r3
 8005198:	693a      	ldr	r2, [r7, #16]
 800519a:	4013      	ands	r3, r2
 800519c:	613b      	str	r3, [r7, #16]
        temp |= ((GPIO_Init->Pull) << (position * 2U));
 800519e:	683b      	ldr	r3, [r7, #0]
 80051a0:	689a      	ldr	r2, [r3, #8]
 80051a2:	697b      	ldr	r3, [r7, #20]
 80051a4:	005b      	lsls	r3, r3, #1
 80051a6:	fa02 f303 	lsl.w	r3, r2, r3
 80051aa:	693a      	ldr	r2, [r7, #16]
 80051ac:	4313      	orrs	r3, r2
 80051ae:	613b      	str	r3, [r7, #16]
        GPIOx->PUPDR = temp;
 80051b0:	687b      	ldr	r3, [r7, #4]
 80051b2:	693a      	ldr	r2, [r7, #16]
 80051b4:	60da      	str	r2, [r3, #12]
      }

      /* In case of Alternate function mode selection */
      if ((GPIO_Init->Mode & GPIO_MODE) == MODE_AF)
 80051b6:	683b      	ldr	r3, [r7, #0]
 80051b8:	685b      	ldr	r3, [r3, #4]
 80051ba:	f003 0303 	and.w	r3, r3, #3
 80051be:	2b02      	cmp	r3, #2
 80051c0:	d123      	bne.n	800520a <HAL_GPIO_Init+0x132>
        /* Check the Alternate function parameters */
        assert_param(IS_GPIO_AF_INSTANCE(GPIOx));
        assert_param(IS_GPIO_AF(GPIO_Init->Alternate));

        /* Configure Alternate function mapped with the current IO */
        temp = GPIOx->AFR[position >> 3U];
 80051c2:	697b      	ldr	r3, [r7, #20]
 80051c4:	08da      	lsrs	r2, r3, #3
 80051c6:	687b      	ldr	r3, [r7, #4]
 80051c8:	3208      	adds	r2, #8
 80051ca:	f853 3022 	ldr.w	r3, [r3, r2, lsl #2]
 80051ce:	613b      	str	r3, [r7, #16]
        temp &= ~(0xFU << ((position & 0x07U) * 4U));
 80051d0:	697b      	ldr	r3, [r7, #20]
 80051d2:	f003 0307 	and.w	r3, r3, #7
 80051d6:	009b      	lsls	r3, r3, #2
 80051d8:	220f      	movs	r2, #15
 80051da:	fa02 f303 	lsl.w	r3, r2, r3
 80051de:	43db      	mvns	r3, r3
 80051e0:	693a      	ldr	r2, [r7, #16]
 80051e2:	4013      	ands	r3, r2
 80051e4:	613b      	str	r3, [r7, #16]
        temp |= ((GPIO_Init->Alternate) << ((position & 0x07U) * 4U));
 80051e6:	683b      	ldr	r3, [r7, #0]
 80051e8:	691a      	ldr	r2, [r3, #16]
 80051ea:	697b      	ldr	r3, [r7, #20]
 80051ec:	f003 0307 	and.w	r3, r3, #7
 80051f0:	009b      	lsls	r3, r3, #2
 80051f2:	fa02 f303 	lsl.w	r3, r2, r3
 80051f6:	693a      	ldr	r2, [r7, #16]
 80051f8:	4313      	orrs	r3, r2
 80051fa:	613b      	str	r3, [r7, #16]
        GPIOx->AFR[position >> 3U] = temp;
 80051fc:	697b      	ldr	r3, [r7, #20]
 80051fe:	08da      	lsrs	r2, r3, #3
 8005200:	687b      	ldr	r3, [r7, #4]
 8005202:	3208      	adds	r2, #8
 8005204:	6939      	ldr	r1, [r7, #16]
 8005206:	f843 1022 	str.w	r1, [r3, r2, lsl #2]
      }

      /* Configure IO Direction mode (Input, Output, Alternate or Analog) */
      temp = GPIOx->MODER;
 800520a:	687b      	ldr	r3, [r7, #4]
 800520c:	681b      	ldr	r3, [r3, #0]
 800520e:	613b      	str	r3, [r7, #16]
      temp &= ~(GPIO_MODER_MODE0 << (position * 2U));
 8005210:	697b      	ldr	r3, [r7, #20]
 8005212:	005b      	lsls	r3, r3, #1
 8005214:	2203      	movs	r2, #3
 8005216:	fa02 f303 	lsl.w	r3, r2, r3
 800521a:	43db      	mvns	r3, r3
 800521c:	693a      	ldr	r2, [r7, #16]
 800521e:	4013      	ands	r3, r2
 8005220:	613b      	str	r3, [r7, #16]
      temp |= ((GPIO_Init->Mode & GPIO_MODE) << (position * 2U));
 8005222:	683b      	ldr	r3, [r7, #0]
 8005224:	685b      	ldr	r3, [r3, #4]
 8005226:	f003 0203 	and.w	r2, r3, #3
 800522a:	697b      	ldr	r3, [r7, #20]
 800522c:	005b      	lsls	r3, r3, #1
 800522e:	fa02 f303 	lsl.w	r3, r2, r3
 8005232:	693a      	ldr	r2, [r7, #16]
 8005234:	4313      	orrs	r3, r2
 8005236:	613b      	str	r3, [r7, #16]
      GPIOx->MODER = temp;
 8005238:	687b      	ldr	r3, [r7, #4]
 800523a:	693a      	ldr	r2, [r7, #16]
 800523c:	601a      	str	r2, [r3, #0]

      /*--------------------- EXTI Mode Configuration ------------------------*/
      /* Configure the External Interrupt or event for the current IO */
      if ((GPIO_Init->Mode & EXTI_MODE) != 0x00u)
 800523e:	683b      	ldr	r3, [r7, #0]
 8005240:	685b      	ldr	r3, [r3, #4]
 8005242:	f403 3340 	and.w	r3, r3, #196608	@ 0x30000
 8005246:	2b00      	cmp	r3, #0
 8005248:	f000 80a6 	beq.w	8005398 <HAL_GPIO_Init+0x2c0>
      {
        /* Enable SYSCFG Clock */
        __HAL_RCC_SYSCFG_CLK_ENABLE();
 800524c:	4b5b      	ldr	r3, [pc, #364]	@ (80053bc <HAL_GPIO_Init+0x2e4>)
 800524e:	6e1b      	ldr	r3, [r3, #96]	@ 0x60
 8005250:	4a5a      	ldr	r2, [pc, #360]	@ (80053bc <HAL_GPIO_Init+0x2e4>)
 8005252:	f043 0301 	orr.w	r3, r3, #1
 8005256:	6613      	str	r3, [r2, #96]	@ 0x60
 8005258:	4b58      	ldr	r3, [pc, #352]	@ (80053bc <HAL_GPIO_Init+0x2e4>)
 800525a:	6e1b      	ldr	r3, [r3, #96]	@ 0x60
 800525c:	f003 0301 	and.w	r3, r3, #1
 8005260:	60bb      	str	r3, [r7, #8]
 8005262:	68bb      	ldr	r3, [r7, #8]

        temp = SYSCFG->EXTICR[position >> 2U];
 8005264:	4a56      	ldr	r2, [pc, #344]	@ (80053c0 <HAL_GPIO_Init+0x2e8>)
 8005266:	697b      	ldr	r3, [r7, #20]
 8005268:	089b      	lsrs	r3, r3, #2
 800526a:	3302      	adds	r3, #2
 800526c:	f852 3023 	ldr.w	r3, [r2, r3, lsl #2]
 8005270:	613b      	str	r3, [r7, #16]
        temp &= ~(0x0FUL << (4U * (position & 0x03U)));
 8005272:	697b      	ldr	r3, [r7, #20]
 8005274:	f003 0303 	and.w	r3, r3, #3
 8005278:	009b      	lsls	r3, r3, #2
 800527a:	220f      	movs	r2, #15
 800527c:	fa02 f303 	lsl.w	r3, r2, r3
 8005280:	43db      	mvns	r3, r3
 8005282:	693a      	ldr	r2, [r7, #16]
 8005284:	4013      	ands	r3, r2
 8005286:	613b      	str	r3, [r7, #16]
        temp |= (GPIO_GET_INDEX(GPIOx) << (4U * (position & 0x03U)));
 8005288:	687b      	ldr	r3, [r7, #4]
 800528a:	f1b3 4f90 	cmp.w	r3, #1207959552	@ 0x48000000
 800528e:	d01f      	beq.n	80052d0 <HAL_GPIO_Init+0x1f8>
 8005290:	687b      	ldr	r3, [r7, #4]
 8005292:	4a4c      	ldr	r2, [pc, #304]	@ (80053c4 <HAL_GPIO_Init+0x2ec>)
 8005294:	4293      	cmp	r3, r2
 8005296:	d019      	beq.n	80052cc <HAL_GPIO_Init+0x1f4>
 8005298:	687b      	ldr	r3, [r7, #4]
 800529a:	4a4b      	ldr	r2, [pc, #300]	@ (80053c8 <HAL_GPIO_Init+0x2f0>)
 800529c:	4293      	cmp	r3, r2
 800529e:	d013      	beq.n	80052c8 <HAL_GPIO_Init+0x1f0>
 80052a0:	687b      	ldr	r3, [r7, #4]
 80052a2:	4a4a      	ldr	r2, [pc, #296]	@ (80053cc <HAL_GPIO_Init+0x2f4>)
 80052a4:	4293      	cmp	r3, r2
 80052a6:	d00d      	beq.n	80052c4 <HAL_GPIO_Init+0x1ec>
 80052a8:	687b      	ldr	r3, [r7, #4]
 80052aa:	4a49      	ldr	r2, [pc, #292]	@ (80053d0 <HAL_GPIO_Init+0x2f8>)
 80052ac:	4293      	cmp	r3, r2
 80052ae:	d007      	beq.n	80052c0 <HAL_GPIO_Init+0x1e8>
 80052b0:	687b      	ldr	r3, [r7, #4]
 80052b2:	4a48      	ldr	r2, [pc, #288]	@ (80053d4 <HAL_GPIO_Init+0x2fc>)
 80052b4:	4293      	cmp	r3, r2
 80052b6:	d101      	bne.n	80052bc <HAL_GPIO_Init+0x1e4>
 80052b8:	2305      	movs	r3, #5
 80052ba:	e00a      	b.n	80052d2 <HAL_GPIO_Init+0x1fa>
 80052bc:	2306      	movs	r3, #6
 80052be:	e008      	b.n	80052d2 <HAL_GPIO_Init+0x1fa>
 80052c0:	2304      	movs	r3, #4
 80052c2:	e006      	b.n	80052d2 <HAL_GPIO_Init+0x1fa>
 80052c4:	2303      	movs	r3, #3
 80052c6:	e004      	b.n	80052d2 <HAL_GPIO_Init+0x1fa>
 80052c8:	2302      	movs	r3, #2
 80052ca:	e002      	b.n	80052d2 <HAL_GPIO_Init+0x1fa>
 80052cc:	2301      	movs	r3, #1
 80052ce:	e000      	b.n	80052d2 <HAL_GPIO_Init+0x1fa>
 80052d0:	2300      	movs	r3, #0
 80052d2:	697a      	ldr	r2, [r7, #20]
 80052d4:	f002 0203 	and.w	r2, r2, #3
 80052d8:	0092      	lsls	r2, r2, #2
 80052da:	4093      	lsls	r3, r2
 80052dc:	693a      	ldr	r2, [r7, #16]
 80052de:	4313      	orrs	r3, r2
 80052e0:	613b      	str	r3, [r7, #16]
        SYSCFG->EXTICR[position >> 2U] = temp;
 80052e2:	4937      	ldr	r1, [pc, #220]	@ (80053c0 <HAL_GPIO_Init+0x2e8>)
 80052e4:	697b      	ldr	r3, [r7, #20]
 80052e6:	089b      	lsrs	r3, r3, #2
 80052e8:	3302      	adds	r3, #2
 80052ea:	693a      	ldr	r2, [r7, #16]
 80052ec:	f841 2023 	str.w	r2, [r1, r3, lsl #2]

        /* Clear Rising Falling edge configuration */
        temp = EXTI->RTSR1;
 80052f0:	4b39      	ldr	r3, [pc, #228]	@ (80053d8 <HAL_GPIO_Init+0x300>)
 80052f2:	689b      	ldr	r3, [r3, #8]
 80052f4:	613b      	str	r3, [r7, #16]
        temp &= ~(iocurrent);
 80052f6:	68fb      	ldr	r3, [r7, #12]
 80052f8:	43db      	mvns	r3, r3
 80052fa:	693a      	ldr	r2, [r7, #16]
 80052fc:	4013      	ands	r3, r2
 80052fe:	613b      	str	r3, [r7, #16]
        if ((GPIO_Init->Mode & TRIGGER_RISING) != 0x00U)
 8005300:	683b      	ldr	r3, [r7, #0]
 8005302:	685b      	ldr	r3, [r3, #4]
 8005304:	f403 1380 	and.w	r3, r3, #1048576	@ 0x100000
 8005308:	2b00      	cmp	r3, #0
 800530a:	d003      	beq.n	8005314 <HAL_GPIO_Init+0x23c>
        {
          temp |= iocurrent;
 800530c:	693a      	ldr	r2, [r7, #16]
 800530e:	68fb      	ldr	r3, [r7, #12]
 8005310:	4313      	orrs	r3, r2
 8005312:	613b      	str	r3, [r7, #16]
        }
        EXTI->RTSR1 = temp;
 8005314:	4a30      	ldr	r2, [pc, #192]	@ (80053d8 <HAL_GPIO_Init+0x300>)
 8005316:	693b      	ldr	r3, [r7, #16]
 8005318:	6093      	str	r3, [r2, #8]

        temp = EXTI->FTSR1;
 800531a:	4b2f      	ldr	r3, [pc, #188]	@ (80053d8 <HAL_GPIO_Init+0x300>)
 800531c:	68db      	ldr	r3, [r3, #12]
 800531e:	613b      	str	r3, [r7, #16]
        temp &= ~(iocurrent);
 8005320:	68fb      	ldr	r3, [r7, #12]
 8005322:	43db      	mvns	r3, r3
 8005324:	693a      	ldr	r2, [r7, #16]
 8005326:	4013      	ands	r3, r2
 8005328:	613b      	str	r3, [r7, #16]
        if ((GPIO_Init->Mode & TRIGGER_FALLING) != 0x00U)
 800532a:	683b      	ldr	r3, [r7, #0]
 800532c:	685b      	ldr	r3, [r3, #4]
 800532e:	f403 1300 	and.w	r3, r3, #2097152	@ 0x200000
 8005332:	2b00      	cmp	r3, #0
 8005334:	d003      	beq.n	800533e <HAL_GPIO_Init+0x266>
        {
          temp |= iocurrent;
 8005336:	693a      	ldr	r2, [r7, #16]
 8005338:	68fb      	ldr	r3, [r7, #12]
 800533a:	4313      	orrs	r3, r2
 800533c:	613b      	str	r3, [r7, #16]
        }
        EXTI->FTSR1 = temp;
 800533e:	4a26      	ldr	r2, [pc, #152]	@ (80053d8 <HAL_GPIO_Init+0x300>)
 8005340:	693b      	ldr	r3, [r7, #16]
 8005342:	60d3      	str	r3, [r2, #12]

        temp = EXTI->EMR1;
 8005344:	4b24      	ldr	r3, [pc, #144]	@ (80053d8 <HAL_GPIO_Init+0x300>)
 8005346:	685b      	ldr	r3, [r3, #4]
 8005348:	613b      	str	r3, [r7, #16]
        temp &= ~(iocurrent);
 800534a:	68fb      	ldr	r3, [r7, #12]
 800534c:	43db      	mvns	r3, r3
 800534e:	693a      	ldr	r2, [r7, #16]
 8005350:	4013      	ands	r3, r2
 8005352:	613b      	str	r3, [r7, #16]
        if ((GPIO_Init->Mode & EXTI_EVT) != 0x00U)
 8005354:	683b      	ldr	r3, [r7, #0]
 8005356:	685b      	ldr	r3, [r3, #4]
 8005358:	f403 3300 	and.w	r3, r3, #131072	@ 0x20000
 800535c:	2b00      	cmp	r3, #0
 800535e:	d003      	beq.n	8005368 <HAL_GPIO_Init+0x290>
        {
          temp |= iocurrent;
 8005360:	693a      	ldr	r2, [r7, #16]
 8005362:	68fb      	ldr	r3, [r7, #12]
 8005364:	4313      	orrs	r3, r2
 8005366:	613b      	str	r3, [r7, #16]
        }
        EXTI->EMR1 = temp;
 8005368:	4a1b      	ldr	r2, [pc, #108]	@ (80053d8 <HAL_GPIO_Init+0x300>)
 800536a:	693b      	ldr	r3, [r7, #16]
 800536c:	6053      	str	r3, [r2, #4]

        /* Clear EXTI line configuration */
        temp = EXTI->IMR1;
 800536e:	4b1a      	ldr	r3, [pc, #104]	@ (80053d8 <HAL_GPIO_Init+0x300>)
 8005370:	681b      	ldr	r3, [r3, #0]
 8005372:	613b      	str	r3, [r7, #16]
        temp &= ~(iocurrent);
 8005374:	68fb      	ldr	r3, [r7, #12]
 8005376:	43db      	mvns	r3, r3
 8005378:	693a      	ldr	r2, [r7, #16]
 800537a:	4013      	ands	r3, r2
 800537c:	613b      	str	r3, [r7, #16]
        if ((GPIO_Init->Mode & EXTI_IT) != 0x00U)
 800537e:	683b      	ldr	r3, [r7, #0]
 8005380:	685b      	ldr	r3, [r3, #4]
 8005382:	f403 3380 	and.w	r3, r3, #65536	@ 0x10000
 8005386:	2b00      	cmp	r3, #0
 8005388:	d003      	beq.n	8005392 <HAL_GPIO_Init+0x2ba>
        {
          temp |= iocurrent;
 800538a:	693a      	ldr	r2, [r7, #16]
 800538c:	68fb      	ldr	r3, [r7, #12]
 800538e:	4313      	orrs	r3, r2
 8005390:	613b      	str	r3, [r7, #16]
        }
        EXTI->IMR1 = temp;
 8005392:	4a11      	ldr	r2, [pc, #68]	@ (80053d8 <HAL_GPIO_Init+0x300>)
 8005394:	693b      	ldr	r3, [r7, #16]
 8005396:	6013      	str	r3, [r2, #0]
      }
    }

    position++;
 8005398:	697b      	ldr	r3, [r7, #20]
 800539a:	3301      	adds	r3, #1
 800539c:	617b      	str	r3, [r7, #20]
  while (((GPIO_Init->Pin) >> position) != 0U)
 800539e:	683b      	ldr	r3, [r7, #0]
 80053a0:	681a      	ldr	r2, [r3, #0]
 80053a2:	697b      	ldr	r3, [r7, #20]
 80053a4:	fa22 f303 	lsr.w	r3, r2, r3
 80053a8:	2b00      	cmp	r3, #0
 80053aa:	f47f ae9d 	bne.w	80050e8 <HAL_GPIO_Init+0x10>
  }
}
 80053ae:	bf00      	nop
 80053b0:	bf00      	nop
 80053b2:	371c      	adds	r7, #28
 80053b4:	46bd      	mov	sp, r7
 80053b6:	f85d 7b04 	ldr.w	r7, [sp], #4
 80053ba:	4770      	bx	lr
 80053bc:	40021000 	.word	0x40021000
 80053c0:	40010000 	.word	0x40010000
 80053c4:	48000400 	.word	0x48000400
 80053c8:	48000800 	.word	0x48000800
 80053cc:	48000c00 	.word	0x48000c00
 80053d0:	48001000 	.word	0x48001000
 80053d4:	48001400 	.word	0x48001400
 80053d8:	40010400 	.word	0x40010400

080053dc <HAL_GPIO_ReadPin>:
  * @param  GPIO_Pin specifies the port bit to read.
  *         This parameter can be any combination of GPIO_PIN_x where x can be (0..15).
  * @retval The input port pin value.
  */
GPIO_PinState HAL_GPIO_ReadPin(GPIO_TypeDef *GPIOx, uint16_t GPIO_Pin)
{
 80053dc:	b480      	push	{r7}
 80053de:	b085      	sub	sp, #20
 80053e0:	af00      	add	r7, sp, #0
 80053e2:	6078      	str	r0, [r7, #4]
 80053e4:	460b      	mov	r3, r1
 80053e6:	807b      	strh	r3, [r7, #2]
  GPIO_PinState bitstatus;

  /* Check the parameters */
  assert_param(IS_GPIO_PIN(GPIO_Pin));

  if ((GPIOx->IDR & GPIO_Pin) != 0x00U)
 80053e8:	687b      	ldr	r3, [r7, #4]
 80053ea:	691a      	ldr	r2, [r3, #16]
 80053ec:	887b      	ldrh	r3, [r7, #2]
 80053ee:	4013      	ands	r3, r2
 80053f0:	2b00      	cmp	r3, #0
 80053f2:	d002      	beq.n	80053fa <HAL_GPIO_ReadPin+0x1e>
  {
    bitstatus = GPIO_PIN_SET;
 80053f4:	2301      	movs	r3, #1
 80053f6:	73fb      	strb	r3, [r7, #15]
 80053f8:	e001      	b.n	80053fe <HAL_GPIO_ReadPin+0x22>
  }
  else
  {
    bitstatus = GPIO_PIN_RESET;
 80053fa:	2300      	movs	r3, #0
 80053fc:	73fb      	strb	r3, [r7, #15]
  }
  return bitstatus;
 80053fe:	7bfb      	ldrb	r3, [r7, #15]
}
 8005400:	4618      	mov	r0, r3
 8005402:	3714      	adds	r7, #20
 8005404:	46bd      	mov	sp, r7
 8005406:	f85d 7b04 	ldr.w	r7, [sp], #4
 800540a:	4770      	bx	lr

0800540c <HAL_GPIO_WritePin>:
  *            @arg GPIO_PIN_RESET: to clear the port pin
  *            @arg GPIO_PIN_SET: to set the port pin
  * @retval None
  */
void HAL_GPIO_WritePin(GPIO_TypeDef *GPIOx, uint16_t GPIO_Pin, GPIO_PinState PinState)
{
 800540c:	b480      	push	{r7}
 800540e:	b083      	sub	sp, #12
 8005410:	af00      	add	r7, sp, #0
 8005412:	6078      	str	r0, [r7, #4]
 8005414:	460b      	mov	r3, r1
 8005416:	807b      	strh	r3, [r7, #2]
 8005418:	4613      	mov	r3, r2
 800541a:	707b      	strb	r3, [r7, #1]
  /* Check the parameters */
  assert_param(IS_GPIO_PIN(GPIO_Pin));
  assert_param(IS_GPIO_PIN_ACTION(PinState));

  if (PinState != GPIO_PIN_RESET)
 800541c:	787b      	ldrb	r3, [r7, #1]
 800541e:	2b00      	cmp	r3, #0
 8005420:	d003      	beq.n	800542a <HAL_GPIO_WritePin+0x1e>
  {
    GPIOx->BSRR = (uint32_t)GPIO_Pin;
 8005422:	887a      	ldrh	r2, [r7, #2]
 8005424:	687b      	ldr	r3, [r7, #4]
 8005426:	619a      	str	r2, [r3, #24]
  }
  else
  {
    GPIOx->BRR = (uint32_t)GPIO_Pin;
  }
}
 8005428:	e002      	b.n	8005430 <HAL_GPIO_WritePin+0x24>
    GPIOx->BRR = (uint32_t)GPIO_Pin;
 800542a:	887a      	ldrh	r2, [r7, #2]
 800542c:	687b      	ldr	r3, [r7, #4]
 800542e:	629a      	str	r2, [r3, #40]	@ 0x28
}
 8005430:	bf00      	nop
 8005432:	370c      	adds	r7, #12
 8005434:	46bd      	mov	sp, r7
 8005436:	f85d 7b04 	ldr.w	r7, [sp], #4
 800543a:	4770      	bx	lr

0800543c <HAL_GPIO_TogglePin>:
  * @param  GPIO_Pin specifies the pin to be toggled.
  *         This parameter can be any combination of GPIO_PIN_x where x can be (0..15).
  * @retval None
  */
void HAL_GPIO_TogglePin(GPIO_TypeDef *GPIOx, uint16_t GPIO_Pin)
{
 800543c:	b480      	push	{r7}
 800543e:	b085      	sub	sp, #20
 8005440:	af00      	add	r7, sp, #0
 8005442:	6078      	str	r0, [r7, #4]
 8005444:	460b      	mov	r3, r1
 8005446:	807b      	strh	r3, [r7, #2]

  /* Check the parameters */
  assert_param(IS_GPIO_PIN(GPIO_Pin));

  /* get current Output Data Register value */
  odr = GPIOx->ODR;
 8005448:	687b      	ldr	r3, [r7, #4]
 800544a:	695b      	ldr	r3, [r3, #20]
 800544c:	60fb      	str	r3, [r7, #12]

  /* Set selected pins that were at low level, and reset ones that were high */
  GPIOx->BSRR = ((odr & GPIO_Pin) << GPIO_NUMBER) | (~odr & GPIO_Pin);
 800544e:	887a      	ldrh	r2, [r7, #2]
 8005450:	68fb      	ldr	r3, [r7, #12]
 8005452:	4013      	ands	r3, r2
 8005454:	041a      	lsls	r2, r3, #16
 8005456:	68fb      	ldr	r3, [r7, #12]
 8005458:	43d9      	mvns	r1, r3
 800545a:	887b      	ldrh	r3, [r7, #2]
 800545c:	400b      	ands	r3, r1
 800545e:	431a      	orrs	r2, r3
 8005460:	687b      	ldr	r3, [r7, #4]
 8005462:	619a      	str	r2, [r3, #24]
}
 8005464:	bf00      	nop
 8005466:	3714      	adds	r7, #20
 8005468:	46bd      	mov	sp, r7
 800546a:	f85d 7b04 	ldr.w	r7, [sp], #4
 800546e:	4770      	bx	lr

08005470 <HAL_GPIO_EXTI_IRQHandler>:
  * @brief  Handle EXTI interrupt request.
  * @param  GPIO_Pin Specifies the port pin connected to corresponding EXTI line.
  * @retval None
  */
void HAL_GPIO_EXTI_IRQHandler(uint16_t GPIO_Pin)
{
 8005470:	b580      	push	{r7, lr}
 8005472:	b082      	sub	sp, #8
 8005474:	af00      	add	r7, sp, #0
 8005476:	4603      	mov	r3, r0
 8005478:	80fb      	strh	r3, [r7, #6]
  /* EXTI line interrupt detected */
  if (__HAL_GPIO_EXTI_GET_IT(GPIO_Pin) != 0x00u)
 800547a:	4b08      	ldr	r3, [pc, #32]	@ (800549c <HAL_GPIO_EXTI_IRQHandler+0x2c>)
 800547c:	695a      	ldr	r2, [r3, #20]
 800547e:	88fb      	ldrh	r3, [r7, #6]
 8005480:	4013      	ands	r3, r2
 8005482:	2b00      	cmp	r3, #0
 8005484:	d006      	beq.n	8005494 <HAL_GPIO_EXTI_IRQHandler+0x24>
  {
    __HAL_GPIO_EXTI_CLEAR_IT(GPIO_Pin);
 8005486:	4a05      	ldr	r2, [pc, #20]	@ (800549c <HAL_GPIO_EXTI_IRQHandler+0x2c>)
 8005488:	88fb      	ldrh	r3, [r7, #6]
 800548a:	6153      	str	r3, [r2, #20]
    HAL_GPIO_EXTI_Callback(GPIO_Pin);
 800548c:	88fb      	ldrh	r3, [r7, #6]
 800548e:	4618      	mov	r0, r3
 8005490:	f7fc fee4 	bl	800225c <HAL_GPIO_EXTI_Callback>
  }
}
 8005494:	bf00      	nop
 8005496:	3708      	adds	r7, #8
 8005498:	46bd      	mov	sp, r7
 800549a:	bd80      	pop	{r7, pc}
 800549c:	40010400 	.word	0x40010400

080054a0 <HAL_I2C_Init>:
  * @param  hi2c Pointer to a I2C_HandleTypeDef structure that contains
  *                the configuration information for the specified I2C.
  * @retval HAL status
  */
HAL_StatusTypeDef HAL_I2C_Init(I2C_HandleTypeDef *hi2c)
{
 80054a0:	b580      	push	{r7, lr}
 80054a2:	b082      	sub	sp, #8
 80054a4:	af00      	add	r7, sp, #0
 80054a6:	6078      	str	r0, [r7, #4]
  /* Check the I2C handle allocation */
  if (hi2c == NULL)
 80054a8:	687b      	ldr	r3, [r7, #4]
 80054aa:	2b00      	cmp	r3, #0
 80054ac:	d101      	bne.n	80054b2 <HAL_I2C_Init+0x12>
  {
    return HAL_ERROR;
 80054ae:	2301      	movs	r3, #1
 80054b0:	e08d      	b.n	80055ce <HAL_I2C_Init+0x12e>
  assert_param(IS_I2C_OWN_ADDRESS2(hi2c->Init.OwnAddress2));
  assert_param(IS_I2C_OWN_ADDRESS2_MASK(hi2c->Init.OwnAddress2Masks));
  assert_param(IS_I2C_GENERAL_CALL(hi2c->Init.GeneralCallMode));
  assert_param(IS_I2C_NO_STRETCH(hi2c->Init.NoStretchMode));

  if (hi2c->State == HAL_I2C_STATE_RESET)
 80054b2:	687b      	ldr	r3, [r7, #4]
 80054b4:	f893 3041 	ldrb.w	r3, [r3, #65]	@ 0x41
 80054b8:	b2db      	uxtb	r3, r3
 80054ba:	2b00      	cmp	r3, #0
 80054bc:	d106      	bne.n	80054cc <HAL_I2C_Init+0x2c>
  {
    /* Allocate lock resource and initialize it */
    hi2c->Lock = HAL_UNLOCKED;
 80054be:	687b      	ldr	r3, [r7, #4]
 80054c0:	2200      	movs	r2, #0
 80054c2:	f883 2040 	strb.w	r2, [r3, #64]	@ 0x40

    /* Init the low level hardware : GPIO, CLOCK, CORTEX...etc */
    hi2c->MspInitCallback(hi2c);
#else
    /* Init the low level hardware : GPIO, CLOCK, CORTEX...etc */
    HAL_I2C_MspInit(hi2c);
 80054c6:	6878      	ldr	r0, [r7, #4]
 80054c8:	f7fd f99a 	bl	8002800 <HAL_I2C_MspInit>
#endif /* USE_HAL_I2C_REGISTER_CALLBACKS */
  }

  hi2c->State = HAL_I2C_STATE_BUSY;
 80054cc:	687b      	ldr	r3, [r7, #4]
 80054ce:	2224      	movs	r2, #36	@ 0x24
 80054d0:	f883 2041 	strb.w	r2, [r3, #65]	@ 0x41

  /* Disable the selected I2C peripheral */
  __HAL_I2C_DISABLE(hi2c);
 80054d4:	687b      	ldr	r3, [r7, #4]
 80054d6:	681b      	ldr	r3, [r3, #0]
 80054d8:	681a      	ldr	r2, [r3, #0]
 80054da:	687b      	ldr	r3, [r7, #4]
 80054dc:	681b      	ldr	r3, [r3, #0]
 80054de:	f022 0201 	bic.w	r2, r2, #1
 80054e2:	601a      	str	r2, [r3, #0]

  /*---------------------------- I2Cx TIMINGR Configuration ------------------*/
  /* Configure I2Cx: Frequency range */
  hi2c->Instance->TIMINGR = hi2c->Init.Timing & TIMING_CLEAR_MASK;
 80054e4:	687b      	ldr	r3, [r7, #4]
 80054e6:	685a      	ldr	r2, [r3, #4]
 80054e8:	687b      	ldr	r3, [r7, #4]
 80054ea:	681b      	ldr	r3, [r3, #0]
 80054ec:	f022 6270 	bic.w	r2, r2, #251658240	@ 0xf000000
 80054f0:	611a      	str	r2, [r3, #16]

  /*---------------------------- I2Cx OAR1 Configuration ---------------------*/
  /* Disable Own Address1 before set the Own Address1 configuration */
  hi2c->Instance->OAR1 &= ~I2C_OAR1_OA1EN;
 80054f2:	687b      	ldr	r3, [r7, #4]
 80054f4:	681b      	ldr	r3, [r3, #0]
 80054f6:	689a      	ldr	r2, [r3, #8]
 80054f8:	687b      	ldr	r3, [r7, #4]
 80054fa:	681b      	ldr	r3, [r3, #0]
 80054fc:	f422 4200 	bic.w	r2, r2, #32768	@ 0x8000
 8005500:	609a      	str	r2, [r3, #8]

  /* Configure I2Cx: Own Address1 and ack own address1 mode */
  if (hi2c->Init.AddressingMode == I2C_ADDRESSINGMODE_7BIT)
 8005502:	687b      	ldr	r3, [r7, #4]
 8005504:	68db      	ldr	r3, [r3, #12]
 8005506:	2b01      	cmp	r3, #1
 8005508:	d107      	bne.n	800551a <HAL_I2C_Init+0x7a>
  {
    hi2c->Instance->OAR1 = (I2C_OAR1_OA1EN | hi2c->Init.OwnAddress1);
 800550a:	687b      	ldr	r3, [r7, #4]
 800550c:	689a      	ldr	r2, [r3, #8]
 800550e:	687b      	ldr	r3, [r7, #4]
 8005510:	681b      	ldr	r3, [r3, #0]
 8005512:	f442 4200 	orr.w	r2, r2, #32768	@ 0x8000
 8005516:	609a      	str	r2, [r3, #8]
 8005518:	e006      	b.n	8005528 <HAL_I2C_Init+0x88>
  }
  else /* I2C_ADDRESSINGMODE_10BIT */
  {
    hi2c->Instance->OAR1 = (I2C_OAR1_OA1EN | I2C_OAR1_OA1MODE | hi2c->Init.OwnAddress1);
 800551a:	687b      	ldr	r3, [r7, #4]
 800551c:	689a      	ldr	r2, [r3, #8]
 800551e:	687b      	ldr	r3, [r7, #4]
 8005520:	681b      	ldr	r3, [r3, #0]
 8005522:	f442 4204 	orr.w	r2, r2, #33792	@ 0x8400
 8005526:	609a      	str	r2, [r3, #8]
  }

  /*---------------------------- I2Cx CR2 Configuration ----------------------*/
  /* Configure I2Cx: Addressing Master mode */
  if (hi2c->Init.AddressingMode == I2C_ADDRESSINGMODE_10BIT)
 8005528:	687b      	ldr	r3, [r7, #4]
 800552a:	68db      	ldr	r3, [r3, #12]
 800552c:	2b02      	cmp	r3, #2
 800552e:	d108      	bne.n	8005542 <HAL_I2C_Init+0xa2>
  {
    SET_BIT(hi2c->Instance->CR2, I2C_CR2_ADD10);
 8005530:	687b      	ldr	r3, [r7, #4]
 8005532:	681b      	ldr	r3, [r3, #0]
 8005534:	685a      	ldr	r2, [r3, #4]
 8005536:	687b      	ldr	r3, [r7, #4]
 8005538:	681b      	ldr	r3, [r3, #0]
 800553a:	f442 6200 	orr.w	r2, r2, #2048	@ 0x800
 800553e:	605a      	str	r2, [r3, #4]
 8005540:	e007      	b.n	8005552 <HAL_I2C_Init+0xb2>
  }
  else
  {
    /* Clear the I2C ADD10 bit */
    CLEAR_BIT(hi2c->Instance->CR2, I2C_CR2_ADD10);
 8005542:	687b      	ldr	r3, [r7, #4]
 8005544:	681b      	ldr	r3, [r3, #0]
 8005546:	685a      	ldr	r2, [r3, #4]
 8005548:	687b      	ldr	r3, [r7, #4]
 800554a:	681b      	ldr	r3, [r3, #0]
 800554c:	f422 6200 	bic.w	r2, r2, #2048	@ 0x800
 8005550:	605a      	str	r2, [r3, #4]
  }
  /* Enable the AUTOEND by default, and enable NACK (should be disable only during Slave process */
  hi2c->Instance->CR2 |= (I2C_CR2_AUTOEND | I2C_CR2_NACK);
 8005552:	687b      	ldr	r3, [r7, #4]
 8005554:	681b      	ldr	r3, [r3, #0]
 8005556:	685b      	ldr	r3, [r3, #4]
 8005558:	687a      	ldr	r2, [r7, #4]
 800555a:	6812      	ldr	r2, [r2, #0]
 800555c:	f043 7300 	orr.w	r3, r3, #33554432	@ 0x2000000
 8005560:	f443 4300 	orr.w	r3, r3, #32768	@ 0x8000
 8005564:	6053      	str	r3, [r2, #4]

  /*---------------------------- I2Cx OAR2 Configuration ---------------------*/
  /* Disable Own Address2 before set the Own Address2 configuration */
  hi2c->Instance->OAR2 &= ~I2C_DUALADDRESS_ENABLE;
 8005566:	687b      	ldr	r3, [r7, #4]
 8005568:	681b      	ldr	r3, [r3, #0]
 800556a:	68da      	ldr	r2, [r3, #12]
 800556c:	687b      	ldr	r3, [r7, #4]
 800556e:	681b      	ldr	r3, [r3, #0]
 8005570:	f422 4200 	bic.w	r2, r2, #32768	@ 0x8000
 8005574:	60da      	str	r2, [r3, #12]

  /* Configure I2Cx: Dual mode and Own Address2 */
  hi2c->Instance->OAR2 = (hi2c->Init.DualAddressMode | hi2c->Init.OwnAddress2 | \
 8005576:	687b      	ldr	r3, [r7, #4]
 8005578:	691a      	ldr	r2, [r3, #16]
 800557a:	687b      	ldr	r3, [r7, #4]
 800557c:	695b      	ldr	r3, [r3, #20]
 800557e:	ea42 0103 	orr.w	r1, r2, r3
                          (hi2c->Init.OwnAddress2Masks << 8));
 8005582:	687b      	ldr	r3, [r7, #4]
 8005584:	699b      	ldr	r3, [r3, #24]
 8005586:	021a      	lsls	r2, r3, #8
  hi2c->Instance->OAR2 = (hi2c->Init.DualAddressMode | hi2c->Init.OwnAddress2 | \
 8005588:	687b      	ldr	r3, [r7, #4]
 800558a:	681b      	ldr	r3, [r3, #0]
 800558c:	430a      	orrs	r2, r1
 800558e:	60da      	str	r2, [r3, #12]

  /*---------------------------- I2Cx CR1 Configuration ----------------------*/
  /* Configure I2Cx: Generalcall and NoStretch mode */
  hi2c->Instance->CR1 = (hi2c->Init.GeneralCallMode | hi2c->Init.NoStretchMode);
 8005590:	687b      	ldr	r3, [r7, #4]
 8005592:	69d9      	ldr	r1, [r3, #28]
 8005594:	687b      	ldr	r3, [r7, #4]
 8005596:	6a1a      	ldr	r2, [r3, #32]
 8005598:	687b      	ldr	r3, [r7, #4]
 800559a:	681b      	ldr	r3, [r3, #0]
 800559c:	430a      	orrs	r2, r1
 800559e:	601a      	str	r2, [r3, #0]

  /* Enable the selected I2C peripheral */
  __HAL_I2C_ENABLE(hi2c);
 80055a0:	687b      	ldr	r3, [r7, #4]
 80055a2:	681b      	ldr	r3, [r3, #0]
 80055a4:	681a      	ldr	r2, [r3, #0]
 80055a6:	687b      	ldr	r3, [r7, #4]
 80055a8:	681b      	ldr	r3, [r3, #0]
 80055aa:	f042 0201 	orr.w	r2, r2, #1
 80055ae:	601a      	str	r2, [r3, #0]

  hi2c->ErrorCode = HAL_I2C_ERROR_NONE;
 80055b0:	687b      	ldr	r3, [r7, #4]
 80055b2:	2200      	movs	r2, #0
 80055b4:	645a      	str	r2, [r3, #68]	@ 0x44
  hi2c->State = HAL_I2C_STATE_READY;
 80055b6:	687b      	ldr	r3, [r7, #4]
 80055b8:	2220      	movs	r2, #32
 80055ba:	f883 2041 	strb.w	r2, [r3, #65]	@ 0x41
  hi2c->PreviousState = I2C_STATE_NONE;
 80055be:	687b      	ldr	r3, [r7, #4]
 80055c0:	2200      	movs	r2, #0
 80055c2:	631a      	str	r2, [r3, #48]	@ 0x30
  hi2c->Mode = HAL_I2C_MODE_NONE;
 80055c4:	687b      	ldr	r3, [r7, #4]
 80055c6:	2200      	movs	r2, #0
 80055c8:	f883 2042 	strb.w	r2, [r3, #66]	@ 0x42

  return HAL_OK;
 80055cc:	2300      	movs	r3, #0
}
 80055ce:	4618      	mov	r0, r3
 80055d0:	3708      	adds	r7, #8
 80055d2:	46bd      	mov	sp, r7
 80055d4:	bd80      	pop	{r7, pc}

080055d6 <HAL_I2CEx_ConfigAnalogFilter>:
  *                the configuration information for the specified I2Cx peripheral.
  * @param  AnalogFilter New state of the Analog filter.
  * @retval HAL status
  */
HAL_StatusTypeDef HAL_I2CEx_ConfigAnalogFilter(I2C_HandleTypeDef *hi2c, uint32_t AnalogFilter)
{
 80055d6:	b480      	push	{r7}
 80055d8:	b083      	sub	sp, #12
 80055da:	af00      	add	r7, sp, #0
 80055dc:	6078      	str	r0, [r7, #4]
 80055de:	6039      	str	r1, [r7, #0]
  /* Check the parameters */
  assert_param(IS_I2C_ALL_INSTANCE(hi2c->Instance));
  assert_param(IS_I2C_ANALOG_FILTER(AnalogFilter));

  if (hi2c->State == HAL_I2C_STATE_READY)
 80055e0:	687b      	ldr	r3, [r7, #4]
 80055e2:	f893 3041 	ldrb.w	r3, [r3, #65]	@ 0x41
 80055e6:	b2db      	uxtb	r3, r3
 80055e8:	2b20      	cmp	r3, #32
 80055ea:	d138      	bne.n	800565e <HAL_I2CEx_ConfigAnalogFilter+0x88>
  {
    /* Process Locked */
    __HAL_LOCK(hi2c);
 80055ec:	687b      	ldr	r3, [r7, #4]
 80055ee:	f893 3040 	ldrb.w	r3, [r3, #64]	@ 0x40
 80055f2:	2b01      	cmp	r3, #1
 80055f4:	d101      	bne.n	80055fa <HAL_I2CEx_ConfigAnalogFilter+0x24>
 80055f6:	2302      	movs	r3, #2
 80055f8:	e032      	b.n	8005660 <HAL_I2CEx_ConfigAnalogFilter+0x8a>
 80055fa:	687b      	ldr	r3, [r7, #4]
 80055fc:	2201      	movs	r2, #1
 80055fe:	f883 2040 	strb.w	r2, [r3, #64]	@ 0x40

    hi2c->State = HAL_I2C_STATE_BUSY;
 8005602:	687b      	ldr	r3, [r7, #4]
 8005604:	2224      	movs	r2, #36	@ 0x24
 8005606:	f883 2041 	strb.w	r2, [r3, #65]	@ 0x41

    /* Disable the selected I2C peripheral */
    __HAL_I2C_DISABLE(hi2c);
 800560a:	687b      	ldr	r3, [r7, #4]
 800560c:	681b      	ldr	r3, [r3, #0]
 800560e:	681a      	ldr	r2, [r3, #0]
 8005610:	687b      	ldr	r3, [r7, #4]
 8005612:	681b      	ldr	r3, [r3, #0]
 8005614:	f022 0201 	bic.w	r2, r2, #1
 8005618:	601a      	str	r2, [r3, #0]

    /* Reset I2Cx ANOFF bit */
    hi2c->Instance->CR1 &= ~(I2C_CR1_ANFOFF);
 800561a:	687b      	ldr	r3, [r7, #4]
 800561c:	681b      	ldr	r3, [r3, #0]
 800561e:	681a      	ldr	r2, [r3, #0]
 8005620:	687b      	ldr	r3, [r7, #4]
 8005622:	681b      	ldr	r3, [r3, #0]
 8005624:	f422 5280 	bic.w	r2, r2, #4096	@ 0x1000
 8005628:	601a      	str	r2, [r3, #0]

    /* Set analog filter bit*/
    hi2c->Instance->CR1 |= AnalogFilter;
 800562a:	687b      	ldr	r3, [r7, #4]
 800562c:	681b      	ldr	r3, [r3, #0]
 800562e:	6819      	ldr	r1, [r3, #0]
 8005630:	687b      	ldr	r3, [r7, #4]
 8005632:	681b      	ldr	r3, [r3, #0]
 8005634:	683a      	ldr	r2, [r7, #0]
 8005636:	430a      	orrs	r2, r1
 8005638:	601a      	str	r2, [r3, #0]

    __HAL_I2C_ENABLE(hi2c);
 800563a:	687b      	ldr	r3, [r7, #4]
 800563c:	681b      	ldr	r3, [r3, #0]
 800563e:	681a      	ldr	r2, [r3, #0]
 8005640:	687b      	ldr	r3, [r7, #4]
 8005642:	681b      	ldr	r3, [r3, #0]
 8005644:	f042 0201 	orr.w	r2, r2, #1
 8005648:	601a      	str	r2, [r3, #0]

    hi2c->State = HAL_I2C_STATE_READY;
 800564a:	687b      	ldr	r3, [r7, #4]
 800564c:	2220      	movs	r2, #32
 800564e:	f883 2041 	strb.w	r2, [r3, #65]	@ 0x41

    /* Process Unlocked */
    __HAL_UNLOCK(hi2c);
 8005652:	687b      	ldr	r3, [r7, #4]
 8005654:	2200      	movs	r2, #0
 8005656:	f883 2040 	strb.w	r2, [r3, #64]	@ 0x40

    return HAL_OK;
 800565a:	2300      	movs	r3, #0
 800565c:	e000      	b.n	8005660 <HAL_I2CEx_ConfigAnalogFilter+0x8a>
  }
  else
  {
    return HAL_BUSY;
 800565e:	2302      	movs	r3, #2
  }
}
 8005660:	4618      	mov	r0, r3
 8005662:	370c      	adds	r7, #12
 8005664:	46bd      	mov	sp, r7
 8005666:	f85d 7b04 	ldr.w	r7, [sp], #4
 800566a:	4770      	bx	lr

0800566c <HAL_I2CEx_ConfigDigitalFilter>:
  *                the configuration information for the specified I2Cx peripheral.
  * @param  DigitalFilter Coefficient of digital noise filter between Min_Data=0x00 and Max_Data=0x0F.
  * @retval HAL status
  */
HAL_StatusTypeDef HAL_I2CEx_ConfigDigitalFilter(I2C_HandleTypeDef *hi2c, uint32_t DigitalFilter)
{
 800566c:	b480      	push	{r7}
 800566e:	b085      	sub	sp, #20
 8005670:	af00      	add	r7, sp, #0
 8005672:	6078      	str	r0, [r7, #4]
 8005674:	6039      	str	r1, [r7, #0]

  /* Check the parameters */
  assert_param(IS_I2C_ALL_INSTANCE(hi2c->Instance));
  assert_param(IS_I2C_DIGITAL_FILTER(DigitalFilter));

  if (hi2c->State == HAL_I2C_STATE_READY)
 8005676:	687b      	ldr	r3, [r7, #4]
 8005678:	f893 3041 	ldrb.w	r3, [r3, #65]	@ 0x41
 800567c:	b2db      	uxtb	r3, r3
 800567e:	2b20      	cmp	r3, #32
 8005680:	d139      	bne.n	80056f6 <HAL_I2CEx_ConfigDigitalFilter+0x8a>
  {
    /* Process Locked */
    __HAL_LOCK(hi2c);
 8005682:	687b      	ldr	r3, [r7, #4]
 8005684:	f893 3040 	ldrb.w	r3, [r3, #64]	@ 0x40
 8005688:	2b01      	cmp	r3, #1
 800568a:	d101      	bne.n	8005690 <HAL_I2CEx_ConfigDigitalFilter+0x24>
 800568c:	2302      	movs	r3, #2
 800568e:	e033      	b.n	80056f8 <HAL_I2CEx_ConfigDigitalFilter+0x8c>
 8005690:	687b      	ldr	r3, [r7, #4]
 8005692:	2201      	movs	r2, #1
 8005694:	f883 2040 	strb.w	r2, [r3, #64]	@ 0x40

    hi2c->State = HAL_I2C_STATE_BUSY;
 8005698:	687b      	ldr	r3, [r7, #4]
 800569a:	2224      	movs	r2, #36	@ 0x24
 800569c:	f883 2041 	strb.w	r2, [r3, #65]	@ 0x41

    /* Disable the selected I2C peripheral */
    __HAL_I2C_DISABLE(hi2c);
 80056a0:	687b      	ldr	r3, [r7, #4]
 80056a2:	681b      	ldr	r3, [r3, #0]
 80056a4:	681a      	ldr	r2, [r3, #0]
 80056a6:	687b      	ldr	r3, [r7, #4]
 80056a8:	681b      	ldr	r3, [r3, #0]
 80056aa:	f022 0201 	bic.w	r2, r2, #1
 80056ae:	601a      	str	r2, [r3, #0]

    /* Get the old register value */
    tmpreg = hi2c->Instance->CR1;
 80056b0:	687b      	ldr	r3, [r7, #4]
 80056b2:	681b      	ldr	r3, [r3, #0]
 80056b4:	681b      	ldr	r3, [r3, #0]
 80056b6:	60fb      	str	r3, [r7, #12]

    /* Reset I2Cx DNF bits [11:8] */
    tmpreg &= ~(I2C_CR1_DNF);
 80056b8:	68fb      	ldr	r3, [r7, #12]
 80056ba:	f423 6370 	bic.w	r3, r3, #3840	@ 0xf00
 80056be:	60fb      	str	r3, [r7, #12]

    /* Set I2Cx DNF coefficient */
    tmpreg |= DigitalFilter << 8U;
 80056c0:	683b      	ldr	r3, [r7, #0]
 80056c2:	021b      	lsls	r3, r3, #8
 80056c4:	68fa      	ldr	r2, [r7, #12]
 80056c6:	4313      	orrs	r3, r2
 80056c8:	60fb      	str	r3, [r7, #12]

    /* Store the new register value */
    hi2c->Instance->CR1 = tmpreg;
 80056ca:	687b      	ldr	r3, [r7, #4]
 80056cc:	681b      	ldr	r3, [r3, #0]
 80056ce:	68fa      	ldr	r2, [r7, #12]
 80056d0:	601a      	str	r2, [r3, #0]

    __HAL_I2C_ENABLE(hi2c);
 80056d2:	687b      	ldr	r3, [r7, #4]
 80056d4:	681b      	ldr	r3, [r3, #0]
 80056d6:	681a      	ldr	r2, [r3, #0]
 80056d8:	687b      	ldr	r3, [r7, #4]
 80056da:	681b      	ldr	r3, [r3, #0]
 80056dc:	f042 0201 	orr.w	r2, r2, #1
 80056e0:	601a      	str	r2, [r3, #0]

    hi2c->State = HAL_I2C_STATE_READY;
 80056e2:	687b      	ldr	r3, [r7, #4]
 80056e4:	2220      	movs	r2, #32
 80056e6:	f883 2041 	strb.w	r2, [r3, #65]	@ 0x41

    /* Process Unlocked */
    __HAL_UNLOCK(hi2c);
 80056ea:	687b      	ldr	r3, [r7, #4]
 80056ec:	2200      	movs	r2, #0
 80056ee:	f883 2040 	strb.w	r2, [r3, #64]	@ 0x40

    return HAL_OK;
 80056f2:	2300      	movs	r3, #0
 80056f4:	e000      	b.n	80056f8 <HAL_I2CEx_ConfigDigitalFilter+0x8c>
  }
  else
  {
    return HAL_BUSY;
 80056f6:	2302      	movs	r3, #2
  }
}
 80056f8:	4618      	mov	r0, r3
 80056fa:	3714      	adds	r7, #20
 80056fc:	46bd      	mov	sp, r7
 80056fe:	f85d 7b04 	ldr.w	r7, [sp], #4
 8005702:	4770      	bx	lr

08005704 <HAL_PCD_Init>:
  *         parameters in the PCD_InitTypeDef and initialize the associated handle.
  * @param  hpcd PCD handle
  * @retval HAL status
  */
HAL_StatusTypeDef HAL_PCD_Init(PCD_HandleTypeDef *hpcd)
{
 8005704:	b580      	push	{r7, lr}
 8005706:	b084      	sub	sp, #16
 8005708:	af00      	add	r7, sp, #0
 800570a:	6078      	str	r0, [r7, #4]
  uint8_t i;

  /* Check the PCD handle allocation */
  if (hpcd == NULL)
 800570c:	687b      	ldr	r3, [r7, #4]
 800570e:	2b00      	cmp	r3, #0
 8005710:	d101      	bne.n	8005716 <HAL_PCD_Init+0x12>
  {
    return HAL_ERROR;
 8005712:	2301      	movs	r3, #1
 8005714:	e0c0      	b.n	8005898 <HAL_PCD_Init+0x194>
  }

  /* Check the parameters */
  assert_param(IS_PCD_ALL_INSTANCE(hpcd->Instance));

  if (hpcd->State == HAL_PCD_STATE_RESET)
 8005716:	687b      	ldr	r3, [r7, #4]
 8005718:	f893 3291 	ldrb.w	r3, [r3, #657]	@ 0x291
 800571c:	b2db      	uxtb	r3, r3
 800571e:	2b00      	cmp	r3, #0
 8005720:	d106      	bne.n	8005730 <HAL_PCD_Init+0x2c>
  {
    /* Allocate lock resource and initialize it */
    hpcd->Lock = HAL_UNLOCKED;
 8005722:	687b      	ldr	r3, [r7, #4]
 8005724:	2200      	movs	r2, #0
 8005726:	f883 2290 	strb.w	r2, [r3, #656]	@ 0x290

    /* Init the low level hardware */
    hpcd->MspInitCallback(hpcd);
#else
    /* Init the low level hardware : GPIO, CLOCK, NVIC... */
    HAL_PCD_MspInit(hpcd);
 800572a:	6878      	ldr	r0, [r7, #4]
 800572c:	f7fd fa6e 	bl	8002c0c <HAL_PCD_MspInit>
#endif /* (USE_HAL_PCD_REGISTER_CALLBACKS) */
  }

  hpcd->State = HAL_PCD_STATE_BUSY;
 8005730:	687b      	ldr	r3, [r7, #4]
 8005732:	2203      	movs	r2, #3
 8005734:	f883 2291 	strb.w	r2, [r3, #657]	@ 0x291

  /* Disable the Interrupts */
  __HAL_PCD_DISABLE(hpcd);
 8005738:	687b      	ldr	r3, [r7, #4]
 800573a:	681b      	ldr	r3, [r3, #0]
 800573c:	4618      	mov	r0, r3
 800573e:	f002 fc04 	bl	8007f4a <USB_DisableGlobalInt>

  /* Init endpoints structures */
  for (i = 0U; i < hpcd->Init.dev_endpoints; i++)
 8005742:	2300      	movs	r3, #0
 8005744:	73fb      	strb	r3, [r7, #15]
 8005746:	e03e      	b.n	80057c6 <HAL_PCD_Init+0xc2>
  {
    /* Init ep structure */
    hpcd->IN_ep[i].is_in = 1U;
 8005748:	7bfa      	ldrb	r2, [r7, #15]
 800574a:	6879      	ldr	r1, [r7, #4]
 800574c:	4613      	mov	r3, r2
 800574e:	009b      	lsls	r3, r3, #2
 8005750:	4413      	add	r3, r2
 8005752:	00db      	lsls	r3, r3, #3
 8005754:	440b      	add	r3, r1
 8005756:	3311      	adds	r3, #17
 8005758:	2201      	movs	r2, #1
 800575a:	701a      	strb	r2, [r3, #0]
    hpcd->IN_ep[i].num = i;
 800575c:	7bfa      	ldrb	r2, [r7, #15]
 800575e:	6879      	ldr	r1, [r7, #4]
 8005760:	4613      	mov	r3, r2
 8005762:	009b      	lsls	r3, r3, #2
 8005764:	4413      	add	r3, r2
 8005766:	00db      	lsls	r3, r3, #3
 8005768:	440b      	add	r3, r1
 800576a:	3310      	adds	r3, #16
 800576c:	7bfa      	ldrb	r2, [r7, #15]
 800576e:	701a      	strb	r2, [r3, #0]
    /* Control until ep is activated */
    hpcd->IN_ep[i].type = EP_TYPE_CTRL;
 8005770:	7bfa      	ldrb	r2, [r7, #15]
 8005772:	6879      	ldr	r1, [r7, #4]
 8005774:	4613      	mov	r3, r2
 8005776:	009b      	lsls	r3, r3, #2
 8005778:	4413      	add	r3, r2
 800577a:	00db      	lsls	r3, r3, #3
 800577c:	440b      	add	r3, r1
 800577e:	3313      	adds	r3, #19
 8005780:	2200      	movs	r2, #0
 8005782:	701a      	strb	r2, [r3, #0]
    hpcd->IN_ep[i].maxpacket = 0U;
 8005784:	7bfa      	ldrb	r2, [r7, #15]
 8005786:	6879      	ldr	r1, [r7, #4]
 8005788:	4613      	mov	r3, r2
 800578a:	009b      	lsls	r3, r3, #2
 800578c:	4413      	add	r3, r2
 800578e:	00db      	lsls	r3, r3, #3
 8005790:	440b      	add	r3, r1
 8005792:	3320      	adds	r3, #32
 8005794:	2200      	movs	r2, #0
 8005796:	601a      	str	r2, [r3, #0]
    hpcd->IN_ep[i].xfer_buff = 0U;
 8005798:	7bfa      	ldrb	r2, [r7, #15]
 800579a:	6879      	ldr	r1, [r7, #4]
 800579c:	4613      	mov	r3, r2
 800579e:	009b      	lsls	r3, r3, #2
 80057a0:	4413      	add	r3, r2
 80057a2:	00db      	lsls	r3, r3, #3
 80057a4:	440b      	add	r3, r1
 80057a6:	3324      	adds	r3, #36	@ 0x24
 80057a8:	2200      	movs	r2, #0
 80057aa:	601a      	str	r2, [r3, #0]
    hpcd->IN_ep[i].xfer_len = 0U;
 80057ac:	7bfb      	ldrb	r3, [r7, #15]
 80057ae:	6879      	ldr	r1, [r7, #4]
 80057b0:	1c5a      	adds	r2, r3, #1
 80057b2:	4613      	mov	r3, r2
 80057b4:	009b      	lsls	r3, r3, #2
 80057b6:	4413      	add	r3, r2
 80057b8:	00db      	lsls	r3, r3, #3
 80057ba:	440b      	add	r3, r1
 80057bc:	2200      	movs	r2, #0
 80057be:	601a      	str	r2, [r3, #0]
  for (i = 0U; i < hpcd->Init.dev_endpoints; i++)
 80057c0:	7bfb      	ldrb	r3, [r7, #15]
 80057c2:	3301      	adds	r3, #1
 80057c4:	73fb      	strb	r3, [r7, #15]
 80057c6:	687b      	ldr	r3, [r7, #4]
 80057c8:	791b      	ldrb	r3, [r3, #4]
 80057ca:	7bfa      	ldrb	r2, [r7, #15]
 80057cc:	429a      	cmp	r2, r3
 80057ce:	d3bb      	bcc.n	8005748 <HAL_PCD_Init+0x44>
  }

  for (i = 0U; i < hpcd->Init.dev_endpoints; i++)
 80057d0:	2300      	movs	r3, #0
 80057d2:	73fb      	strb	r3, [r7, #15]
 80057d4:	e044      	b.n	8005860 <HAL_PCD_Init+0x15c>
  {
    hpcd->OUT_ep[i].is_in = 0U;
 80057d6:	7bfa      	ldrb	r2, [r7, #15]
 80057d8:	6879      	ldr	r1, [r7, #4]
 80057da:	4613      	mov	r3, r2
 80057dc:	009b      	lsls	r3, r3, #2
 80057de:	4413      	add	r3, r2
 80057e0:	00db      	lsls	r3, r3, #3
 80057e2:	440b      	add	r3, r1
 80057e4:	f203 1351 	addw	r3, r3, #337	@ 0x151
 80057e8:	2200      	movs	r2, #0
 80057ea:	701a      	strb	r2, [r3, #0]
    hpcd->OUT_ep[i].num = i;
 80057ec:	7bfa      	ldrb	r2, [r7, #15]
 80057ee:	6879      	ldr	r1, [r7, #4]
 80057f0:	4613      	mov	r3, r2
 80057f2:	009b      	lsls	r3, r3, #2
 80057f4:	4413      	add	r3, r2
 80057f6:	00db      	lsls	r3, r3, #3
 80057f8:	440b      	add	r3, r1
 80057fa:	f503 73a8 	add.w	r3, r3, #336	@ 0x150
 80057fe:	7bfa      	ldrb	r2, [r7, #15]
 8005800:	701a      	strb	r2, [r3, #0]
    /* Control until ep is activated */
    hpcd->OUT_ep[i].type = EP_TYPE_CTRL;
 8005802:	7bfa      	ldrb	r2, [r7, #15]
 8005804:	6879      	ldr	r1, [r7, #4]
 8005806:	4613      	mov	r3, r2
 8005808:	009b      	lsls	r3, r3, #2
 800580a:	4413      	add	r3, r2
 800580c:	00db      	lsls	r3, r3, #3
 800580e:	440b      	add	r3, r1
 8005810:	f203 1353 	addw	r3, r3, #339	@ 0x153
 8005814:	2200      	movs	r2, #0
 8005816:	701a      	strb	r2, [r3, #0]
    hpcd->OUT_ep[i].maxpacket = 0U;
 8005818:	7bfa      	ldrb	r2, [r7, #15]
 800581a:	6879      	ldr	r1, [r7, #4]
 800581c:	4613      	mov	r3, r2
 800581e:	009b      	lsls	r3, r3, #2
 8005820:	4413      	add	r3, r2
 8005822:	00db      	lsls	r3, r3, #3
 8005824:	440b      	add	r3, r1
 8005826:	f503 73b0 	add.w	r3, r3, #352	@ 0x160
 800582a:	2200      	movs	r2, #0
 800582c:	601a      	str	r2, [r3, #0]
    hpcd->OUT_ep[i].xfer_buff = 0U;
 800582e:	7bfa      	ldrb	r2, [r7, #15]
 8005830:	6879      	ldr	r1, [r7, #4]
 8005832:	4613      	mov	r3, r2
 8005834:	009b      	lsls	r3, r3, #2
 8005836:	4413      	add	r3, r2
 8005838:	00db      	lsls	r3, r3, #3
 800583a:	440b      	add	r3, r1
 800583c:	f503 73b2 	add.w	r3, r3, #356	@ 0x164
 8005840:	2200      	movs	r2, #0
 8005842:	601a      	str	r2, [r3, #0]
    hpcd->OUT_ep[i].xfer_len = 0U;
 8005844:	7bfa      	ldrb	r2, [r7, #15]
 8005846:	6879      	ldr	r1, [r7, #4]
 8005848:	4613      	mov	r3, r2
 800584a:	009b      	lsls	r3, r3, #2
 800584c:	4413      	add	r3, r2
 800584e:	00db      	lsls	r3, r3, #3
 8005850:	440b      	add	r3, r1
 8005852:	f503 73b4 	add.w	r3, r3, #360	@ 0x168
 8005856:	2200      	movs	r2, #0
 8005858:	601a      	str	r2, [r3, #0]
  for (i = 0U; i < hpcd->Init.dev_endpoints; i++)
 800585a:	7bfb      	ldrb	r3, [r7, #15]
 800585c:	3301      	adds	r3, #1
 800585e:	73fb      	strb	r3, [r7, #15]
 8005860:	687b      	ldr	r3, [r7, #4]
 8005862:	791b      	ldrb	r3, [r3, #4]
 8005864:	7bfa      	ldrb	r2, [r7, #15]
 8005866:	429a      	cmp	r2, r3
 8005868:	d3b5      	bcc.n	80057d6 <HAL_PCD_Init+0xd2>
  }

  /* Init Device */
  (void)USB_DevInit(hpcd->Instance, hpcd->Init);
 800586a:	687b      	ldr	r3, [r7, #4]
 800586c:	6818      	ldr	r0, [r3, #0]
 800586e:	687b      	ldr	r3, [r7, #4]
 8005870:	3304      	adds	r3, #4
 8005872:	e893 0006 	ldmia.w	r3, {r1, r2}
 8005876:	f002 fb83 	bl	8007f80 <USB_DevInit>

  hpcd->USB_Address = 0U;
 800587a:	687b      	ldr	r3, [r7, #4]
 800587c:	2200      	movs	r2, #0
 800587e:	731a      	strb	r2, [r3, #12]
  hpcd->State = HAL_PCD_STATE_READY;
 8005880:	687b      	ldr	r3, [r7, #4]
 8005882:	2201      	movs	r2, #1
 8005884:	f883 2291 	strb.w	r2, [r3, #657]	@ 0x291

  /* Activate LPM */
  if (hpcd->Init.lpm_enable == 1U)
 8005888:	687b      	ldr	r3, [r7, #4]
 800588a:	7a9b      	ldrb	r3, [r3, #10]
 800588c:	2b01      	cmp	r3, #1
 800588e:	d102      	bne.n	8005896 <HAL_PCD_Init+0x192>
  {
    (void)HAL_PCDEx_ActivateLPM(hpcd);
 8005890:	6878      	ldr	r0, [r7, #4]
 8005892:	f000 f805 	bl	80058a0 <HAL_PCDEx_ActivateLPM>
  }

  return HAL_OK;
 8005896:	2300      	movs	r3, #0
}
 8005898:	4618      	mov	r0, r3
 800589a:	3710      	adds	r7, #16
 800589c:	46bd      	mov	sp, r7
 800589e:	bd80      	pop	{r7, pc}

080058a0 <HAL_PCDEx_ActivateLPM>:
  * @brief  Activate LPM feature.
  * @param  hpcd PCD handle
  * @retval HAL status
  */
HAL_StatusTypeDef HAL_PCDEx_ActivateLPM(PCD_HandleTypeDef *hpcd)
{
 80058a0:	b480      	push	{r7}
 80058a2:	b085      	sub	sp, #20
 80058a4:	af00      	add	r7, sp, #0
 80058a6:	6078      	str	r0, [r7, #4]

  USB_TypeDef *USBx = hpcd->Instance;
 80058a8:	687b      	ldr	r3, [r7, #4]
 80058aa:	681b      	ldr	r3, [r3, #0]
 80058ac:	60fb      	str	r3, [r7, #12]
  hpcd->lpm_active = 1U;
 80058ae:	687b      	ldr	r3, [r7, #4]
 80058b0:	2201      	movs	r2, #1
 80058b2:	f8c3 22d0 	str.w	r2, [r3, #720]	@ 0x2d0
  hpcd->LPM_State = LPM_L0;
 80058b6:	687b      	ldr	r3, [r7, #4]
 80058b8:	2200      	movs	r2, #0
 80058ba:	f883 22c8 	strb.w	r2, [r3, #712]	@ 0x2c8

  USBx->LPMCSR |= USB_LPMCSR_LMPEN;
 80058be:	68fb      	ldr	r3, [r7, #12]
 80058c0:	f8b3 3054 	ldrh.w	r3, [r3, #84]	@ 0x54
 80058c4:	b29b      	uxth	r3, r3
 80058c6:	f043 0301 	orr.w	r3, r3, #1
 80058ca:	b29a      	uxth	r2, r3
 80058cc:	68fb      	ldr	r3, [r7, #12]
 80058ce:	f8a3 2054 	strh.w	r2, [r3, #84]	@ 0x54
  USBx->LPMCSR |= USB_LPMCSR_LPMACK;
 80058d2:	68fb      	ldr	r3, [r7, #12]
 80058d4:	f8b3 3054 	ldrh.w	r3, [r3, #84]	@ 0x54
 80058d8:	b29b      	uxth	r3, r3
 80058da:	f043 0302 	orr.w	r3, r3, #2
 80058de:	b29a      	uxth	r2, r3
 80058e0:	68fb      	ldr	r3, [r7, #12]
 80058e2:	f8a3 2054 	strh.w	r2, [r3, #84]	@ 0x54

  return HAL_OK;
 80058e6:	2300      	movs	r3, #0
}
 80058e8:	4618      	mov	r0, r3
 80058ea:	3714      	adds	r7, #20
 80058ec:	46bd      	mov	sp, r7
 80058ee:	f85d 7b04 	ldr.w	r7, [sp], #4
 80058f2:	4770      	bx	lr

080058f4 <HAL_PWREx_ControlVoltageScaling>:
  *        cleared before returning the status. If the flag is not cleared within
  *        50 microseconds, HAL_TIMEOUT status is reported.
  * @retval HAL Status
  */
HAL_StatusTypeDef HAL_PWREx_ControlVoltageScaling(uint32_t VoltageScaling)
{
 80058f4:	b480      	push	{r7}
 80058f6:	b085      	sub	sp, #20
 80058f8:	af00      	add	r7, sp, #0
 80058fa:	6078      	str	r0, [r7, #4]
  uint32_t wait_loop_index;

  assert_param(IS_PWR_VOLTAGE_SCALING_RANGE(VoltageScaling));

  if (VoltageScaling == PWR_REGULATOR_VOLTAGE_SCALE1_BOOST)
 80058fc:	687b      	ldr	r3, [r7, #4]
 80058fe:	2b00      	cmp	r3, #0
 8005900:	d141      	bne.n	8005986 <HAL_PWREx_ControlVoltageScaling+0x92>
  {
    /* If current range is range 2 */
    if (READ_BIT(PWR->CR1, PWR_CR1_VOS) == PWR_REGULATOR_VOLTAGE_SCALE2)
 8005902:	4b4b      	ldr	r3, [pc, #300]	@ (8005a30 <HAL_PWREx_ControlVoltageScaling+0x13c>)
 8005904:	681b      	ldr	r3, [r3, #0]
 8005906:	f403 63c0 	and.w	r3, r3, #1536	@ 0x600
 800590a:	f5b3 6f80 	cmp.w	r3, #1024	@ 0x400
 800590e:	d131      	bne.n	8005974 <HAL_PWREx_ControlVoltageScaling+0x80>
    {
      /* Make sure Range 1 Boost is enabled */
      CLEAR_BIT(PWR->CR5, PWR_CR5_R1MODE);
 8005910:	4b47      	ldr	r3, [pc, #284]	@ (8005a30 <HAL_PWREx_ControlVoltageScaling+0x13c>)
 8005912:	f8d3 3080 	ldr.w	r3, [r3, #128]	@ 0x80
 8005916:	4a46      	ldr	r2, [pc, #280]	@ (8005a30 <HAL_PWREx_ControlVoltageScaling+0x13c>)
 8005918:	f423 7380 	bic.w	r3, r3, #256	@ 0x100
 800591c:	f8c2 3080 	str.w	r3, [r2, #128]	@ 0x80

      /* Set Range 1 */
      MODIFY_REG(PWR->CR1, PWR_CR1_VOS, PWR_REGULATOR_VOLTAGE_SCALE1);
 8005920:	4b43      	ldr	r3, [pc, #268]	@ (8005a30 <HAL_PWREx_ControlVoltageScaling+0x13c>)
 8005922:	681b      	ldr	r3, [r3, #0]
 8005924:	f423 63c0 	bic.w	r3, r3, #1536	@ 0x600
 8005928:	4a41      	ldr	r2, [pc, #260]	@ (8005a30 <HAL_PWREx_ControlVoltageScaling+0x13c>)
 800592a:	f443 7300 	orr.w	r3, r3, #512	@ 0x200
 800592e:	6013      	str	r3, [r2, #0]

      /* Wait until VOSF is cleared */
      wait_loop_index = ((PWR_FLAG_SETTING_DELAY_US * SystemCoreClock) / 1000000U) + 1U;
 8005930:	4b40      	ldr	r3, [pc, #256]	@ (8005a34 <HAL_PWREx_ControlVoltageScaling+0x140>)
 8005932:	681b      	ldr	r3, [r3, #0]
 8005934:	2232      	movs	r2, #50	@ 0x32
 8005936:	fb02 f303 	mul.w	r3, r2, r3
 800593a:	4a3f      	ldr	r2, [pc, #252]	@ (8005a38 <HAL_PWREx_ControlVoltageScaling+0x144>)
 800593c:	fba2 2303 	umull	r2, r3, r2, r3
 8005940:	0c9b      	lsrs	r3, r3, #18
 8005942:	3301      	adds	r3, #1
 8005944:	60fb      	str	r3, [r7, #12]
      while ((HAL_IS_BIT_SET(PWR->SR2, PWR_SR2_VOSF)) && (wait_loop_index != 0U))
 8005946:	e002      	b.n	800594e <HAL_PWREx_ControlVoltageScaling+0x5a>
      {
        wait_loop_index--;
 8005948:	68fb      	ldr	r3, [r7, #12]
 800594a:	3b01      	subs	r3, #1
 800594c:	60fb      	str	r3, [r7, #12]
      while ((HAL_IS_BIT_SET(PWR->SR2, PWR_SR2_VOSF)) && (wait_loop_index != 0U))
 800594e:	4b38      	ldr	r3, [pc, #224]	@ (8005a30 <HAL_PWREx_ControlVoltageScaling+0x13c>)
 8005950:	695b      	ldr	r3, [r3, #20]
 8005952:	f403 6380 	and.w	r3, r3, #1024	@ 0x400
 8005956:	f5b3 6f80 	cmp.w	r3, #1024	@ 0x400
 800595a:	d102      	bne.n	8005962 <HAL_PWREx_ControlVoltageScaling+0x6e>
 800595c:	68fb      	ldr	r3, [r7, #12]
 800595e:	2b00      	cmp	r3, #0
 8005960:	d1f2      	bne.n	8005948 <HAL_PWREx_ControlVoltageScaling+0x54>
      }
      if (HAL_IS_BIT_SET(PWR->SR2, PWR_SR2_VOSF))
 8005962:	4b33      	ldr	r3, [pc, #204]	@ (8005a30 <HAL_PWREx_ControlVoltageScaling+0x13c>)
 8005964:	695b      	ldr	r3, [r3, #20]
 8005966:	f403 6380 	and.w	r3, r3, #1024	@ 0x400
 800596a:	f5b3 6f80 	cmp.w	r3, #1024	@ 0x400
 800596e:	d158      	bne.n	8005a22 <HAL_PWREx_ControlVoltageScaling+0x12e>
      {
        return HAL_TIMEOUT;
 8005970:	2303      	movs	r3, #3
 8005972:	e057      	b.n	8005a24 <HAL_PWREx_ControlVoltageScaling+0x130>
    }
    /* If current range is range 1 normal or boost mode */
    else
    {
      /* Enable Range 1 Boost (no issue if bit already reset) */
      CLEAR_BIT(PWR->CR5, PWR_CR5_R1MODE);
 8005974:	4b2e      	ldr	r3, [pc, #184]	@ (8005a30 <HAL_PWREx_ControlVoltageScaling+0x13c>)
 8005976:	f8d3 3080 	ldr.w	r3, [r3, #128]	@ 0x80
 800597a:	4a2d      	ldr	r2, [pc, #180]	@ (8005a30 <HAL_PWREx_ControlVoltageScaling+0x13c>)
 800597c:	f423 7380 	bic.w	r3, r3, #256	@ 0x100
 8005980:	f8c2 3080 	str.w	r3, [r2, #128]	@ 0x80
 8005984:	e04d      	b.n	8005a22 <HAL_PWREx_ControlVoltageScaling+0x12e>
    }
  }
  else if (VoltageScaling == PWR_REGULATOR_VOLTAGE_SCALE1)
 8005986:	687b      	ldr	r3, [r7, #4]
 8005988:	f5b3 7f00 	cmp.w	r3, #512	@ 0x200
 800598c:	d141      	bne.n	8005a12 <HAL_PWREx_ControlVoltageScaling+0x11e>
  {
    /* If current range is range 2 */
    if (READ_BIT(PWR->CR1, PWR_CR1_VOS) == PWR_REGULATOR_VOLTAGE_SCALE2)
 800598e:	4b28      	ldr	r3, [pc, #160]	@ (8005a30 <HAL_PWREx_ControlVoltageScaling+0x13c>)
 8005990:	681b      	ldr	r3, [r3, #0]
 8005992:	f403 63c0 	and.w	r3, r3, #1536	@ 0x600
 8005996:	f5b3 6f80 	cmp.w	r3, #1024	@ 0x400
 800599a:	d131      	bne.n	8005a00 <HAL_PWREx_ControlVoltageScaling+0x10c>
    {
      /* Make sure Range 1 Boost is disabled */
      SET_BIT(PWR->CR5, PWR_CR5_R1MODE);
 800599c:	4b24      	ldr	r3, [pc, #144]	@ (8005a30 <HAL_PWREx_ControlVoltageScaling+0x13c>)
 800599e:	f8d3 3080 	ldr.w	r3, [r3, #128]	@ 0x80
 80059a2:	4a23      	ldr	r2, [pc, #140]	@ (8005a30 <HAL_PWREx_ControlVoltageScaling+0x13c>)
 80059a4:	f443 7380 	orr.w	r3, r3, #256	@ 0x100
 80059a8:	f8c2 3080 	str.w	r3, [r2, #128]	@ 0x80

      /* Set Range 1 */
      MODIFY_REG(PWR->CR1, PWR_CR1_VOS, PWR_REGULATOR_VOLTAGE_SCALE1);
 80059ac:	4b20      	ldr	r3, [pc, #128]	@ (8005a30 <HAL_PWREx_ControlVoltageScaling+0x13c>)
 80059ae:	681b      	ldr	r3, [r3, #0]
 80059b0:	f423 63c0 	bic.w	r3, r3, #1536	@ 0x600
 80059b4:	4a1e      	ldr	r2, [pc, #120]	@ (8005a30 <HAL_PWREx_ControlVoltageScaling+0x13c>)
 80059b6:	f443 7300 	orr.w	r3, r3, #512	@ 0x200
 80059ba:	6013      	str	r3, [r2, #0]

      /* Wait until VOSF is cleared */
      wait_loop_index = ((PWR_FLAG_SETTING_DELAY_US * SystemCoreClock) / 1000000U) + 1U;
 80059bc:	4b1d      	ldr	r3, [pc, #116]	@ (8005a34 <HAL_PWREx_ControlVoltageScaling+0x140>)
 80059be:	681b      	ldr	r3, [r3, #0]
 80059c0:	2232      	movs	r2, #50	@ 0x32
 80059c2:	fb02 f303 	mul.w	r3, r2, r3
 80059c6:	4a1c      	ldr	r2, [pc, #112]	@ (8005a38 <HAL_PWREx_ControlVoltageScaling+0x144>)
 80059c8:	fba2 2303 	umull	r2, r3, r2, r3
 80059cc:	0c9b      	lsrs	r3, r3, #18
 80059ce:	3301      	adds	r3, #1
 80059d0:	60fb      	str	r3, [r7, #12]
      while ((HAL_IS_BIT_SET(PWR->SR2, PWR_SR2_VOSF)) && (wait_loop_index != 0U))
 80059d2:	e002      	b.n	80059da <HAL_PWREx_ControlVoltageScaling+0xe6>
      {
        wait_loop_index--;
 80059d4:	68fb      	ldr	r3, [r7, #12]
 80059d6:	3b01      	subs	r3, #1
 80059d8:	60fb      	str	r3, [r7, #12]
      while ((HAL_IS_BIT_SET(PWR->SR2, PWR_SR2_VOSF)) && (wait_loop_index != 0U))
 80059da:	4b15      	ldr	r3, [pc, #84]	@ (8005a30 <HAL_PWREx_ControlVoltageScaling+0x13c>)
 80059dc:	695b      	ldr	r3, [r3, #20]
 80059de:	f403 6380 	and.w	r3, r3, #1024	@ 0x400
 80059e2:	f5b3 6f80 	cmp.w	r3, #1024	@ 0x400
 80059e6:	d102      	bne.n	80059ee <HAL_PWREx_ControlVoltageScaling+0xfa>
 80059e8:	68fb      	ldr	r3, [r7, #12]
 80059ea:	2b00      	cmp	r3, #0
 80059ec:	d1f2      	bne.n	80059d4 <HAL_PWREx_ControlVoltageScaling+0xe0>
      }
      if (HAL_IS_BIT_SET(PWR->SR2, PWR_SR2_VOSF))
 80059ee:	4b10      	ldr	r3, [pc, #64]	@ (8005a30 <HAL_PWREx_ControlVoltageScaling+0x13c>)
 80059f0:	695b      	ldr	r3, [r3, #20]
 80059f2:	f403 6380 	and.w	r3, r3, #1024	@ 0x400
 80059f6:	f5b3 6f80 	cmp.w	r3, #1024	@ 0x400
 80059fa:	d112      	bne.n	8005a22 <HAL_PWREx_ControlVoltageScaling+0x12e>
      {
        return HAL_TIMEOUT;
 80059fc:	2303      	movs	r3, #3
 80059fe:	e011      	b.n	8005a24 <HAL_PWREx_ControlVoltageScaling+0x130>
    }
     /* If current range is range 1 normal or boost mode */
    else
    {
      /* Disable Range 1 Boost (no issue if bit already set) */
      SET_BIT(PWR->CR5, PWR_CR5_R1MODE);
 8005a00:	4b0b      	ldr	r3, [pc, #44]	@ (8005a30 <HAL_PWREx_ControlVoltageScaling+0x13c>)
 8005a02:	f8d3 3080 	ldr.w	r3, [r3, #128]	@ 0x80
 8005a06:	4a0a      	ldr	r2, [pc, #40]	@ (8005a30 <HAL_PWREx_ControlVoltageScaling+0x13c>)
 8005a08:	f443 7380 	orr.w	r3, r3, #256	@ 0x100
 8005a0c:	f8c2 3080 	str.w	r3, [r2, #128]	@ 0x80
 8005a10:	e007      	b.n	8005a22 <HAL_PWREx_ControlVoltageScaling+0x12e>
    }
  }
  else
  {
    /* Set Range 2 */
    MODIFY_REG(PWR->CR1, PWR_CR1_VOS, PWR_REGULATOR_VOLTAGE_SCALE2);
 8005a12:	4b07      	ldr	r3, [pc, #28]	@ (8005a30 <HAL_PWREx_ControlVoltageScaling+0x13c>)
 8005a14:	681b      	ldr	r3, [r3, #0]
 8005a16:	f423 63c0 	bic.w	r3, r3, #1536	@ 0x600
 8005a1a:	4a05      	ldr	r2, [pc, #20]	@ (8005a30 <HAL_PWREx_ControlVoltageScaling+0x13c>)
 8005a1c:	f443 6380 	orr.w	r3, r3, #1024	@ 0x400
 8005a20:	6013      	str	r3, [r2, #0]
    /* No need to wait for VOSF to be cleared for this transition */
    /* PWR_CR5_R1MODE bit setting has no effect in Range 2        */
  }

  return HAL_OK;
 8005a22:	2300      	movs	r3, #0
}
 8005a24:	4618      	mov	r0, r3
 8005a26:	3714      	adds	r7, #20
 8005a28:	46bd      	mov	sp, r7
 8005a2a:	f85d 7b04 	ldr.w	r7, [sp], #4
 8005a2e:	4770      	bx	lr
 8005a30:	40007000 	.word	0x40007000
 8005a34:	20000008 	.word	0x20000008
 8005a38:	431bde83 	.word	0x431bde83

08005a3c <HAL_PWREx_DisableUCPDDeadBattery>:
  *       or to hand over control to the UCPD (which should therefore be
  *       initialized before doing the disable).
  * @retval None
  */
void HAL_PWREx_DisableUCPDDeadBattery(void)
{
 8005a3c:	b480      	push	{r7}
 8005a3e:	af00      	add	r7, sp, #0
  /* Write 1 to disable the USB Type-C dead battery pull-down behavior */
  SET_BIT(PWR->CR3, PWR_CR3_UCPD_DBDIS);
 8005a40:	4b05      	ldr	r3, [pc, #20]	@ (8005a58 <HAL_PWREx_DisableUCPDDeadBattery+0x1c>)
 8005a42:	689b      	ldr	r3, [r3, #8]
 8005a44:	4a04      	ldr	r2, [pc, #16]	@ (8005a58 <HAL_PWREx_DisableUCPDDeadBattery+0x1c>)
 8005a46:	f443 4380 	orr.w	r3, r3, #16384	@ 0x4000
 8005a4a:	6093      	str	r3, [r2, #8]
}
 8005a4c:	bf00      	nop
 8005a4e:	46bd      	mov	sp, r7
 8005a50:	f85d 7b04 	ldr.w	r7, [sp], #4
 8005a54:	4770      	bx	lr
 8005a56:	bf00      	nop
 8005a58:	40007000 	.word	0x40007000

08005a5c <HAL_RCC_OscConfig>:
  *         supported by this macro. User should request a transition to HSE Off
  *         first and then HSE On or HSE Bypass.
  * @retval HAL status
  */
HAL_StatusTypeDef HAL_RCC_OscConfig(RCC_OscInitTypeDef  *RCC_OscInitStruct)
{
 8005a5c:	b580      	push	{r7, lr}
 8005a5e:	b088      	sub	sp, #32
 8005a60:	af00      	add	r7, sp, #0
 8005a62:	6078      	str	r0, [r7, #4]
  uint32_t tickstart;
  uint32_t temp_sysclksrc;
  uint32_t temp_pllckcfg;

  /* Check Null pointer */
  if (RCC_OscInitStruct == NULL)
 8005a64:	687b      	ldr	r3, [r7, #4]
 8005a66:	2b00      	cmp	r3, #0
 8005a68:	d101      	bne.n	8005a6e <HAL_RCC_OscConfig+0x12>
  {
    return HAL_ERROR;
 8005a6a:	2301      	movs	r3, #1
 8005a6c:	e2fe      	b.n	800606c <HAL_RCC_OscConfig+0x610>

  /* Check the parameters */
  assert_param(IS_RCC_OSCILLATORTYPE(RCC_OscInitStruct->OscillatorType));

  /*------------------------------- HSE Configuration ------------------------*/
  if (((RCC_OscInitStruct->OscillatorType) & RCC_OSCILLATORTYPE_HSE) == RCC_OSCILLATORTYPE_HSE)
 8005a6e:	687b      	ldr	r3, [r7, #4]
 8005a70:	681b      	ldr	r3, [r3, #0]
 8005a72:	f003 0301 	and.w	r3, r3, #1
 8005a76:	2b00      	cmp	r3, #0
 8005a78:	d075      	beq.n	8005b66 <HAL_RCC_OscConfig+0x10a>
  {
    /* Check the parameters */
    assert_param(IS_RCC_HSE(RCC_OscInitStruct->HSEState));

    temp_sysclksrc = __HAL_RCC_GET_SYSCLK_SOURCE();
 8005a7a:	4b97      	ldr	r3, [pc, #604]	@ (8005cd8 <HAL_RCC_OscConfig+0x27c>)
 8005a7c:	689b      	ldr	r3, [r3, #8]
 8005a7e:	f003 030c 	and.w	r3, r3, #12
 8005a82:	61bb      	str	r3, [r7, #24]
    temp_pllckcfg = __HAL_RCC_GET_PLL_OSCSOURCE();
 8005a84:	4b94      	ldr	r3, [pc, #592]	@ (8005cd8 <HAL_RCC_OscConfig+0x27c>)
 8005a86:	68db      	ldr	r3, [r3, #12]
 8005a88:	f003 0303 	and.w	r3, r3, #3
 8005a8c:	617b      	str	r3, [r7, #20]

    /* When the HSE is used as system clock or clock source for PLL in these cases it is not allowed to be disabled */
    if (((temp_sysclksrc == RCC_CFGR_SWS_PLL) && (temp_pllckcfg == RCC_PLLSOURCE_HSE)) || (temp_sysclksrc == RCC_CFGR_SWS_HSE))
 8005a8e:	69bb      	ldr	r3, [r7, #24]
 8005a90:	2b0c      	cmp	r3, #12
 8005a92:	d102      	bne.n	8005a9a <HAL_RCC_OscConfig+0x3e>
 8005a94:	697b      	ldr	r3, [r7, #20]
 8005a96:	2b03      	cmp	r3, #3
 8005a98:	d002      	beq.n	8005aa0 <HAL_RCC_OscConfig+0x44>
 8005a9a:	69bb      	ldr	r3, [r7, #24]
 8005a9c:	2b08      	cmp	r3, #8
 8005a9e:	d10b      	bne.n	8005ab8 <HAL_RCC_OscConfig+0x5c>
    {
      if ((READ_BIT(RCC->CR, RCC_CR_HSERDY) != 0U) && (RCC_OscInitStruct->HSEState == RCC_HSE_OFF))
 8005aa0:	4b8d      	ldr	r3, [pc, #564]	@ (8005cd8 <HAL_RCC_OscConfig+0x27c>)
 8005aa2:	681b      	ldr	r3, [r3, #0]
 8005aa4:	f403 3300 	and.w	r3, r3, #131072	@ 0x20000
 8005aa8:	2b00      	cmp	r3, #0
 8005aaa:	d05b      	beq.n	8005b64 <HAL_RCC_OscConfig+0x108>
 8005aac:	687b      	ldr	r3, [r7, #4]
 8005aae:	685b      	ldr	r3, [r3, #4]
 8005ab0:	2b00      	cmp	r3, #0
 8005ab2:	d157      	bne.n	8005b64 <HAL_RCC_OscConfig+0x108>
      {
        return HAL_ERROR;
 8005ab4:	2301      	movs	r3, #1
 8005ab6:	e2d9      	b.n	800606c <HAL_RCC_OscConfig+0x610>
      }
    }
    else
    {
      /* Set the new HSE configuration ---------------------------------------*/
      __HAL_RCC_HSE_CONFIG(RCC_OscInitStruct->HSEState);
 8005ab8:	687b      	ldr	r3, [r7, #4]
 8005aba:	685b      	ldr	r3, [r3, #4]
 8005abc:	f5b3 3f80 	cmp.w	r3, #65536	@ 0x10000
 8005ac0:	d106      	bne.n	8005ad0 <HAL_RCC_OscConfig+0x74>
 8005ac2:	4b85      	ldr	r3, [pc, #532]	@ (8005cd8 <HAL_RCC_OscConfig+0x27c>)
 8005ac4:	681b      	ldr	r3, [r3, #0]
 8005ac6:	4a84      	ldr	r2, [pc, #528]	@ (8005cd8 <HAL_RCC_OscConfig+0x27c>)
 8005ac8:	f443 3380 	orr.w	r3, r3, #65536	@ 0x10000
 8005acc:	6013      	str	r3, [r2, #0]
 8005ace:	e01d      	b.n	8005b0c <HAL_RCC_OscConfig+0xb0>
 8005ad0:	687b      	ldr	r3, [r7, #4]
 8005ad2:	685b      	ldr	r3, [r3, #4]
 8005ad4:	f5b3 2fa0 	cmp.w	r3, #327680	@ 0x50000
 8005ad8:	d10c      	bne.n	8005af4 <HAL_RCC_OscConfig+0x98>
 8005ada:	4b7f      	ldr	r3, [pc, #508]	@ (8005cd8 <HAL_RCC_OscConfig+0x27c>)
 8005adc:	681b      	ldr	r3, [r3, #0]
 8005ade:	4a7e      	ldr	r2, [pc, #504]	@ (8005cd8 <HAL_RCC_OscConfig+0x27c>)
 8005ae0:	f443 2380 	orr.w	r3, r3, #262144	@ 0x40000
 8005ae4:	6013      	str	r3, [r2, #0]
 8005ae6:	4b7c      	ldr	r3, [pc, #496]	@ (8005cd8 <HAL_RCC_OscConfig+0x27c>)
 8005ae8:	681b      	ldr	r3, [r3, #0]
 8005aea:	4a7b      	ldr	r2, [pc, #492]	@ (8005cd8 <HAL_RCC_OscConfig+0x27c>)
 8005aec:	f443 3380 	orr.w	r3, r3, #65536	@ 0x10000
 8005af0:	6013      	str	r3, [r2, #0]
 8005af2:	e00b      	b.n	8005b0c <HAL_RCC_OscConfig+0xb0>
 8005af4:	4b78      	ldr	r3, [pc, #480]	@ (8005cd8 <HAL_RCC_OscConfig+0x27c>)
 8005af6:	681b      	ldr	r3, [r3, #0]
 8005af8:	4a77      	ldr	r2, [pc, #476]	@ (8005cd8 <HAL_RCC_OscConfig+0x27c>)
 8005afa:	f423 3380 	bic.w	r3, r3, #65536	@ 0x10000
 8005afe:	6013      	str	r3, [r2, #0]
 8005b00:	4b75      	ldr	r3, [pc, #468]	@ (8005cd8 <HAL_RCC_OscConfig+0x27c>)
 8005b02:	681b      	ldr	r3, [r3, #0]
 8005b04:	4a74      	ldr	r2, [pc, #464]	@ (8005cd8 <HAL_RCC_OscConfig+0x27c>)
 8005b06:	f423 2380 	bic.w	r3, r3, #262144	@ 0x40000
 8005b0a:	6013      	str	r3, [r2, #0]

      /* Check the HSE State */
      if (RCC_OscInitStruct->HSEState != RCC_HSE_OFF)
 8005b0c:	687b      	ldr	r3, [r7, #4]
 8005b0e:	685b      	ldr	r3, [r3, #4]
 8005b10:	2b00      	cmp	r3, #0
 8005b12:	d013      	beq.n	8005b3c <HAL_RCC_OscConfig+0xe0>
      {
        /* Get Start Tick*/
        tickstart = HAL_GetTick();
 8005b14:	f7fd fa10 	bl	8002f38 <HAL_GetTick>
 8005b18:	6138      	str	r0, [r7, #16]

        /* Wait till HSE is ready */
        while (READ_BIT(RCC->CR, RCC_CR_HSERDY) == 0U)
 8005b1a:	e008      	b.n	8005b2e <HAL_RCC_OscConfig+0xd2>
        {
          if ((HAL_GetTick() - tickstart) > HSE_TIMEOUT_VALUE)
 8005b1c:	f7fd fa0c 	bl	8002f38 <HAL_GetTick>
 8005b20:	4602      	mov	r2, r0
 8005b22:	693b      	ldr	r3, [r7, #16]
 8005b24:	1ad3      	subs	r3, r2, r3
 8005b26:	2b64      	cmp	r3, #100	@ 0x64
 8005b28:	d901      	bls.n	8005b2e <HAL_RCC_OscConfig+0xd2>
          {
            return HAL_TIMEOUT;
 8005b2a:	2303      	movs	r3, #3
 8005b2c:	e29e      	b.n	800606c <HAL_RCC_OscConfig+0x610>
        while (READ_BIT(RCC->CR, RCC_CR_HSERDY) == 0U)
 8005b2e:	4b6a      	ldr	r3, [pc, #424]	@ (8005cd8 <HAL_RCC_OscConfig+0x27c>)
 8005b30:	681b      	ldr	r3, [r3, #0]
 8005b32:	f403 3300 	and.w	r3, r3, #131072	@ 0x20000
 8005b36:	2b00      	cmp	r3, #0
 8005b38:	d0f0      	beq.n	8005b1c <HAL_RCC_OscConfig+0xc0>
 8005b3a:	e014      	b.n	8005b66 <HAL_RCC_OscConfig+0x10a>
        }
      }
      else
      {
        /* Get Start Tick*/
        tickstart = HAL_GetTick();
 8005b3c:	f7fd f9fc 	bl	8002f38 <HAL_GetTick>
 8005b40:	6138      	str	r0, [r7, #16]

        /* Wait till HSE is disabled */
        while (READ_BIT(RCC->CR, RCC_CR_HSERDY) != 0U)
 8005b42:	e008      	b.n	8005b56 <HAL_RCC_OscConfig+0xfa>
        {
          if ((HAL_GetTick() - tickstart) > HSE_TIMEOUT_VALUE)
 8005b44:	f7fd f9f8 	bl	8002f38 <HAL_GetTick>
 8005b48:	4602      	mov	r2, r0
 8005b4a:	693b      	ldr	r3, [r7, #16]
 8005b4c:	1ad3      	subs	r3, r2, r3
 8005b4e:	2b64      	cmp	r3, #100	@ 0x64
 8005b50:	d901      	bls.n	8005b56 <HAL_RCC_OscConfig+0xfa>
          {
            return HAL_TIMEOUT;
 8005b52:	2303      	movs	r3, #3
 8005b54:	e28a      	b.n	800606c <HAL_RCC_OscConfig+0x610>
        while (READ_BIT(RCC->CR, RCC_CR_HSERDY) != 0U)
 8005b56:	4b60      	ldr	r3, [pc, #384]	@ (8005cd8 <HAL_RCC_OscConfig+0x27c>)
 8005b58:	681b      	ldr	r3, [r3, #0]
 8005b5a:	f403 3300 	and.w	r3, r3, #131072	@ 0x20000
 8005b5e:	2b00      	cmp	r3, #0
 8005b60:	d1f0      	bne.n	8005b44 <HAL_RCC_OscConfig+0xe8>
 8005b62:	e000      	b.n	8005b66 <HAL_RCC_OscConfig+0x10a>
      if ((READ_BIT(RCC->CR, RCC_CR_HSERDY) != 0U) && (RCC_OscInitStruct->HSEState == RCC_HSE_OFF))
 8005b64:	bf00      	nop
        }
      }
    }
  }
  /*----------------------------- HSI Configuration --------------------------*/
  if (((RCC_OscInitStruct->OscillatorType) & RCC_OSCILLATORTYPE_HSI) == RCC_OSCILLATORTYPE_HSI)
 8005b66:	687b      	ldr	r3, [r7, #4]
 8005b68:	681b      	ldr	r3, [r3, #0]
 8005b6a:	f003 0302 	and.w	r3, r3, #2
 8005b6e:	2b00      	cmp	r3, #0
 8005b70:	d075      	beq.n	8005c5e <HAL_RCC_OscConfig+0x202>
    /* Check the parameters */
    assert_param(IS_RCC_HSI(RCC_OscInitStruct->HSIState));
    assert_param(IS_RCC_HSI_CALIBRATION_VALUE(RCC_OscInitStruct->HSICalibrationValue));

    /* Check if HSI is used as system clock or as PLL source when PLL is selected as system clock */
    temp_sysclksrc = __HAL_RCC_GET_SYSCLK_SOURCE();
 8005b72:	4b59      	ldr	r3, [pc, #356]	@ (8005cd8 <HAL_RCC_OscConfig+0x27c>)
 8005b74:	689b      	ldr	r3, [r3, #8]
 8005b76:	f003 030c 	and.w	r3, r3, #12
 8005b7a:	61bb      	str	r3, [r7, #24]
    temp_pllckcfg = __HAL_RCC_GET_PLL_OSCSOURCE();
 8005b7c:	4b56      	ldr	r3, [pc, #344]	@ (8005cd8 <HAL_RCC_OscConfig+0x27c>)
 8005b7e:	68db      	ldr	r3, [r3, #12]
 8005b80:	f003 0303 	and.w	r3, r3, #3
 8005b84:	617b      	str	r3, [r7, #20]
    if (((temp_sysclksrc == RCC_CFGR_SWS_PLL) && (temp_pllckcfg == RCC_PLLSOURCE_HSI)) || (temp_sysclksrc == RCC_CFGR_SWS_HSI))
 8005b86:	69bb      	ldr	r3, [r7, #24]
 8005b88:	2b0c      	cmp	r3, #12
 8005b8a:	d102      	bne.n	8005b92 <HAL_RCC_OscConfig+0x136>
 8005b8c:	697b      	ldr	r3, [r7, #20]
 8005b8e:	2b02      	cmp	r3, #2
 8005b90:	d002      	beq.n	8005b98 <HAL_RCC_OscConfig+0x13c>
 8005b92:	69bb      	ldr	r3, [r7, #24]
 8005b94:	2b04      	cmp	r3, #4
 8005b96:	d11f      	bne.n	8005bd8 <HAL_RCC_OscConfig+0x17c>
    {
      /* When HSI is used as system clock it will not be disabled */
      if ((READ_BIT(RCC->CR, RCC_CR_HSIRDY) != 0U) && (RCC_OscInitStruct->HSIState == RCC_HSI_OFF))
 8005b98:	4b4f      	ldr	r3, [pc, #316]	@ (8005cd8 <HAL_RCC_OscConfig+0x27c>)
 8005b9a:	681b      	ldr	r3, [r3, #0]
 8005b9c:	f403 6380 	and.w	r3, r3, #1024	@ 0x400
 8005ba0:	2b00      	cmp	r3, #0
 8005ba2:	d005      	beq.n	8005bb0 <HAL_RCC_OscConfig+0x154>
 8005ba4:	687b      	ldr	r3, [r7, #4]
 8005ba6:	68db      	ldr	r3, [r3, #12]
 8005ba8:	2b00      	cmp	r3, #0
 8005baa:	d101      	bne.n	8005bb0 <HAL_RCC_OscConfig+0x154>
      {
        return HAL_ERROR;
 8005bac:	2301      	movs	r3, #1
 8005bae:	e25d      	b.n	800606c <HAL_RCC_OscConfig+0x610>
      }
      /* Otherwise, just the calibration is allowed */
      else
      {
        /* Adjusts the Internal High Speed oscillator (HSI) calibration value.*/
        __HAL_RCC_HSI_CALIBRATIONVALUE_ADJUST(RCC_OscInitStruct->HSICalibrationValue);
 8005bb0:	4b49      	ldr	r3, [pc, #292]	@ (8005cd8 <HAL_RCC_OscConfig+0x27c>)
 8005bb2:	685b      	ldr	r3, [r3, #4]
 8005bb4:	f023 42fe 	bic.w	r2, r3, #2130706432	@ 0x7f000000
 8005bb8:	687b      	ldr	r3, [r7, #4]
 8005bba:	691b      	ldr	r3, [r3, #16]
 8005bbc:	061b      	lsls	r3, r3, #24
 8005bbe:	4946      	ldr	r1, [pc, #280]	@ (8005cd8 <HAL_RCC_OscConfig+0x27c>)
 8005bc0:	4313      	orrs	r3, r2
 8005bc2:	604b      	str	r3, [r1, #4]

        /* Adapt Systick interrupt period */
        if (HAL_InitTick(uwTickPrio) != HAL_OK)
 8005bc4:	4b45      	ldr	r3, [pc, #276]	@ (8005cdc <HAL_RCC_OscConfig+0x280>)
 8005bc6:	681b      	ldr	r3, [r3, #0]
 8005bc8:	4618      	mov	r0, r3
 8005bca:	f7fd f969 	bl	8002ea0 <HAL_InitTick>
 8005bce:	4603      	mov	r3, r0
 8005bd0:	2b00      	cmp	r3, #0
 8005bd2:	d043      	beq.n	8005c5c <HAL_RCC_OscConfig+0x200>
        {
          return HAL_ERROR;
 8005bd4:	2301      	movs	r3, #1
 8005bd6:	e249      	b.n	800606c <HAL_RCC_OscConfig+0x610>
      }
    }
    else
    {
      /* Check the HSI State */
      if (RCC_OscInitStruct->HSIState != RCC_HSI_OFF)
 8005bd8:	687b      	ldr	r3, [r7, #4]
 8005bda:	68db      	ldr	r3, [r3, #12]
 8005bdc:	2b00      	cmp	r3, #0
 8005bde:	d023      	beq.n	8005c28 <HAL_RCC_OscConfig+0x1cc>
      {
        /* Enable the Internal High Speed oscillator (HSI). */
        __HAL_RCC_HSI_ENABLE();
 8005be0:	4b3d      	ldr	r3, [pc, #244]	@ (8005cd8 <HAL_RCC_OscConfig+0x27c>)
 8005be2:	681b      	ldr	r3, [r3, #0]
 8005be4:	4a3c      	ldr	r2, [pc, #240]	@ (8005cd8 <HAL_RCC_OscConfig+0x27c>)
 8005be6:	f443 7380 	orr.w	r3, r3, #256	@ 0x100
 8005bea:	6013      	str	r3, [r2, #0]

        /* Get Start Tick*/
        tickstart = HAL_GetTick();
 8005bec:	f7fd f9a4 	bl	8002f38 <HAL_GetTick>
 8005bf0:	6138      	str	r0, [r7, #16]

        /* Wait till HSI is ready */
        while (READ_BIT(RCC->CR, RCC_CR_HSIRDY) == 0U)
 8005bf2:	e008      	b.n	8005c06 <HAL_RCC_OscConfig+0x1aa>
        {
          if ((HAL_GetTick() - tickstart) > HSI_TIMEOUT_VALUE)
 8005bf4:	f7fd f9a0 	bl	8002f38 <HAL_GetTick>
 8005bf8:	4602      	mov	r2, r0
 8005bfa:	693b      	ldr	r3, [r7, #16]
 8005bfc:	1ad3      	subs	r3, r2, r3
 8005bfe:	2b02      	cmp	r3, #2
 8005c00:	d901      	bls.n	8005c06 <HAL_RCC_OscConfig+0x1aa>
          {
            return HAL_TIMEOUT;
 8005c02:	2303      	movs	r3, #3
 8005c04:	e232      	b.n	800606c <HAL_RCC_OscConfig+0x610>
        while (READ_BIT(RCC->CR, RCC_CR_HSIRDY) == 0U)
 8005c06:	4b34      	ldr	r3, [pc, #208]	@ (8005cd8 <HAL_RCC_OscConfig+0x27c>)
 8005c08:	681b      	ldr	r3, [r3, #0]
 8005c0a:	f403 6380 	and.w	r3, r3, #1024	@ 0x400
 8005c0e:	2b00      	cmp	r3, #0
 8005c10:	d0f0      	beq.n	8005bf4 <HAL_RCC_OscConfig+0x198>
          }
        }

        /* Adjusts the Internal High Speed oscillator (HSI) calibration value.*/
        __HAL_RCC_HSI_CALIBRATIONVALUE_ADJUST(RCC_OscInitStruct->HSICalibrationValue);
 8005c12:	4b31      	ldr	r3, [pc, #196]	@ (8005cd8 <HAL_RCC_OscConfig+0x27c>)
 8005c14:	685b      	ldr	r3, [r3, #4]
 8005c16:	f023 42fe 	bic.w	r2, r3, #2130706432	@ 0x7f000000
 8005c1a:	687b      	ldr	r3, [r7, #4]
 8005c1c:	691b      	ldr	r3, [r3, #16]
 8005c1e:	061b      	lsls	r3, r3, #24
 8005c20:	492d      	ldr	r1, [pc, #180]	@ (8005cd8 <HAL_RCC_OscConfig+0x27c>)
 8005c22:	4313      	orrs	r3, r2
 8005c24:	604b      	str	r3, [r1, #4]
 8005c26:	e01a      	b.n	8005c5e <HAL_RCC_OscConfig+0x202>
      }
      else
      {
        /* Disable the Internal High Speed oscillator (HSI). */
        __HAL_RCC_HSI_DISABLE();
 8005c28:	4b2b      	ldr	r3, [pc, #172]	@ (8005cd8 <HAL_RCC_OscConfig+0x27c>)
 8005c2a:	681b      	ldr	r3, [r3, #0]
 8005c2c:	4a2a      	ldr	r2, [pc, #168]	@ (8005cd8 <HAL_RCC_OscConfig+0x27c>)
 8005c2e:	f423 7380 	bic.w	r3, r3, #256	@ 0x100
 8005c32:	6013      	str	r3, [r2, #0]

        /* Get Start Tick*/
        tickstart = HAL_GetTick();
 8005c34:	f7fd f980 	bl	8002f38 <HAL_GetTick>
 8005c38:	6138      	str	r0, [r7, #16]

        /* Wait till HSI is disabled */
        while (READ_BIT(RCC->CR, RCC_CR_HSIRDY) != 0U)
 8005c3a:	e008      	b.n	8005c4e <HAL_RCC_OscConfig+0x1f2>
        {
          if ((HAL_GetTick() - tickstart) > HSI_TIMEOUT_VALUE)
 8005c3c:	f7fd f97c 	bl	8002f38 <HAL_GetTick>
 8005c40:	4602      	mov	r2, r0
 8005c42:	693b      	ldr	r3, [r7, #16]
 8005c44:	1ad3      	subs	r3, r2, r3
 8005c46:	2b02      	cmp	r3, #2
 8005c48:	d901      	bls.n	8005c4e <HAL_RCC_OscConfig+0x1f2>
          {
            return HAL_TIMEOUT;
 8005c4a:	2303      	movs	r3, #3
 8005c4c:	e20e      	b.n	800606c <HAL_RCC_OscConfig+0x610>
        while (READ_BIT(RCC->CR, RCC_CR_HSIRDY) != 0U)
 8005c4e:	4b22      	ldr	r3, [pc, #136]	@ (8005cd8 <HAL_RCC_OscConfig+0x27c>)
 8005c50:	681b      	ldr	r3, [r3, #0]
 8005c52:	f403 6380 	and.w	r3, r3, #1024	@ 0x400
 8005c56:	2b00      	cmp	r3, #0
 8005c58:	d1f0      	bne.n	8005c3c <HAL_RCC_OscConfig+0x1e0>
 8005c5a:	e000      	b.n	8005c5e <HAL_RCC_OscConfig+0x202>
      if ((READ_BIT(RCC->CR, RCC_CR_HSIRDY) != 0U) && (RCC_OscInitStruct->HSIState == RCC_HSI_OFF))
 8005c5c:	bf00      	nop
        }
      }
    }
  }
  /*------------------------------ LSI Configuration -------------------------*/
  if (((RCC_OscInitStruct->OscillatorType) & RCC_OSCILLATORTYPE_LSI) == RCC_OSCILLATORTYPE_LSI)
 8005c5e:	687b      	ldr	r3, [r7, #4]
 8005c60:	681b      	ldr	r3, [r3, #0]
 8005c62:	f003 0308 	and.w	r3, r3, #8
 8005c66:	2b00      	cmp	r3, #0
 8005c68:	d041      	beq.n	8005cee <HAL_RCC_OscConfig+0x292>
  {
    /* Check the parameters */
    assert_param(IS_RCC_LSI(RCC_OscInitStruct->LSIState));

    /* Check the LSI State */
    if(RCC_OscInitStruct->LSIState != RCC_LSI_OFF)
 8005c6a:	687b      	ldr	r3, [r7, #4]
 8005c6c:	695b      	ldr	r3, [r3, #20]
 8005c6e:	2b00      	cmp	r3, #0
 8005c70:	d01c      	beq.n	8005cac <HAL_RCC_OscConfig+0x250>
    {
      /* Enable the Internal Low Speed oscillator (LSI). */
      __HAL_RCC_LSI_ENABLE();
 8005c72:	4b19      	ldr	r3, [pc, #100]	@ (8005cd8 <HAL_RCC_OscConfig+0x27c>)
 8005c74:	f8d3 3094 	ldr.w	r3, [r3, #148]	@ 0x94
 8005c78:	4a17      	ldr	r2, [pc, #92]	@ (8005cd8 <HAL_RCC_OscConfig+0x27c>)
 8005c7a:	f043 0301 	orr.w	r3, r3, #1
 8005c7e:	f8c2 3094 	str.w	r3, [r2, #148]	@ 0x94

      /* Get Start Tick*/
      tickstart = HAL_GetTick();
 8005c82:	f7fd f959 	bl	8002f38 <HAL_GetTick>
 8005c86:	6138      	str	r0, [r7, #16]

      /* Wait till LSI is ready */
      while (READ_BIT(RCC->CSR, RCC_CSR_LSIRDY) == 0U)
 8005c88:	e008      	b.n	8005c9c <HAL_RCC_OscConfig+0x240>
      {
        if ((HAL_GetTick() - tickstart) > LSI_TIMEOUT_VALUE)
 8005c8a:	f7fd f955 	bl	8002f38 <HAL_GetTick>
 8005c8e:	4602      	mov	r2, r0
 8005c90:	693b      	ldr	r3, [r7, #16]
 8005c92:	1ad3      	subs	r3, r2, r3
 8005c94:	2b02      	cmp	r3, #2
 8005c96:	d901      	bls.n	8005c9c <HAL_RCC_OscConfig+0x240>
        {
          return HAL_TIMEOUT;
 8005c98:	2303      	movs	r3, #3
 8005c9a:	e1e7      	b.n	800606c <HAL_RCC_OscConfig+0x610>
      while (READ_BIT(RCC->CSR, RCC_CSR_LSIRDY) == 0U)
 8005c9c:	4b0e      	ldr	r3, [pc, #56]	@ (8005cd8 <HAL_RCC_OscConfig+0x27c>)
 8005c9e:	f8d3 3094 	ldr.w	r3, [r3, #148]	@ 0x94
 8005ca2:	f003 0302 	and.w	r3, r3, #2
 8005ca6:	2b00      	cmp	r3, #0
 8005ca8:	d0ef      	beq.n	8005c8a <HAL_RCC_OscConfig+0x22e>
 8005caa:	e020      	b.n	8005cee <HAL_RCC_OscConfig+0x292>
      }
    }
    else
    {
      /* Disable the Internal Low Speed oscillator (LSI). */
      __HAL_RCC_LSI_DISABLE();
 8005cac:	4b0a      	ldr	r3, [pc, #40]	@ (8005cd8 <HAL_RCC_OscConfig+0x27c>)
 8005cae:	f8d3 3094 	ldr.w	r3, [r3, #148]	@ 0x94
 8005cb2:	4a09      	ldr	r2, [pc, #36]	@ (8005cd8 <HAL_RCC_OscConfig+0x27c>)
 8005cb4:	f023 0301 	bic.w	r3, r3, #1
 8005cb8:	f8c2 3094 	str.w	r3, [r2, #148]	@ 0x94

      /* Get Start Tick*/
      tickstart = HAL_GetTick();
 8005cbc:	f7fd f93c 	bl	8002f38 <HAL_GetTick>
 8005cc0:	6138      	str	r0, [r7, #16]

      /* Wait till LSI is disabled */
      while(READ_BIT(RCC->CSR, RCC_CSR_LSIRDY) != 0U)
 8005cc2:	e00d      	b.n	8005ce0 <HAL_RCC_OscConfig+0x284>
      {
        if((HAL_GetTick() - tickstart) > LSI_TIMEOUT_VALUE)
 8005cc4:	f7fd f938 	bl	8002f38 <HAL_GetTick>
 8005cc8:	4602      	mov	r2, r0
 8005cca:	693b      	ldr	r3, [r7, #16]
 8005ccc:	1ad3      	subs	r3, r2, r3
 8005cce:	2b02      	cmp	r3, #2
 8005cd0:	d906      	bls.n	8005ce0 <HAL_RCC_OscConfig+0x284>
        {
          return HAL_TIMEOUT;
 8005cd2:	2303      	movs	r3, #3
 8005cd4:	e1ca      	b.n	800606c <HAL_RCC_OscConfig+0x610>
 8005cd6:	bf00      	nop
 8005cd8:	40021000 	.word	0x40021000
 8005cdc:	2000000c 	.word	0x2000000c
      while(READ_BIT(RCC->CSR, RCC_CSR_LSIRDY) != 0U)
 8005ce0:	4b8c      	ldr	r3, [pc, #560]	@ (8005f14 <HAL_RCC_OscConfig+0x4b8>)
 8005ce2:	f8d3 3094 	ldr.w	r3, [r3, #148]	@ 0x94
 8005ce6:	f003 0302 	and.w	r3, r3, #2
 8005cea:	2b00      	cmp	r3, #0
 8005cec:	d1ea      	bne.n	8005cc4 <HAL_RCC_OscConfig+0x268>
        }
      }
    }
  }
  /*------------------------------ LSE Configuration -------------------------*/
  if (((RCC_OscInitStruct->OscillatorType) & RCC_OSCILLATORTYPE_LSE) == RCC_OSCILLATORTYPE_LSE)
 8005cee:	687b      	ldr	r3, [r7, #4]
 8005cf0:	681b      	ldr	r3, [r3, #0]
 8005cf2:	f003 0304 	and.w	r3, r3, #4
 8005cf6:	2b00      	cmp	r3, #0
 8005cf8:	f000 80a6 	beq.w	8005e48 <HAL_RCC_OscConfig+0x3ec>
  {
    FlagStatus       pwrclkchanged = RESET;
 8005cfc:	2300      	movs	r3, #0
 8005cfe:	77fb      	strb	r3, [r7, #31]
    /* Check the parameters */
    assert_param(IS_RCC_LSE(RCC_OscInitStruct->LSEState));

    /* Update LSE configuration in Backup Domain control register    */
    /* Requires to enable write access to Backup Domain if necessary */
    if (__HAL_RCC_PWR_IS_CLK_DISABLED() != 0U)
 8005d00:	4b84      	ldr	r3, [pc, #528]	@ (8005f14 <HAL_RCC_OscConfig+0x4b8>)
 8005d02:	6d9b      	ldr	r3, [r3, #88]	@ 0x58
 8005d04:	f003 5380 	and.w	r3, r3, #268435456	@ 0x10000000
 8005d08:	2b00      	cmp	r3, #0
 8005d0a:	d101      	bne.n	8005d10 <HAL_RCC_OscConfig+0x2b4>
 8005d0c:	2301      	movs	r3, #1
 8005d0e:	e000      	b.n	8005d12 <HAL_RCC_OscConfig+0x2b6>
 8005d10:	2300      	movs	r3, #0
 8005d12:	2b00      	cmp	r3, #0
 8005d14:	d00d      	beq.n	8005d32 <HAL_RCC_OscConfig+0x2d6>
    {
      __HAL_RCC_PWR_CLK_ENABLE();
 8005d16:	4b7f      	ldr	r3, [pc, #508]	@ (8005f14 <HAL_RCC_OscConfig+0x4b8>)
 8005d18:	6d9b      	ldr	r3, [r3, #88]	@ 0x58
 8005d1a:	4a7e      	ldr	r2, [pc, #504]	@ (8005f14 <HAL_RCC_OscConfig+0x4b8>)
 8005d1c:	f043 5380 	orr.w	r3, r3, #268435456	@ 0x10000000
 8005d20:	6593      	str	r3, [r2, #88]	@ 0x58
 8005d22:	4b7c      	ldr	r3, [pc, #496]	@ (8005f14 <HAL_RCC_OscConfig+0x4b8>)
 8005d24:	6d9b      	ldr	r3, [r3, #88]	@ 0x58
 8005d26:	f003 5380 	and.w	r3, r3, #268435456	@ 0x10000000
 8005d2a:	60fb      	str	r3, [r7, #12]
 8005d2c:	68fb      	ldr	r3, [r7, #12]
      pwrclkchanged = SET;
 8005d2e:	2301      	movs	r3, #1
 8005d30:	77fb      	strb	r3, [r7, #31]
    }

    if (HAL_IS_BIT_CLR(PWR->CR1, PWR_CR1_DBP))
 8005d32:	4b79      	ldr	r3, [pc, #484]	@ (8005f18 <HAL_RCC_OscConfig+0x4bc>)
 8005d34:	681b      	ldr	r3, [r3, #0]
 8005d36:	f403 7380 	and.w	r3, r3, #256	@ 0x100
 8005d3a:	2b00      	cmp	r3, #0
 8005d3c:	d118      	bne.n	8005d70 <HAL_RCC_OscConfig+0x314>
    {
      /* Enable write access to Backup domain */
      SET_BIT(PWR->CR1, PWR_CR1_DBP);
 8005d3e:	4b76      	ldr	r3, [pc, #472]	@ (8005f18 <HAL_RCC_OscConfig+0x4bc>)
 8005d40:	681b      	ldr	r3, [r3, #0]
 8005d42:	4a75      	ldr	r2, [pc, #468]	@ (8005f18 <HAL_RCC_OscConfig+0x4bc>)
 8005d44:	f443 7380 	orr.w	r3, r3, #256	@ 0x100
 8005d48:	6013      	str	r3, [r2, #0]

      /* Wait for Backup domain Write protection disable */
      tickstart = HAL_GetTick();
 8005d4a:	f7fd f8f5 	bl	8002f38 <HAL_GetTick>
 8005d4e:	6138      	str	r0, [r7, #16]

      while (HAL_IS_BIT_CLR(PWR->CR1, PWR_CR1_DBP))
 8005d50:	e008      	b.n	8005d64 <HAL_RCC_OscConfig+0x308>
      {
        if ((HAL_GetTick() - tickstart) > RCC_DBP_TIMEOUT_VALUE)
 8005d52:	f7fd f8f1 	bl	8002f38 <HAL_GetTick>
 8005d56:	4602      	mov	r2, r0
 8005d58:	693b      	ldr	r3, [r7, #16]
 8005d5a:	1ad3      	subs	r3, r2, r3
 8005d5c:	2b02      	cmp	r3, #2
 8005d5e:	d901      	bls.n	8005d64 <HAL_RCC_OscConfig+0x308>
        {
          return HAL_TIMEOUT;
 8005d60:	2303      	movs	r3, #3
 8005d62:	e183      	b.n	800606c <HAL_RCC_OscConfig+0x610>
      while (HAL_IS_BIT_CLR(PWR->CR1, PWR_CR1_DBP))
 8005d64:	4b6c      	ldr	r3, [pc, #432]	@ (8005f18 <HAL_RCC_OscConfig+0x4bc>)
 8005d66:	681b      	ldr	r3, [r3, #0]
 8005d68:	f403 7380 	and.w	r3, r3, #256	@ 0x100
 8005d6c:	2b00      	cmp	r3, #0
 8005d6e:	d0f0      	beq.n	8005d52 <HAL_RCC_OscConfig+0x2f6>
        }
      }
    }

    /* Set the new LSE configuration -----------------------------------------*/
    __HAL_RCC_LSE_CONFIG(RCC_OscInitStruct->LSEState);
 8005d70:	687b      	ldr	r3, [r7, #4]
 8005d72:	689b      	ldr	r3, [r3, #8]
 8005d74:	2b01      	cmp	r3, #1
 8005d76:	d108      	bne.n	8005d8a <HAL_RCC_OscConfig+0x32e>
 8005d78:	4b66      	ldr	r3, [pc, #408]	@ (8005f14 <HAL_RCC_OscConfig+0x4b8>)
 8005d7a:	f8d3 3090 	ldr.w	r3, [r3, #144]	@ 0x90
 8005d7e:	4a65      	ldr	r2, [pc, #404]	@ (8005f14 <HAL_RCC_OscConfig+0x4b8>)
 8005d80:	f043 0301 	orr.w	r3, r3, #1
 8005d84:	f8c2 3090 	str.w	r3, [r2, #144]	@ 0x90
 8005d88:	e024      	b.n	8005dd4 <HAL_RCC_OscConfig+0x378>
 8005d8a:	687b      	ldr	r3, [r7, #4]
 8005d8c:	689b      	ldr	r3, [r3, #8]
 8005d8e:	2b05      	cmp	r3, #5
 8005d90:	d110      	bne.n	8005db4 <HAL_RCC_OscConfig+0x358>
 8005d92:	4b60      	ldr	r3, [pc, #384]	@ (8005f14 <HAL_RCC_OscConfig+0x4b8>)
 8005d94:	f8d3 3090 	ldr.w	r3, [r3, #144]	@ 0x90
 8005d98:	4a5e      	ldr	r2, [pc, #376]	@ (8005f14 <HAL_RCC_OscConfig+0x4b8>)
 8005d9a:	f043 0304 	orr.w	r3, r3, #4
 8005d9e:	f8c2 3090 	str.w	r3, [r2, #144]	@ 0x90
 8005da2:	4b5c      	ldr	r3, [pc, #368]	@ (8005f14 <HAL_RCC_OscConfig+0x4b8>)
 8005da4:	f8d3 3090 	ldr.w	r3, [r3, #144]	@ 0x90
 8005da8:	4a5a      	ldr	r2, [pc, #360]	@ (8005f14 <HAL_RCC_OscConfig+0x4b8>)
 8005daa:	f043 0301 	orr.w	r3, r3, #1
 8005dae:	f8c2 3090 	str.w	r3, [r2, #144]	@ 0x90
 8005db2:	e00f      	b.n	8005dd4 <HAL_RCC_OscConfig+0x378>
 8005db4:	4b57      	ldr	r3, [pc, #348]	@ (8005f14 <HAL_RCC_OscConfig+0x4b8>)
 8005db6:	f8d3 3090 	ldr.w	r3, [r3, #144]	@ 0x90
 8005dba:	4a56      	ldr	r2, [pc, #344]	@ (8005f14 <HAL_RCC_OscConfig+0x4b8>)
 8005dbc:	f023 0301 	bic.w	r3, r3, #1
 8005dc0:	f8c2 3090 	str.w	r3, [r2, #144]	@ 0x90
 8005dc4:	4b53      	ldr	r3, [pc, #332]	@ (8005f14 <HAL_RCC_OscConfig+0x4b8>)
 8005dc6:	f8d3 3090 	ldr.w	r3, [r3, #144]	@ 0x90
 8005dca:	4a52      	ldr	r2, [pc, #328]	@ (8005f14 <HAL_RCC_OscConfig+0x4b8>)
 8005dcc:	f023 0304 	bic.w	r3, r3, #4
 8005dd0:	f8c2 3090 	str.w	r3, [r2, #144]	@ 0x90

    /* Check the LSE State */
    if (RCC_OscInitStruct->LSEState != RCC_LSE_OFF)
 8005dd4:	687b      	ldr	r3, [r7, #4]
 8005dd6:	689b      	ldr	r3, [r3, #8]
 8005dd8:	2b00      	cmp	r3, #0
 8005dda:	d016      	beq.n	8005e0a <HAL_RCC_OscConfig+0x3ae>
    {
      /* Get Start Tick*/
      tickstart = HAL_GetTick();
 8005ddc:	f7fd f8ac 	bl	8002f38 <HAL_GetTick>
 8005de0:	6138      	str	r0, [r7, #16]

      /* Wait till LSE is ready */
      while (READ_BIT(RCC->BDCR, RCC_BDCR_LSERDY) == 0U)
 8005de2:	e00a      	b.n	8005dfa <HAL_RCC_OscConfig+0x39e>
      {
        if((HAL_GetTick() - tickstart) > RCC_LSE_TIMEOUT_VALUE)
 8005de4:	f7fd f8a8 	bl	8002f38 <HAL_GetTick>
 8005de8:	4602      	mov	r2, r0
 8005dea:	693b      	ldr	r3, [r7, #16]
 8005dec:	1ad3      	subs	r3, r2, r3
 8005dee:	f241 3288 	movw	r2, #5000	@ 0x1388
 8005df2:	4293      	cmp	r3, r2
 8005df4:	d901      	bls.n	8005dfa <HAL_RCC_OscConfig+0x39e>
        {
          return HAL_TIMEOUT;
 8005df6:	2303      	movs	r3, #3
 8005df8:	e138      	b.n	800606c <HAL_RCC_OscConfig+0x610>
      while (READ_BIT(RCC->BDCR, RCC_BDCR_LSERDY) == 0U)
 8005dfa:	4b46      	ldr	r3, [pc, #280]	@ (8005f14 <HAL_RCC_OscConfig+0x4b8>)
 8005dfc:	f8d3 3090 	ldr.w	r3, [r3, #144]	@ 0x90
 8005e00:	f003 0302 	and.w	r3, r3, #2
 8005e04:	2b00      	cmp	r3, #0
 8005e06:	d0ed      	beq.n	8005de4 <HAL_RCC_OscConfig+0x388>
 8005e08:	e015      	b.n	8005e36 <HAL_RCC_OscConfig+0x3da>
      }
    }
    else
    {
      /* Get Start Tick*/
      tickstart = HAL_GetTick();
 8005e0a:	f7fd f895 	bl	8002f38 <HAL_GetTick>
 8005e0e:	6138      	str	r0, [r7, #16]

      /* Wait till LSE is disabled */
      while (READ_BIT(RCC->BDCR, RCC_BDCR_LSERDY) != 0U)
 8005e10:	e00a      	b.n	8005e28 <HAL_RCC_OscConfig+0x3cc>
      {
        if((HAL_GetTick() - tickstart) > RCC_LSE_TIMEOUT_VALUE)
 8005e12:	f7fd f891 	bl	8002f38 <HAL_GetTick>
 8005e16:	4602      	mov	r2, r0
 8005e18:	693b      	ldr	r3, [r7, #16]
 8005e1a:	1ad3      	subs	r3, r2, r3
 8005e1c:	f241 3288 	movw	r2, #5000	@ 0x1388
 8005e20:	4293      	cmp	r3, r2
 8005e22:	d901      	bls.n	8005e28 <HAL_RCC_OscConfig+0x3cc>
        {
          return HAL_TIMEOUT;
 8005e24:	2303      	movs	r3, #3
 8005e26:	e121      	b.n	800606c <HAL_RCC_OscConfig+0x610>
      while (READ_BIT(RCC->BDCR, RCC_BDCR_LSERDY) != 0U)
 8005e28:	4b3a      	ldr	r3, [pc, #232]	@ (8005f14 <HAL_RCC_OscConfig+0x4b8>)
 8005e2a:	f8d3 3090 	ldr.w	r3, [r3, #144]	@ 0x90
 8005e2e:	f003 0302 	and.w	r3, r3, #2
 8005e32:	2b00      	cmp	r3, #0
 8005e34:	d1ed      	bne.n	8005e12 <HAL_RCC_OscConfig+0x3b6>
        }
      }
    }

    /* Restore clock configuration if changed */
    if (pwrclkchanged == SET)
 8005e36:	7ffb      	ldrb	r3, [r7, #31]
 8005e38:	2b01      	cmp	r3, #1
 8005e3a:	d105      	bne.n	8005e48 <HAL_RCC_OscConfig+0x3ec>
    {
      __HAL_RCC_PWR_CLK_DISABLE();
 8005e3c:	4b35      	ldr	r3, [pc, #212]	@ (8005f14 <HAL_RCC_OscConfig+0x4b8>)
 8005e3e:	6d9b      	ldr	r3, [r3, #88]	@ 0x58
 8005e40:	4a34      	ldr	r2, [pc, #208]	@ (8005f14 <HAL_RCC_OscConfig+0x4b8>)
 8005e42:	f023 5380 	bic.w	r3, r3, #268435456	@ 0x10000000
 8005e46:	6593      	str	r3, [r2, #88]	@ 0x58
    }
  }

  /*------------------------------ HSI48 Configuration -----------------------*/
  if(((RCC_OscInitStruct->OscillatorType) & RCC_OSCILLATORTYPE_HSI48) == RCC_OSCILLATORTYPE_HSI48)
 8005e48:	687b      	ldr	r3, [r7, #4]
 8005e4a:	681b      	ldr	r3, [r3, #0]
 8005e4c:	f003 0320 	and.w	r3, r3, #32
 8005e50:	2b00      	cmp	r3, #0
 8005e52:	d03c      	beq.n	8005ece <HAL_RCC_OscConfig+0x472>
  {
    /* Check the parameters */
    assert_param(IS_RCC_HSI48(RCC_OscInitStruct->HSI48State));

    /* Check the HSI48 State */
    if(RCC_OscInitStruct->HSI48State != RCC_HSI48_OFF)
 8005e54:	687b      	ldr	r3, [r7, #4]
 8005e56:	699b      	ldr	r3, [r3, #24]
 8005e58:	2b00      	cmp	r3, #0
 8005e5a:	d01c      	beq.n	8005e96 <HAL_RCC_OscConfig+0x43a>
    {
      /* Enable the Internal Low Speed oscillator (HSI48). */
      __HAL_RCC_HSI48_ENABLE();
 8005e5c:	4b2d      	ldr	r3, [pc, #180]	@ (8005f14 <HAL_RCC_OscConfig+0x4b8>)
 8005e5e:	f8d3 3098 	ldr.w	r3, [r3, #152]	@ 0x98
 8005e62:	4a2c      	ldr	r2, [pc, #176]	@ (8005f14 <HAL_RCC_OscConfig+0x4b8>)
 8005e64:	f043 0301 	orr.w	r3, r3, #1
 8005e68:	f8c2 3098 	str.w	r3, [r2, #152]	@ 0x98

      /* Get Start Tick*/
      tickstart = HAL_GetTick();
 8005e6c:	f7fd f864 	bl	8002f38 <HAL_GetTick>
 8005e70:	6138      	str	r0, [r7, #16]

      /* Wait till HSI48 is ready */
      while(READ_BIT(RCC->CRRCR, RCC_CRRCR_HSI48RDY) == 0U)
 8005e72:	e008      	b.n	8005e86 <HAL_RCC_OscConfig+0x42a>
      {
        if((HAL_GetTick() - tickstart) > HSI48_TIMEOUT_VALUE)
 8005e74:	f7fd f860 	bl	8002f38 <HAL_GetTick>
 8005e78:	4602      	mov	r2, r0
 8005e7a:	693b      	ldr	r3, [r7, #16]
 8005e7c:	1ad3      	subs	r3, r2, r3
 8005e7e:	2b02      	cmp	r3, #2
 8005e80:	d901      	bls.n	8005e86 <HAL_RCC_OscConfig+0x42a>
        {
          return HAL_TIMEOUT;
 8005e82:	2303      	movs	r3, #3
 8005e84:	e0f2      	b.n	800606c <HAL_RCC_OscConfig+0x610>
      while(READ_BIT(RCC->CRRCR, RCC_CRRCR_HSI48RDY) == 0U)
 8005e86:	4b23      	ldr	r3, [pc, #140]	@ (8005f14 <HAL_RCC_OscConfig+0x4b8>)
 8005e88:	f8d3 3098 	ldr.w	r3, [r3, #152]	@ 0x98
 8005e8c:	f003 0302 	and.w	r3, r3, #2
 8005e90:	2b00      	cmp	r3, #0
 8005e92:	d0ef      	beq.n	8005e74 <HAL_RCC_OscConfig+0x418>
 8005e94:	e01b      	b.n	8005ece <HAL_RCC_OscConfig+0x472>
      }
    }
    else
    {
      /* Disable the Internal Low Speed oscillator (HSI48). */
      __HAL_RCC_HSI48_DISABLE();
 8005e96:	4b1f      	ldr	r3, [pc, #124]	@ (8005f14 <HAL_RCC_OscConfig+0x4b8>)
 8005e98:	f8d3 3098 	ldr.w	r3, [r3, #152]	@ 0x98
 8005e9c:	4a1d      	ldr	r2, [pc, #116]	@ (8005f14 <HAL_RCC_OscConfig+0x4b8>)
 8005e9e:	f023 0301 	bic.w	r3, r3, #1
 8005ea2:	f8c2 3098 	str.w	r3, [r2, #152]	@ 0x98

      /* Get Start Tick*/
      tickstart = HAL_GetTick();
 8005ea6:	f7fd f847 	bl	8002f38 <HAL_GetTick>
 8005eaa:	6138      	str	r0, [r7, #16]

      /* Wait till HSI48 is disabled */
      while(READ_BIT(RCC->CRRCR, RCC_CRRCR_HSI48RDY) != 0U)
 8005eac:	e008      	b.n	8005ec0 <HAL_RCC_OscConfig+0x464>
      {
        if((HAL_GetTick() - tickstart) > HSI48_TIMEOUT_VALUE)
 8005eae:	f7fd f843 	bl	8002f38 <HAL_GetTick>
 8005eb2:	4602      	mov	r2, r0
 8005eb4:	693b      	ldr	r3, [r7, #16]
 8005eb6:	1ad3      	subs	r3, r2, r3
 8005eb8:	2b02      	cmp	r3, #2
 8005eba:	d901      	bls.n	8005ec0 <HAL_RCC_OscConfig+0x464>
        {
          return HAL_TIMEOUT;
 8005ebc:	2303      	movs	r3, #3
 8005ebe:	e0d5      	b.n	800606c <HAL_RCC_OscConfig+0x610>
      while(READ_BIT(RCC->CRRCR, RCC_CRRCR_HSI48RDY) != 0U)
 8005ec0:	4b14      	ldr	r3, [pc, #80]	@ (8005f14 <HAL_RCC_OscConfig+0x4b8>)
 8005ec2:	f8d3 3098 	ldr.w	r3, [r3, #152]	@ 0x98
 8005ec6:	f003 0302 	and.w	r3, r3, #2
 8005eca:	2b00      	cmp	r3, #0
 8005ecc:	d1ef      	bne.n	8005eae <HAL_RCC_OscConfig+0x452>

  /*-------------------------------- PLL Configuration -----------------------*/
  /* Check the parameters */
  assert_param(IS_RCC_PLL(RCC_OscInitStruct->PLL.PLLState));

  if (RCC_OscInitStruct->PLL.PLLState != RCC_PLL_NONE)
 8005ece:	687b      	ldr	r3, [r7, #4]
 8005ed0:	69db      	ldr	r3, [r3, #28]
 8005ed2:	2b00      	cmp	r3, #0
 8005ed4:	f000 80c9 	beq.w	800606a <HAL_RCC_OscConfig+0x60e>
  {
    /* Check if the PLL is used as system clock or not */
    if (__HAL_RCC_GET_SYSCLK_SOURCE() != RCC_CFGR_SWS_PLL)
 8005ed8:	4b0e      	ldr	r3, [pc, #56]	@ (8005f14 <HAL_RCC_OscConfig+0x4b8>)
 8005eda:	689b      	ldr	r3, [r3, #8]
 8005edc:	f003 030c 	and.w	r3, r3, #12
 8005ee0:	2b0c      	cmp	r3, #12
 8005ee2:	f000 8083 	beq.w	8005fec <HAL_RCC_OscConfig+0x590>
    {
      if (RCC_OscInitStruct->PLL.PLLState == RCC_PLL_ON)
 8005ee6:	687b      	ldr	r3, [r7, #4]
 8005ee8:	69db      	ldr	r3, [r3, #28]
 8005eea:	2b02      	cmp	r3, #2
 8005eec:	d15e      	bne.n	8005fac <HAL_RCC_OscConfig+0x550>
        assert_param(IS_RCC_PLLP_VALUE(RCC_OscInitStruct->PLL.PLLP));
        assert_param(IS_RCC_PLLQ_VALUE(RCC_OscInitStruct->PLL.PLLQ));
        assert_param(IS_RCC_PLLR_VALUE(RCC_OscInitStruct->PLL.PLLR));

        /* Disable the main PLL. */
        __HAL_RCC_PLL_DISABLE();
 8005eee:	4b09      	ldr	r3, [pc, #36]	@ (8005f14 <HAL_RCC_OscConfig+0x4b8>)
 8005ef0:	681b      	ldr	r3, [r3, #0]
 8005ef2:	4a08      	ldr	r2, [pc, #32]	@ (8005f14 <HAL_RCC_OscConfig+0x4b8>)
 8005ef4:	f023 7380 	bic.w	r3, r3, #16777216	@ 0x1000000
 8005ef8:	6013      	str	r3, [r2, #0]

        /* Get Start Tick*/
        tickstart = HAL_GetTick();
 8005efa:	f7fd f81d 	bl	8002f38 <HAL_GetTick>
 8005efe:	6138      	str	r0, [r7, #16]

        /* Wait till PLL is disabled */
        while (READ_BIT(RCC->CR, RCC_CR_PLLRDY) != 0U)
 8005f00:	e00c      	b.n	8005f1c <HAL_RCC_OscConfig+0x4c0>
        {
          if ((HAL_GetTick() - tickstart) > PLL_TIMEOUT_VALUE)
 8005f02:	f7fd f819 	bl	8002f38 <HAL_GetTick>
 8005f06:	4602      	mov	r2, r0
 8005f08:	693b      	ldr	r3, [r7, #16]
 8005f0a:	1ad3      	subs	r3, r2, r3
 8005f0c:	2b02      	cmp	r3, #2
 8005f0e:	d905      	bls.n	8005f1c <HAL_RCC_OscConfig+0x4c0>
          {
            return HAL_TIMEOUT;
 8005f10:	2303      	movs	r3, #3
 8005f12:	e0ab      	b.n	800606c <HAL_RCC_OscConfig+0x610>
 8005f14:	40021000 	.word	0x40021000
 8005f18:	40007000 	.word	0x40007000
        while (READ_BIT(RCC->CR, RCC_CR_PLLRDY) != 0U)
 8005f1c:	4b55      	ldr	r3, [pc, #340]	@ (8006074 <HAL_RCC_OscConfig+0x618>)
 8005f1e:	681b      	ldr	r3, [r3, #0]
 8005f20:	f003 7300 	and.w	r3, r3, #33554432	@ 0x2000000
 8005f24:	2b00      	cmp	r3, #0
 8005f26:	d1ec      	bne.n	8005f02 <HAL_RCC_OscConfig+0x4a6>
          }
        }

        /* Configure the main PLL clock source, multiplication and division factors. */
        __HAL_RCC_PLL_CONFIG(RCC_OscInitStruct->PLL.PLLSource,
 8005f28:	4b52      	ldr	r3, [pc, #328]	@ (8006074 <HAL_RCC_OscConfig+0x618>)
 8005f2a:	68da      	ldr	r2, [r3, #12]
 8005f2c:	4b52      	ldr	r3, [pc, #328]	@ (8006078 <HAL_RCC_OscConfig+0x61c>)
 8005f2e:	4013      	ands	r3, r2
 8005f30:	687a      	ldr	r2, [r7, #4]
 8005f32:	6a11      	ldr	r1, [r2, #32]
 8005f34:	687a      	ldr	r2, [r7, #4]
 8005f36:	6a52      	ldr	r2, [r2, #36]	@ 0x24
 8005f38:	3a01      	subs	r2, #1
 8005f3a:	0112      	lsls	r2, r2, #4
 8005f3c:	4311      	orrs	r1, r2
 8005f3e:	687a      	ldr	r2, [r7, #4]
 8005f40:	6a92      	ldr	r2, [r2, #40]	@ 0x28
 8005f42:	0212      	lsls	r2, r2, #8
 8005f44:	4311      	orrs	r1, r2
 8005f46:	687a      	ldr	r2, [r7, #4]
 8005f48:	6b12      	ldr	r2, [r2, #48]	@ 0x30
 8005f4a:	0852      	lsrs	r2, r2, #1
 8005f4c:	3a01      	subs	r2, #1
 8005f4e:	0552      	lsls	r2, r2, #21
 8005f50:	4311      	orrs	r1, r2
 8005f52:	687a      	ldr	r2, [r7, #4]
 8005f54:	6b52      	ldr	r2, [r2, #52]	@ 0x34
 8005f56:	0852      	lsrs	r2, r2, #1
 8005f58:	3a01      	subs	r2, #1
 8005f5a:	0652      	lsls	r2, r2, #25
 8005f5c:	4311      	orrs	r1, r2
 8005f5e:	687a      	ldr	r2, [r7, #4]
 8005f60:	6ad2      	ldr	r2, [r2, #44]	@ 0x2c
 8005f62:	06d2      	lsls	r2, r2, #27
 8005f64:	430a      	orrs	r2, r1
 8005f66:	4943      	ldr	r1, [pc, #268]	@ (8006074 <HAL_RCC_OscConfig+0x618>)
 8005f68:	4313      	orrs	r3, r2
 8005f6a:	60cb      	str	r3, [r1, #12]
                             RCC_OscInitStruct->PLL.PLLP,
                             RCC_OscInitStruct->PLL.PLLQ,
                             RCC_OscInitStruct->PLL.PLLR);

        /* Enable the main PLL. */
        __HAL_RCC_PLL_ENABLE();
 8005f6c:	4b41      	ldr	r3, [pc, #260]	@ (8006074 <HAL_RCC_OscConfig+0x618>)
 8005f6e:	681b      	ldr	r3, [r3, #0]
 8005f70:	4a40      	ldr	r2, [pc, #256]	@ (8006074 <HAL_RCC_OscConfig+0x618>)
 8005f72:	f043 7380 	orr.w	r3, r3, #16777216	@ 0x1000000
 8005f76:	6013      	str	r3, [r2, #0]

        /* Enable PLL System Clock output. */
         __HAL_RCC_PLLCLKOUT_ENABLE(RCC_PLL_SYSCLK);
 8005f78:	4b3e      	ldr	r3, [pc, #248]	@ (8006074 <HAL_RCC_OscConfig+0x618>)
 8005f7a:	68db      	ldr	r3, [r3, #12]
 8005f7c:	4a3d      	ldr	r2, [pc, #244]	@ (8006074 <HAL_RCC_OscConfig+0x618>)
 8005f7e:	f043 7380 	orr.w	r3, r3, #16777216	@ 0x1000000
 8005f82:	60d3      	str	r3, [r2, #12]

        /* Get Start Tick*/
        tickstart = HAL_GetTick();
 8005f84:	f7fc ffd8 	bl	8002f38 <HAL_GetTick>
 8005f88:	6138      	str	r0, [r7, #16]

        /* Wait till PLL is ready */
        while (READ_BIT(RCC->CR, RCC_CR_PLLRDY) == 0U)
 8005f8a:	e008      	b.n	8005f9e <HAL_RCC_OscConfig+0x542>
        {
          if ((HAL_GetTick() - tickstart) > PLL_TIMEOUT_VALUE)
 8005f8c:	f7fc ffd4 	bl	8002f38 <HAL_GetTick>
 8005f90:	4602      	mov	r2, r0
 8005f92:	693b      	ldr	r3, [r7, #16]
 8005f94:	1ad3      	subs	r3, r2, r3
 8005f96:	2b02      	cmp	r3, #2
 8005f98:	d901      	bls.n	8005f9e <HAL_RCC_OscConfig+0x542>
          {
            return HAL_TIMEOUT;
 8005f9a:	2303      	movs	r3, #3
 8005f9c:	e066      	b.n	800606c <HAL_RCC_OscConfig+0x610>
        while (READ_BIT(RCC->CR, RCC_CR_PLLRDY) == 0U)
 8005f9e:	4b35      	ldr	r3, [pc, #212]	@ (8006074 <HAL_RCC_OscConfig+0x618>)
 8005fa0:	681b      	ldr	r3, [r3, #0]
 8005fa2:	f003 7300 	and.w	r3, r3, #33554432	@ 0x2000000
 8005fa6:	2b00      	cmp	r3, #0
 8005fa8:	d0f0      	beq.n	8005f8c <HAL_RCC_OscConfig+0x530>
 8005faa:	e05e      	b.n	800606a <HAL_RCC_OscConfig+0x60e>
        }
      }
      else
      {
        /* Disable the main PLL. */
        __HAL_RCC_PLL_DISABLE();
 8005fac:	4b31      	ldr	r3, [pc, #196]	@ (8006074 <HAL_RCC_OscConfig+0x618>)
 8005fae:	681b      	ldr	r3, [r3, #0]
 8005fb0:	4a30      	ldr	r2, [pc, #192]	@ (8006074 <HAL_RCC_OscConfig+0x618>)
 8005fb2:	f023 7380 	bic.w	r3, r3, #16777216	@ 0x1000000
 8005fb6:	6013      	str	r3, [r2, #0]

        /* Get Start Tick*/
        tickstart = HAL_GetTick();
 8005fb8:	f7fc ffbe 	bl	8002f38 <HAL_GetTick>
 8005fbc:	6138      	str	r0, [r7, #16]

        /* Wait till PLL is disabled */
        while (READ_BIT(RCC->CR, RCC_CR_PLLRDY) != 0U)
 8005fbe:	e008      	b.n	8005fd2 <HAL_RCC_OscConfig+0x576>
        {
          if ((HAL_GetTick() - tickstart) > PLL_TIMEOUT_VALUE)
 8005fc0:	f7fc ffba 	bl	8002f38 <HAL_GetTick>
 8005fc4:	4602      	mov	r2, r0
 8005fc6:	693b      	ldr	r3, [r7, #16]
 8005fc8:	1ad3      	subs	r3, r2, r3
 8005fca:	2b02      	cmp	r3, #2
 8005fcc:	d901      	bls.n	8005fd2 <HAL_RCC_OscConfig+0x576>
          {
            return HAL_TIMEOUT;
 8005fce:	2303      	movs	r3, #3
 8005fd0:	e04c      	b.n	800606c <HAL_RCC_OscConfig+0x610>
        while (READ_BIT(RCC->CR, RCC_CR_PLLRDY) != 0U)
 8005fd2:	4b28      	ldr	r3, [pc, #160]	@ (8006074 <HAL_RCC_OscConfig+0x618>)
 8005fd4:	681b      	ldr	r3, [r3, #0]
 8005fd6:	f003 7300 	and.w	r3, r3, #33554432	@ 0x2000000
 8005fda:	2b00      	cmp	r3, #0
 8005fdc:	d1f0      	bne.n	8005fc0 <HAL_RCC_OscConfig+0x564>
          }
        }

        /* Unselect PLL clock source and disable outputs to save power */
        RCC->PLLCFGR &= ~(RCC_PLLCFGR_PLLSRC | RCC_PLL_SYSCLK | RCC_PLL_48M1CLK | RCC_PLL_ADCCLK);
 8005fde:	4b25      	ldr	r3, [pc, #148]	@ (8006074 <HAL_RCC_OscConfig+0x618>)
 8005fe0:	68da      	ldr	r2, [r3, #12]
 8005fe2:	4924      	ldr	r1, [pc, #144]	@ (8006074 <HAL_RCC_OscConfig+0x618>)
 8005fe4:	4b25      	ldr	r3, [pc, #148]	@ (800607c <HAL_RCC_OscConfig+0x620>)
 8005fe6:	4013      	ands	r3, r2
 8005fe8:	60cb      	str	r3, [r1, #12]
 8005fea:	e03e      	b.n	800606a <HAL_RCC_OscConfig+0x60e>
      }
    }
    else
    {
      /* Check if there is a request to disable the PLL used as System clock source */
      if((RCC_OscInitStruct->PLL.PLLState) == RCC_PLL_OFF)
 8005fec:	687b      	ldr	r3, [r7, #4]
 8005fee:	69db      	ldr	r3, [r3, #28]
 8005ff0:	2b01      	cmp	r3, #1
 8005ff2:	d101      	bne.n	8005ff8 <HAL_RCC_OscConfig+0x59c>
      {
        return HAL_ERROR;
 8005ff4:	2301      	movs	r3, #1
 8005ff6:	e039      	b.n	800606c <HAL_RCC_OscConfig+0x610>
      }
      else
      {
      /* Do not return HAL_ERROR if request repeats the current configuration */
      temp_pllckcfg = RCC->PLLCFGR;
 8005ff8:	4b1e      	ldr	r3, [pc, #120]	@ (8006074 <HAL_RCC_OscConfig+0x618>)
 8005ffa:	68db      	ldr	r3, [r3, #12]
 8005ffc:	617b      	str	r3, [r7, #20]
      if((READ_BIT(temp_pllckcfg, RCC_PLLCFGR_PLLSRC) != RCC_OscInitStruct->PLL.PLLSource) ||
 8005ffe:	697b      	ldr	r3, [r7, #20]
 8006000:	f003 0203 	and.w	r2, r3, #3
 8006004:	687b      	ldr	r3, [r7, #4]
 8006006:	6a1b      	ldr	r3, [r3, #32]
 8006008:	429a      	cmp	r2, r3
 800600a:	d12c      	bne.n	8006066 <HAL_RCC_OscConfig+0x60a>
         (READ_BIT(temp_pllckcfg, RCC_PLLCFGR_PLLM) != (((RCC_OscInitStruct->PLL.PLLM) - 1U) << RCC_PLLCFGR_PLLM_Pos)) ||
 800600c:	697b      	ldr	r3, [r7, #20]
 800600e:	f003 02f0 	and.w	r2, r3, #240	@ 0xf0
 8006012:	687b      	ldr	r3, [r7, #4]
 8006014:	6a5b      	ldr	r3, [r3, #36]	@ 0x24
 8006016:	3b01      	subs	r3, #1
 8006018:	011b      	lsls	r3, r3, #4
      if((READ_BIT(temp_pllckcfg, RCC_PLLCFGR_PLLSRC) != RCC_OscInitStruct->PLL.PLLSource) ||
 800601a:	429a      	cmp	r2, r3
 800601c:	d123      	bne.n	8006066 <HAL_RCC_OscConfig+0x60a>
         (READ_BIT(temp_pllckcfg, RCC_PLLCFGR_PLLN) != ((RCC_OscInitStruct->PLL.PLLN) << RCC_PLLCFGR_PLLN_Pos)) ||
 800601e:	697b      	ldr	r3, [r7, #20]
 8006020:	f403 42fe 	and.w	r2, r3, #32512	@ 0x7f00
 8006024:	687b      	ldr	r3, [r7, #4]
 8006026:	6a9b      	ldr	r3, [r3, #40]	@ 0x28
 8006028:	021b      	lsls	r3, r3, #8
         (READ_BIT(temp_pllckcfg, RCC_PLLCFGR_PLLM) != (((RCC_OscInitStruct->PLL.PLLM) - 1U) << RCC_PLLCFGR_PLLM_Pos)) ||
 800602a:	429a      	cmp	r2, r3
 800602c:	d11b      	bne.n	8006066 <HAL_RCC_OscConfig+0x60a>
         (READ_BIT(temp_pllckcfg, RCC_PLLCFGR_PLLPDIV) != ((RCC_OscInitStruct->PLL.PLLP) << RCC_PLLCFGR_PLLPDIV_Pos)) ||
 800602e:	697b      	ldr	r3, [r7, #20]
 8006030:	f003 4278 	and.w	r2, r3, #4160749568	@ 0xf8000000
 8006034:	687b      	ldr	r3, [r7, #4]
 8006036:	6adb      	ldr	r3, [r3, #44]	@ 0x2c
 8006038:	06db      	lsls	r3, r3, #27
         (READ_BIT(temp_pllckcfg, RCC_PLLCFGR_PLLN) != ((RCC_OscInitStruct->PLL.PLLN) << RCC_PLLCFGR_PLLN_Pos)) ||
 800603a:	429a      	cmp	r2, r3
 800603c:	d113      	bne.n	8006066 <HAL_RCC_OscConfig+0x60a>
         (READ_BIT(temp_pllckcfg, RCC_PLLCFGR_PLLQ) != ((((RCC_OscInitStruct->PLL.PLLQ) >> 1U) - 1U) << RCC_PLLCFGR_PLLQ_Pos)) ||
 800603e:	697b      	ldr	r3, [r7, #20]
 8006040:	f403 02c0 	and.w	r2, r3, #6291456	@ 0x600000
 8006044:	687b      	ldr	r3, [r7, #4]
 8006046:	6b1b      	ldr	r3, [r3, #48]	@ 0x30
 8006048:	085b      	lsrs	r3, r3, #1
 800604a:	3b01      	subs	r3, #1
 800604c:	055b      	lsls	r3, r3, #21
         (READ_BIT(temp_pllckcfg, RCC_PLLCFGR_PLLPDIV) != ((RCC_OscInitStruct->PLL.PLLP) << RCC_PLLCFGR_PLLPDIV_Pos)) ||
 800604e:	429a      	cmp	r2, r3
 8006050:	d109      	bne.n	8006066 <HAL_RCC_OscConfig+0x60a>
         (READ_BIT(temp_pllckcfg, RCC_PLLCFGR_PLLR) != ((((RCC_OscInitStruct->PLL.PLLR) >> 1U) - 1U) << RCC_PLLCFGR_PLLR_Pos)))
 8006052:	697b      	ldr	r3, [r7, #20]
 8006054:	f003 62c0 	and.w	r2, r3, #100663296	@ 0x6000000
 8006058:	687b      	ldr	r3, [r7, #4]
 800605a:	6b5b      	ldr	r3, [r3, #52]	@ 0x34
 800605c:	085b      	lsrs	r3, r3, #1
 800605e:	3b01      	subs	r3, #1
 8006060:	065b      	lsls	r3, r3, #25
         (READ_BIT(temp_pllckcfg, RCC_PLLCFGR_PLLQ) != ((((RCC_OscInitStruct->PLL.PLLQ) >> 1U) - 1U) << RCC_PLLCFGR_PLLQ_Pos)) ||
 8006062:	429a      	cmp	r2, r3
 8006064:	d001      	beq.n	800606a <HAL_RCC_OscConfig+0x60e>
      {
        return HAL_ERROR;
 8006066:	2301      	movs	r3, #1
 8006068:	e000      	b.n	800606c <HAL_RCC_OscConfig+0x610>
      }
    }
  }
  }

  return HAL_OK;
 800606a:	2300      	movs	r3, #0
}
 800606c:	4618      	mov	r0, r3
 800606e:	3720      	adds	r7, #32
 8006070:	46bd      	mov	sp, r7
 8006072:	bd80      	pop	{r7, pc}
 8006074:	40021000 	.word	0x40021000
 8006078:	019f800c 	.word	0x019f800c
 800607c:	feeefffc 	.word	0xfeeefffc

08006080 <HAL_RCC_ClockConfig>:
  *         HPRE[3:0] bits to ensure that HCLK not exceed the maximum allowed frequency
  *         (for more details refer to section above "Initialization/de-initialization functions")
  * @retval None
  */
HAL_StatusTypeDef HAL_RCC_ClockConfig(RCC_ClkInitTypeDef  *RCC_ClkInitStruct, uint32_t FLatency)
{
 8006080:	b580      	push	{r7, lr}
 8006082:	b086      	sub	sp, #24
 8006084:	af00      	add	r7, sp, #0
 8006086:	6078      	str	r0, [r7, #4]
 8006088:	6039      	str	r1, [r7, #0]
  uint32_t tickstart;
  uint32_t pllfreq;
  uint32_t hpre = RCC_SYSCLK_DIV1;
 800608a:	2300      	movs	r3, #0
 800608c:	617b      	str	r3, [r7, #20]

  /* Check Null pointer */
  if (RCC_ClkInitStruct == NULL)
 800608e:	687b      	ldr	r3, [r7, #4]
 8006090:	2b00      	cmp	r3, #0
 8006092:	d101      	bne.n	8006098 <HAL_RCC_ClockConfig+0x18>
  {
    return HAL_ERROR;
 8006094:	2301      	movs	r3, #1
 8006096:	e11e      	b.n	80062d6 <HAL_RCC_ClockConfig+0x256>
  /* To correctly read data from FLASH memory, the number of wait states (LATENCY)
    must be correctly programmed according to the frequency of the CPU clock
    (HCLK) and the supply voltage of the device. */

  /* Increasing the number of wait states because of higher CPU frequency */
  if (FLatency > __HAL_FLASH_GET_LATENCY())
 8006098:	4b91      	ldr	r3, [pc, #580]	@ (80062e0 <HAL_RCC_ClockConfig+0x260>)
 800609a:	681b      	ldr	r3, [r3, #0]
 800609c:	f003 030f 	and.w	r3, r3, #15
 80060a0:	683a      	ldr	r2, [r7, #0]
 80060a2:	429a      	cmp	r2, r3
 80060a4:	d910      	bls.n	80060c8 <HAL_RCC_ClockConfig+0x48>
  {
    /* Program the new number of wait states to the LATENCY bits in the FLASH_ACR register */
    __HAL_FLASH_SET_LATENCY(FLatency);
 80060a6:	4b8e      	ldr	r3, [pc, #568]	@ (80062e0 <HAL_RCC_ClockConfig+0x260>)
 80060a8:	681b      	ldr	r3, [r3, #0]
 80060aa:	f023 020f 	bic.w	r2, r3, #15
 80060ae:	498c      	ldr	r1, [pc, #560]	@ (80062e0 <HAL_RCC_ClockConfig+0x260>)
 80060b0:	683b      	ldr	r3, [r7, #0]
 80060b2:	4313      	orrs	r3, r2
 80060b4:	600b      	str	r3, [r1, #0]

    /* Check that the new number of wait states is taken into account to access the Flash
    memory by reading the FLASH_ACR register */
    if (__HAL_FLASH_GET_LATENCY() != FLatency)
 80060b6:	4b8a      	ldr	r3, [pc, #552]	@ (80062e0 <HAL_RCC_ClockConfig+0x260>)
 80060b8:	681b      	ldr	r3, [r3, #0]
 80060ba:	f003 030f 	and.w	r3, r3, #15
 80060be:	683a      	ldr	r2, [r7, #0]
 80060c0:	429a      	cmp	r2, r3
 80060c2:	d001      	beq.n	80060c8 <HAL_RCC_ClockConfig+0x48>
    {
      return HAL_ERROR;
 80060c4:	2301      	movs	r3, #1
 80060c6:	e106      	b.n	80062d6 <HAL_RCC_ClockConfig+0x256>
    }
  }

  /*------------------------- SYSCLK Configuration ---------------------------*/
  if(((RCC_ClkInitStruct->ClockType) & RCC_CLOCKTYPE_SYSCLK) == RCC_CLOCKTYPE_SYSCLK)
 80060c8:	687b      	ldr	r3, [r7, #4]
 80060ca:	681b      	ldr	r3, [r3, #0]
 80060cc:	f003 0301 	and.w	r3, r3, #1
 80060d0:	2b00      	cmp	r3, #0
 80060d2:	d073      	beq.n	80061bc <HAL_RCC_ClockConfig+0x13c>
  {
    assert_param(IS_RCC_SYSCLKSOURCE(RCC_ClkInitStruct->SYSCLKSource));

    /* PLL is selected as System Clock Source */
    if (RCC_ClkInitStruct->SYSCLKSource == RCC_SYSCLKSOURCE_PLLCLK)
 80060d4:	687b      	ldr	r3, [r7, #4]
 80060d6:	685b      	ldr	r3, [r3, #4]
 80060d8:	2b03      	cmp	r3, #3
 80060da:	d129      	bne.n	8006130 <HAL_RCC_ClockConfig+0xb0>
    {
      /* Check the PLL ready flag */
      if (READ_BIT(RCC->CR, RCC_CR_PLLRDY) == 0U)
 80060dc:	4b81      	ldr	r3, [pc, #516]	@ (80062e4 <HAL_RCC_ClockConfig+0x264>)
 80060de:	681b      	ldr	r3, [r3, #0]
 80060e0:	f003 7300 	and.w	r3, r3, #33554432	@ 0x2000000
 80060e4:	2b00      	cmp	r3, #0
 80060e6:	d101      	bne.n	80060ec <HAL_RCC_ClockConfig+0x6c>
      {
        return HAL_ERROR;
 80060e8:	2301      	movs	r3, #1
 80060ea:	e0f4      	b.n	80062d6 <HAL_RCC_ClockConfig+0x256>
      }
      /* Undershoot management when selection PLL as SYSCLK source and frequency above 80Mhz */
      /* Compute target PLL output frequency */
      pllfreq = RCC_GetSysClockFreqFromPLLSource();
 80060ec:	f000 f964 	bl	80063b8 <RCC_GetSysClockFreqFromPLLSource>
 80060f0:	6138      	str	r0, [r7, #16]

      /* Intermediate step with HCLK prescaler 2 necessary before to go over 80Mhz */
      if(pllfreq > 80000000U)
 80060f2:	693b      	ldr	r3, [r7, #16]
 80060f4:	4a7c      	ldr	r2, [pc, #496]	@ (80062e8 <HAL_RCC_ClockConfig+0x268>)
 80060f6:	4293      	cmp	r3, r2
 80060f8:	d93f      	bls.n	800617a <HAL_RCC_ClockConfig+0xfa>
      {
        if (((READ_BIT(RCC->CFGR, RCC_CFGR_HPRE) == RCC_SYSCLK_DIV1)) ||
 80060fa:	4b7a      	ldr	r3, [pc, #488]	@ (80062e4 <HAL_RCC_ClockConfig+0x264>)
 80060fc:	689b      	ldr	r3, [r3, #8]
 80060fe:	f003 03f0 	and.w	r3, r3, #240	@ 0xf0
 8006102:	2b00      	cmp	r3, #0
 8006104:	d009      	beq.n	800611a <HAL_RCC_ClockConfig+0x9a>
            (((((RCC_ClkInitStruct->ClockType) & RCC_CLOCKTYPE_HCLK) == RCC_CLOCKTYPE_HCLK) &&
 8006106:	687b      	ldr	r3, [r7, #4]
 8006108:	681b      	ldr	r3, [r3, #0]
 800610a:	f003 0302 	and.w	r3, r3, #2
        if (((READ_BIT(RCC->CFGR, RCC_CFGR_HPRE) == RCC_SYSCLK_DIV1)) ||
 800610e:	2b00      	cmp	r3, #0
 8006110:	d033      	beq.n	800617a <HAL_RCC_ClockConfig+0xfa>
              (RCC_ClkInitStruct->AHBCLKDivider == RCC_SYSCLK_DIV1))))
 8006112:	687b      	ldr	r3, [r7, #4]
 8006114:	689b      	ldr	r3, [r3, #8]
            (((((RCC_ClkInitStruct->ClockType) & RCC_CLOCKTYPE_HCLK) == RCC_CLOCKTYPE_HCLK) &&
 8006116:	2b00      	cmp	r3, #0
 8006118:	d12f      	bne.n	800617a <HAL_RCC_ClockConfig+0xfa>
        {
          MODIFY_REG(RCC->CFGR, RCC_CFGR_HPRE, RCC_SYSCLK_DIV2);
 800611a:	4b72      	ldr	r3, [pc, #456]	@ (80062e4 <HAL_RCC_ClockConfig+0x264>)
 800611c:	689b      	ldr	r3, [r3, #8]
 800611e:	f023 03f0 	bic.w	r3, r3, #240	@ 0xf0
 8006122:	4a70      	ldr	r2, [pc, #448]	@ (80062e4 <HAL_RCC_ClockConfig+0x264>)
 8006124:	f043 0380 	orr.w	r3, r3, #128	@ 0x80
 8006128:	6093      	str	r3, [r2, #8]
          hpre = RCC_SYSCLK_DIV2;
 800612a:	2380      	movs	r3, #128	@ 0x80
 800612c:	617b      	str	r3, [r7, #20]
 800612e:	e024      	b.n	800617a <HAL_RCC_ClockConfig+0xfa>
      }
    }
    else
    {
      /* HSE is selected as System Clock Source */
      if (RCC_ClkInitStruct->SYSCLKSource == RCC_SYSCLKSOURCE_HSE)
 8006130:	687b      	ldr	r3, [r7, #4]
 8006132:	685b      	ldr	r3, [r3, #4]
 8006134:	2b02      	cmp	r3, #2
 8006136:	d107      	bne.n	8006148 <HAL_RCC_ClockConfig+0xc8>
      {
        /* Check the HSE ready flag */
        if(READ_BIT(RCC->CR, RCC_CR_HSERDY) == 0U)
 8006138:	4b6a      	ldr	r3, [pc, #424]	@ (80062e4 <HAL_RCC_ClockConfig+0x264>)
 800613a:	681b      	ldr	r3, [r3, #0]
 800613c:	f403 3300 	and.w	r3, r3, #131072	@ 0x20000
 8006140:	2b00      	cmp	r3, #0
 8006142:	d109      	bne.n	8006158 <HAL_RCC_ClockConfig+0xd8>
        {
          return HAL_ERROR;
 8006144:	2301      	movs	r3, #1
 8006146:	e0c6      	b.n	80062d6 <HAL_RCC_ClockConfig+0x256>
      }
      /* HSI is selected as System Clock Source */
      else
      {
        /* Check the HSI ready flag */
        if(READ_BIT(RCC->CR, RCC_CR_HSIRDY) == 0U)
 8006148:	4b66      	ldr	r3, [pc, #408]	@ (80062e4 <HAL_RCC_ClockConfig+0x264>)
 800614a:	681b      	ldr	r3, [r3, #0]
 800614c:	f403 6380 	and.w	r3, r3, #1024	@ 0x400
 8006150:	2b00      	cmp	r3, #0
 8006152:	d101      	bne.n	8006158 <HAL_RCC_ClockConfig+0xd8>
        {
          return HAL_ERROR;
 8006154:	2301      	movs	r3, #1
 8006156:	e0be      	b.n	80062d6 <HAL_RCC_ClockConfig+0x256>
        }
      }
      /* Overshoot management when going down from PLL as SYSCLK source and frequency above 80Mhz */
      pllfreq = HAL_RCC_GetSysClockFreq();
 8006158:	f000 f8ce 	bl	80062f8 <HAL_RCC_GetSysClockFreq>
 800615c:	6138      	str	r0, [r7, #16]

      /* Intermediate step with HCLK prescaler 2 necessary before to go under 80Mhz */
      if(pllfreq > 80000000U)
 800615e:	693b      	ldr	r3, [r7, #16]
 8006160:	4a61      	ldr	r2, [pc, #388]	@ (80062e8 <HAL_RCC_ClockConfig+0x268>)
 8006162:	4293      	cmp	r3, r2
 8006164:	d909      	bls.n	800617a <HAL_RCC_ClockConfig+0xfa>
      {
        MODIFY_REG(RCC->CFGR, RCC_CFGR_HPRE, RCC_SYSCLK_DIV2);
 8006166:	4b5f      	ldr	r3, [pc, #380]	@ (80062e4 <HAL_RCC_ClockConfig+0x264>)
 8006168:	689b      	ldr	r3, [r3, #8]
 800616a:	f023 03f0 	bic.w	r3, r3, #240	@ 0xf0
 800616e:	4a5d      	ldr	r2, [pc, #372]	@ (80062e4 <HAL_RCC_ClockConfig+0x264>)
 8006170:	f043 0380 	orr.w	r3, r3, #128	@ 0x80
 8006174:	6093      	str	r3, [r2, #8]
        hpre = RCC_SYSCLK_DIV2;
 8006176:	2380      	movs	r3, #128	@ 0x80
 8006178:	617b      	str	r3, [r7, #20]
      }

    }

    MODIFY_REG(RCC->CFGR, RCC_CFGR_SW, RCC_ClkInitStruct->SYSCLKSource);
 800617a:	4b5a      	ldr	r3, [pc, #360]	@ (80062e4 <HAL_RCC_ClockConfig+0x264>)
 800617c:	689b      	ldr	r3, [r3, #8]
 800617e:	f023 0203 	bic.w	r2, r3, #3
 8006182:	687b      	ldr	r3, [r7, #4]
 8006184:	685b      	ldr	r3, [r3, #4]
 8006186:	4957      	ldr	r1, [pc, #348]	@ (80062e4 <HAL_RCC_ClockConfig+0x264>)
 8006188:	4313      	orrs	r3, r2
 800618a:	608b      	str	r3, [r1, #8]

    /* Get Start Tick*/
    tickstart = HAL_GetTick();
 800618c:	f7fc fed4 	bl	8002f38 <HAL_GetTick>
 8006190:	60f8      	str	r0, [r7, #12]

    while (__HAL_RCC_GET_SYSCLK_SOURCE() != (RCC_ClkInitStruct->SYSCLKSource << RCC_CFGR_SWS_Pos))
 8006192:	e00a      	b.n	80061aa <HAL_RCC_ClockConfig+0x12a>
    {
      if ((HAL_GetTick() - tickstart) > CLOCKSWITCH_TIMEOUT_VALUE)
 8006194:	f7fc fed0 	bl	8002f38 <HAL_GetTick>
 8006198:	4602      	mov	r2, r0
 800619a:	68fb      	ldr	r3, [r7, #12]
 800619c:	1ad3      	subs	r3, r2, r3
 800619e:	f241 3288 	movw	r2, #5000	@ 0x1388
 80061a2:	4293      	cmp	r3, r2
 80061a4:	d901      	bls.n	80061aa <HAL_RCC_ClockConfig+0x12a>
      {
        return HAL_TIMEOUT;
 80061a6:	2303      	movs	r3, #3
 80061a8:	e095      	b.n	80062d6 <HAL_RCC_ClockConfig+0x256>
    while (__HAL_RCC_GET_SYSCLK_SOURCE() != (RCC_ClkInitStruct->SYSCLKSource << RCC_CFGR_SWS_Pos))
 80061aa:	4b4e      	ldr	r3, [pc, #312]	@ (80062e4 <HAL_RCC_ClockConfig+0x264>)
 80061ac:	689b      	ldr	r3, [r3, #8]
 80061ae:	f003 020c 	and.w	r2, r3, #12
 80061b2:	687b      	ldr	r3, [r7, #4]
 80061b4:	685b      	ldr	r3, [r3, #4]
 80061b6:	009b      	lsls	r3, r3, #2
 80061b8:	429a      	cmp	r2, r3
 80061ba:	d1eb      	bne.n	8006194 <HAL_RCC_ClockConfig+0x114>
      }
    }
  }

  /*-------------------------- HCLK Configuration --------------------------*/
  if (((RCC_ClkInitStruct->ClockType) & RCC_CLOCKTYPE_HCLK) == RCC_CLOCKTYPE_HCLK)
 80061bc:	687b      	ldr	r3, [r7, #4]
 80061be:	681b      	ldr	r3, [r3, #0]
 80061c0:	f003 0302 	and.w	r3, r3, #2
 80061c4:	2b00      	cmp	r3, #0
 80061c6:	d023      	beq.n	8006210 <HAL_RCC_ClockConfig+0x190>
  {
    /* Set the highest APB divider in order to ensure that we do not go through
       a non-spec phase whatever we decrease or increase HCLK. */
    if (((RCC_ClkInitStruct->ClockType) & RCC_CLOCKTYPE_PCLK1) == RCC_CLOCKTYPE_PCLK1)
 80061c8:	687b      	ldr	r3, [r7, #4]
 80061ca:	681b      	ldr	r3, [r3, #0]
 80061cc:	f003 0304 	and.w	r3, r3, #4
 80061d0:	2b00      	cmp	r3, #0
 80061d2:	d005      	beq.n	80061e0 <HAL_RCC_ClockConfig+0x160>
    {
      MODIFY_REG(RCC->CFGR, RCC_CFGR_PPRE1, RCC_HCLK_DIV16);
 80061d4:	4b43      	ldr	r3, [pc, #268]	@ (80062e4 <HAL_RCC_ClockConfig+0x264>)
 80061d6:	689b      	ldr	r3, [r3, #8]
 80061d8:	4a42      	ldr	r2, [pc, #264]	@ (80062e4 <HAL_RCC_ClockConfig+0x264>)
 80061da:	f443 63e0 	orr.w	r3, r3, #1792	@ 0x700
 80061de:	6093      	str	r3, [r2, #8]
    }
    if (((RCC_ClkInitStruct->ClockType) & RCC_CLOCKTYPE_PCLK2) == RCC_CLOCKTYPE_PCLK2)
 80061e0:	687b      	ldr	r3, [r7, #4]
 80061e2:	681b      	ldr	r3, [r3, #0]
 80061e4:	f003 0308 	and.w	r3, r3, #8
 80061e8:	2b00      	cmp	r3, #0
 80061ea:	d007      	beq.n	80061fc <HAL_RCC_ClockConfig+0x17c>
    {
      MODIFY_REG(RCC->CFGR, RCC_CFGR_PPRE2, RCC_HCLK_DIV16);
 80061ec:	4b3d      	ldr	r3, [pc, #244]	@ (80062e4 <HAL_RCC_ClockConfig+0x264>)
 80061ee:	689b      	ldr	r3, [r3, #8]
 80061f0:	f423 537c 	bic.w	r3, r3, #16128	@ 0x3f00
 80061f4:	4a3b      	ldr	r2, [pc, #236]	@ (80062e4 <HAL_RCC_ClockConfig+0x264>)
 80061f6:	f443 63e0 	orr.w	r3, r3, #1792	@ 0x700
 80061fa:	6093      	str	r3, [r2, #8]
    }

    /* Set the new HCLK clock divider */
    assert_param(IS_RCC_HCLK(RCC_ClkInitStruct->AHBCLKDivider));
    MODIFY_REG(RCC->CFGR, RCC_CFGR_HPRE, RCC_ClkInitStruct->AHBCLKDivider);
 80061fc:	4b39      	ldr	r3, [pc, #228]	@ (80062e4 <HAL_RCC_ClockConfig+0x264>)
 80061fe:	689b      	ldr	r3, [r3, #8]
 8006200:	f023 02f0 	bic.w	r2, r3, #240	@ 0xf0
 8006204:	687b      	ldr	r3, [r7, #4]
 8006206:	689b      	ldr	r3, [r3, #8]
 8006208:	4936      	ldr	r1, [pc, #216]	@ (80062e4 <HAL_RCC_ClockConfig+0x264>)
 800620a:	4313      	orrs	r3, r2
 800620c:	608b      	str	r3, [r1, #8]
 800620e:	e008      	b.n	8006222 <HAL_RCC_ClockConfig+0x1a2>
  }
  else
  {
    /* Is intermediate HCLK prescaler 2 applied internally, complete with HCLK prescaler 1 */
    if(hpre == RCC_SYSCLK_DIV2)
 8006210:	697b      	ldr	r3, [r7, #20]
 8006212:	2b80      	cmp	r3, #128	@ 0x80
 8006214:	d105      	bne.n	8006222 <HAL_RCC_ClockConfig+0x1a2>
    {
      MODIFY_REG(RCC->CFGR, RCC_CFGR_HPRE, RCC_SYSCLK_DIV1);
 8006216:	4b33      	ldr	r3, [pc, #204]	@ (80062e4 <HAL_RCC_ClockConfig+0x264>)
 8006218:	689b      	ldr	r3, [r3, #8]
 800621a:	4a32      	ldr	r2, [pc, #200]	@ (80062e4 <HAL_RCC_ClockConfig+0x264>)
 800621c:	f023 03f0 	bic.w	r3, r3, #240	@ 0xf0
 8006220:	6093      	str	r3, [r2, #8]
    }
  }

  /* Decreasing the number of wait states because of lower CPU frequency */
  if (FLatency < __HAL_FLASH_GET_LATENCY())
 8006222:	4b2f      	ldr	r3, [pc, #188]	@ (80062e0 <HAL_RCC_ClockConfig+0x260>)
 8006224:	681b      	ldr	r3, [r3, #0]
 8006226:	f003 030f 	and.w	r3, r3, #15
 800622a:	683a      	ldr	r2, [r7, #0]
 800622c:	429a      	cmp	r2, r3
 800622e:	d21d      	bcs.n	800626c <HAL_RCC_ClockConfig+0x1ec>
  {
    /* Program the new number of wait states to the LATENCY bits in the FLASH_ACR register */
    __HAL_FLASH_SET_LATENCY(FLatency);
 8006230:	4b2b      	ldr	r3, [pc, #172]	@ (80062e0 <HAL_RCC_ClockConfig+0x260>)
 8006232:	681b      	ldr	r3, [r3, #0]
 8006234:	f023 020f 	bic.w	r2, r3, #15
 8006238:	4929      	ldr	r1, [pc, #164]	@ (80062e0 <HAL_RCC_ClockConfig+0x260>)
 800623a:	683b      	ldr	r3, [r7, #0]
 800623c:	4313      	orrs	r3, r2
 800623e:	600b      	str	r3, [r1, #0]

    /* Check that the new number of wait states is taken into account to access the Flash
    memory by polling the FLASH_ACR register */
    tickstart = HAL_GetTick();
 8006240:	f7fc fe7a 	bl	8002f38 <HAL_GetTick>
 8006244:	60f8      	str	r0, [r7, #12]

    while (__HAL_FLASH_GET_LATENCY() != FLatency)
 8006246:	e00a      	b.n	800625e <HAL_RCC_ClockConfig+0x1de>
    {
      if ((HAL_GetTick() - tickstart) > CLOCKSWITCH_TIMEOUT_VALUE)
 8006248:	f7fc fe76 	bl	8002f38 <HAL_GetTick>
 800624c:	4602      	mov	r2, r0
 800624e:	68fb      	ldr	r3, [r7, #12]
 8006250:	1ad3      	subs	r3, r2, r3
 8006252:	f241 3288 	movw	r2, #5000	@ 0x1388
 8006256:	4293      	cmp	r3, r2
 8006258:	d901      	bls.n	800625e <HAL_RCC_ClockConfig+0x1de>
      {
        return HAL_TIMEOUT;
 800625a:	2303      	movs	r3, #3
 800625c:	e03b      	b.n	80062d6 <HAL_RCC_ClockConfig+0x256>
    while (__HAL_FLASH_GET_LATENCY() != FLatency)
 800625e:	4b20      	ldr	r3, [pc, #128]	@ (80062e0 <HAL_RCC_ClockConfig+0x260>)
 8006260:	681b      	ldr	r3, [r3, #0]
 8006262:	f003 030f 	and.w	r3, r3, #15
 8006266:	683a      	ldr	r2, [r7, #0]
 8006268:	429a      	cmp	r2, r3
 800626a:	d1ed      	bne.n	8006248 <HAL_RCC_ClockConfig+0x1c8>
      }
    }
  }

  /*-------------------------- PCLK1 Configuration ---------------------------*/
  if (((RCC_ClkInitStruct->ClockType) & RCC_CLOCKTYPE_PCLK1) == RCC_CLOCKTYPE_PCLK1)
 800626c:	687b      	ldr	r3, [r7, #4]
 800626e:	681b      	ldr	r3, [r3, #0]
 8006270:	f003 0304 	and.w	r3, r3, #4
 8006274:	2b00      	cmp	r3, #0
 8006276:	d008      	beq.n	800628a <HAL_RCC_ClockConfig+0x20a>
  {
    assert_param(IS_RCC_PCLK(RCC_ClkInitStruct->APB1CLKDivider));
    MODIFY_REG(RCC->CFGR, RCC_CFGR_PPRE1, RCC_ClkInitStruct->APB1CLKDivider);
 8006278:	4b1a      	ldr	r3, [pc, #104]	@ (80062e4 <HAL_RCC_ClockConfig+0x264>)
 800627a:	689b      	ldr	r3, [r3, #8]
 800627c:	f423 62e0 	bic.w	r2, r3, #1792	@ 0x700
 8006280:	687b      	ldr	r3, [r7, #4]
 8006282:	68db      	ldr	r3, [r3, #12]
 8006284:	4917      	ldr	r1, [pc, #92]	@ (80062e4 <HAL_RCC_ClockConfig+0x264>)
 8006286:	4313      	orrs	r3, r2
 8006288:	608b      	str	r3, [r1, #8]
  }

  /*-------------------------- PCLK2 Configuration ---------------------------*/
  if(((RCC_ClkInitStruct->ClockType) & RCC_CLOCKTYPE_PCLK2) == RCC_CLOCKTYPE_PCLK2)
 800628a:	687b      	ldr	r3, [r7, #4]
 800628c:	681b      	ldr	r3, [r3, #0]
 800628e:	f003 0308 	and.w	r3, r3, #8
 8006292:	2b00      	cmp	r3, #0
 8006294:	d009      	beq.n	80062aa <HAL_RCC_ClockConfig+0x22a>
  {
    assert_param(IS_RCC_PCLK(RCC_ClkInitStruct->APB2CLKDivider));
    MODIFY_REG(RCC->CFGR, RCC_CFGR_PPRE2, ((RCC_ClkInitStruct->APB2CLKDivider) << 3U));
 8006296:	4b13      	ldr	r3, [pc, #76]	@ (80062e4 <HAL_RCC_ClockConfig+0x264>)
 8006298:	689b      	ldr	r3, [r3, #8]
 800629a:	f423 5260 	bic.w	r2, r3, #14336	@ 0x3800
 800629e:	687b      	ldr	r3, [r7, #4]
 80062a0:	691b      	ldr	r3, [r3, #16]
 80062a2:	00db      	lsls	r3, r3, #3
 80062a4:	490f      	ldr	r1, [pc, #60]	@ (80062e4 <HAL_RCC_ClockConfig+0x264>)
 80062a6:	4313      	orrs	r3, r2
 80062a8:	608b      	str	r3, [r1, #8]
  }

  /* Update the SystemCoreClock global variable */
  SystemCoreClock = HAL_RCC_GetSysClockFreq() >> (AHBPrescTable[READ_BIT(RCC->CFGR, RCC_CFGR_HPRE) >> RCC_CFGR_HPRE_Pos] & 0x1FU);
 80062aa:	f000 f825 	bl	80062f8 <HAL_RCC_GetSysClockFreq>
 80062ae:	4602      	mov	r2, r0
 80062b0:	4b0c      	ldr	r3, [pc, #48]	@ (80062e4 <HAL_RCC_ClockConfig+0x264>)
 80062b2:	689b      	ldr	r3, [r3, #8]
 80062b4:	091b      	lsrs	r3, r3, #4
 80062b6:	f003 030f 	and.w	r3, r3, #15
 80062ba:	490c      	ldr	r1, [pc, #48]	@ (80062ec <HAL_RCC_ClockConfig+0x26c>)
 80062bc:	5ccb      	ldrb	r3, [r1, r3]
 80062be:	f003 031f 	and.w	r3, r3, #31
 80062c2:	fa22 f303 	lsr.w	r3, r2, r3
 80062c6:	4a0a      	ldr	r2, [pc, #40]	@ (80062f0 <HAL_RCC_ClockConfig+0x270>)
 80062c8:	6013      	str	r3, [r2, #0]

  /* Configure the source of time base considering new system clocks settings*/
  return HAL_InitTick(uwTickPrio);
 80062ca:	4b0a      	ldr	r3, [pc, #40]	@ (80062f4 <HAL_RCC_ClockConfig+0x274>)
 80062cc:	681b      	ldr	r3, [r3, #0]
 80062ce:	4618      	mov	r0, r3
 80062d0:	f7fc fde6 	bl	8002ea0 <HAL_InitTick>
 80062d4:	4603      	mov	r3, r0
}
 80062d6:	4618      	mov	r0, r3
 80062d8:	3718      	adds	r7, #24
 80062da:	46bd      	mov	sp, r7
 80062dc:	bd80      	pop	{r7, pc}
 80062de:	bf00      	nop
 80062e0:	40022000 	.word	0x40022000
 80062e4:	40021000 	.word	0x40021000
 80062e8:	04c4b400 	.word	0x04c4b400
 80062ec:	080082a8 	.word	0x080082a8
 80062f0:	20000008 	.word	0x20000008
 80062f4:	2000000c 	.word	0x2000000c

080062f8 <HAL_RCC_GetSysClockFreq>:
  *
  *
  * @retval SYSCLK frequency
  */
uint32_t HAL_RCC_GetSysClockFreq(void)
{
 80062f8:	b480      	push	{r7}
 80062fa:	b087      	sub	sp, #28
 80062fc:	af00      	add	r7, sp, #0
  uint32_t pllvco, pllsource, pllr, pllm;
  uint32_t sysclockfreq;

  if (__HAL_RCC_GET_SYSCLK_SOURCE() == RCC_CFGR_SWS_HSI)
 80062fe:	4b2c      	ldr	r3, [pc, #176]	@ (80063b0 <HAL_RCC_GetSysClockFreq+0xb8>)
 8006300:	689b      	ldr	r3, [r3, #8]
 8006302:	f003 030c 	and.w	r3, r3, #12
 8006306:	2b04      	cmp	r3, #4
 8006308:	d102      	bne.n	8006310 <HAL_RCC_GetSysClockFreq+0x18>
  {
    /* HSI used as system clock source */
    sysclockfreq = HSI_VALUE;
 800630a:	4b2a      	ldr	r3, [pc, #168]	@ (80063b4 <HAL_RCC_GetSysClockFreq+0xbc>)
 800630c:	613b      	str	r3, [r7, #16]
 800630e:	e047      	b.n	80063a0 <HAL_RCC_GetSysClockFreq+0xa8>
  }
  else if (__HAL_RCC_GET_SYSCLK_SOURCE() == RCC_CFGR_SWS_HSE)
 8006310:	4b27      	ldr	r3, [pc, #156]	@ (80063b0 <HAL_RCC_GetSysClockFreq+0xb8>)
 8006312:	689b      	ldr	r3, [r3, #8]
 8006314:	f003 030c 	and.w	r3, r3, #12
 8006318:	2b08      	cmp	r3, #8
 800631a:	d102      	bne.n	8006322 <HAL_RCC_GetSysClockFreq+0x2a>
  {
    /* HSE used as system clock source */
    sysclockfreq = HSE_VALUE;
 800631c:	4b25      	ldr	r3, [pc, #148]	@ (80063b4 <HAL_RCC_GetSysClockFreq+0xbc>)
 800631e:	613b      	str	r3, [r7, #16]
 8006320:	e03e      	b.n	80063a0 <HAL_RCC_GetSysClockFreq+0xa8>
  }
  else if (__HAL_RCC_GET_SYSCLK_SOURCE() == RCC_CFGR_SWS_PLL)
 8006322:	4b23      	ldr	r3, [pc, #140]	@ (80063b0 <HAL_RCC_GetSysClockFreq+0xb8>)
 8006324:	689b      	ldr	r3, [r3, #8]
 8006326:	f003 030c 	and.w	r3, r3, #12
 800632a:	2b0c      	cmp	r3, #12
 800632c:	d136      	bne.n	800639c <HAL_RCC_GetSysClockFreq+0xa4>
    /* PLL used as system clock  source */

    /* PLL_VCO = ((HSE_VALUE or HSI_VALUE)/ PLLM) * PLLN
    SYSCLK = PLL_VCO / PLLR
    */
    pllsource = READ_BIT(RCC->PLLCFGR, RCC_PLLCFGR_PLLSRC);
 800632e:	4b20      	ldr	r3, [pc, #128]	@ (80063b0 <HAL_RCC_GetSysClockFreq+0xb8>)
 8006330:	68db      	ldr	r3, [r3, #12]
 8006332:	f003 0303 	and.w	r3, r3, #3
 8006336:	60fb      	str	r3, [r7, #12]
    pllm = (READ_BIT(RCC->PLLCFGR, RCC_PLLCFGR_PLLM) >> RCC_PLLCFGR_PLLM_Pos) + 1U ;
 8006338:	4b1d      	ldr	r3, [pc, #116]	@ (80063b0 <HAL_RCC_GetSysClockFreq+0xb8>)
 800633a:	68db      	ldr	r3, [r3, #12]
 800633c:	091b      	lsrs	r3, r3, #4
 800633e:	f003 030f 	and.w	r3, r3, #15
 8006342:	3301      	adds	r3, #1
 8006344:	60bb      	str	r3, [r7, #8]

    switch (pllsource)
 8006346:	68fb      	ldr	r3, [r7, #12]
 8006348:	2b03      	cmp	r3, #3
 800634a:	d10c      	bne.n	8006366 <HAL_RCC_GetSysClockFreq+0x6e>
    {
    case RCC_PLLSOURCE_HSE:  /* HSE used as PLL clock source */
      pllvco = (HSE_VALUE / pllm) * (READ_BIT(RCC->PLLCFGR, RCC_PLLCFGR_PLLN) >> RCC_PLLCFGR_PLLN_Pos);
 800634c:	4a19      	ldr	r2, [pc, #100]	@ (80063b4 <HAL_RCC_GetSysClockFreq+0xbc>)
 800634e:	68bb      	ldr	r3, [r7, #8]
 8006350:	fbb2 f3f3 	udiv	r3, r2, r3
 8006354:	4a16      	ldr	r2, [pc, #88]	@ (80063b0 <HAL_RCC_GetSysClockFreq+0xb8>)
 8006356:	68d2      	ldr	r2, [r2, #12]
 8006358:	0a12      	lsrs	r2, r2, #8
 800635a:	f002 027f 	and.w	r2, r2, #127	@ 0x7f
 800635e:	fb02 f303 	mul.w	r3, r2, r3
 8006362:	617b      	str	r3, [r7, #20]
      break;
 8006364:	e00c      	b.n	8006380 <HAL_RCC_GetSysClockFreq+0x88>

    case RCC_PLLSOURCE_HSI:  /* HSI used as PLL clock source */
    default:
      pllvco = (HSI_VALUE / pllm) * (READ_BIT(RCC->PLLCFGR, RCC_PLLCFGR_PLLN) >> RCC_PLLCFGR_PLLN_Pos);
 8006366:	4a13      	ldr	r2, [pc, #76]	@ (80063b4 <HAL_RCC_GetSysClockFreq+0xbc>)
 8006368:	68bb      	ldr	r3, [r7, #8]
 800636a:	fbb2 f3f3 	udiv	r3, r2, r3
 800636e:	4a10      	ldr	r2, [pc, #64]	@ (80063b0 <HAL_RCC_GetSysClockFreq+0xb8>)
 8006370:	68d2      	ldr	r2, [r2, #12]
 8006372:	0a12      	lsrs	r2, r2, #8
 8006374:	f002 027f 	and.w	r2, r2, #127	@ 0x7f
 8006378:	fb02 f303 	mul.w	r3, r2, r3
 800637c:	617b      	str	r3, [r7, #20]
      break;
 800637e:	bf00      	nop
    }
    pllr = ((READ_BIT(RCC->PLLCFGR, RCC_PLLCFGR_PLLR) >> RCC_PLLCFGR_PLLR_Pos) + 1U ) * 2U;
 8006380:	4b0b      	ldr	r3, [pc, #44]	@ (80063b0 <HAL_RCC_GetSysClockFreq+0xb8>)
 8006382:	68db      	ldr	r3, [r3, #12]
 8006384:	0e5b      	lsrs	r3, r3, #25
 8006386:	f003 0303 	and.w	r3, r3, #3
 800638a:	3301      	adds	r3, #1
 800638c:	005b      	lsls	r3, r3, #1
 800638e:	607b      	str	r3, [r7, #4]
    sysclockfreq = pllvco/pllr;
 8006390:	697a      	ldr	r2, [r7, #20]
 8006392:	687b      	ldr	r3, [r7, #4]
 8006394:	fbb2 f3f3 	udiv	r3, r2, r3
 8006398:	613b      	str	r3, [r7, #16]
 800639a:	e001      	b.n	80063a0 <HAL_RCC_GetSysClockFreq+0xa8>
  }
  else
  {
    sysclockfreq = 0U;
 800639c:	2300      	movs	r3, #0
 800639e:	613b      	str	r3, [r7, #16]
  }

  return sysclockfreq;
 80063a0:	693b      	ldr	r3, [r7, #16]
}
 80063a2:	4618      	mov	r0, r3
 80063a4:	371c      	adds	r7, #28
 80063a6:	46bd      	mov	sp, r7
 80063a8:	f85d 7b04 	ldr.w	r7, [sp], #4
 80063ac:	4770      	bx	lr
 80063ae:	bf00      	nop
 80063b0:	40021000 	.word	0x40021000
 80063b4:	00f42400 	.word	0x00f42400

080063b8 <RCC_GetSysClockFreqFromPLLSource>:
/**
  * @brief  Compute SYSCLK frequency based on PLL SYSCLK source.
  * @retval SYSCLK frequency
  */
static uint32_t RCC_GetSysClockFreqFromPLLSource(void)
{
 80063b8:	b480      	push	{r7}
 80063ba:	b087      	sub	sp, #28
 80063bc:	af00      	add	r7, sp, #0
  uint32_t sysclockfreq;

  /* PLL_VCO = (HSE_VALUE or HSI_VALUE/ PLLM) * PLLN
     SYSCLK = PLL_VCO / PLLR
   */
  pllsource = READ_BIT(RCC->PLLCFGR, RCC_PLLCFGR_PLLSRC);
 80063be:	4b1e      	ldr	r3, [pc, #120]	@ (8006438 <RCC_GetSysClockFreqFromPLLSource+0x80>)
 80063c0:	68db      	ldr	r3, [r3, #12]
 80063c2:	f003 0303 	and.w	r3, r3, #3
 80063c6:	613b      	str	r3, [r7, #16]
  pllm = (READ_BIT(RCC->PLLCFGR, RCC_PLLCFGR_PLLM) >> RCC_PLLCFGR_PLLM_Pos) + 1U ;
 80063c8:	4b1b      	ldr	r3, [pc, #108]	@ (8006438 <RCC_GetSysClockFreqFromPLLSource+0x80>)
 80063ca:	68db      	ldr	r3, [r3, #12]
 80063cc:	091b      	lsrs	r3, r3, #4
 80063ce:	f003 030f 	and.w	r3, r3, #15
 80063d2:	3301      	adds	r3, #1
 80063d4:	60fb      	str	r3, [r7, #12]

  switch (pllsource)
 80063d6:	693b      	ldr	r3, [r7, #16]
 80063d8:	2b03      	cmp	r3, #3
 80063da:	d10c      	bne.n	80063f6 <RCC_GetSysClockFreqFromPLLSource+0x3e>
  {
  case RCC_PLLSOURCE_HSE:  /* HSE used as PLL clock source */
    pllvco = (HSE_VALUE / pllm) * (READ_BIT(RCC->PLLCFGR, RCC_PLLCFGR_PLLN) >> RCC_PLLCFGR_PLLN_Pos);
 80063dc:	4a17      	ldr	r2, [pc, #92]	@ (800643c <RCC_GetSysClockFreqFromPLLSource+0x84>)
 80063de:	68fb      	ldr	r3, [r7, #12]
 80063e0:	fbb2 f3f3 	udiv	r3, r2, r3
 80063e4:	4a14      	ldr	r2, [pc, #80]	@ (8006438 <RCC_GetSysClockFreqFromPLLSource+0x80>)
 80063e6:	68d2      	ldr	r2, [r2, #12]
 80063e8:	0a12      	lsrs	r2, r2, #8
 80063ea:	f002 027f 	and.w	r2, r2, #127	@ 0x7f
 80063ee:	fb02 f303 	mul.w	r3, r2, r3
 80063f2:	617b      	str	r3, [r7, #20]
    break;
 80063f4:	e00c      	b.n	8006410 <RCC_GetSysClockFreqFromPLLSource+0x58>

  case RCC_PLLSOURCE_HSI:  /* HSI used as PLL clock source */
  default:
    pllvco = (HSI_VALUE / pllm) * (READ_BIT(RCC->PLLCFGR, RCC_PLLCFGR_PLLN) >> RCC_PLLCFGR_PLLN_Pos);
 80063f6:	4a11      	ldr	r2, [pc, #68]	@ (800643c <RCC_GetSysClockFreqFromPLLSource+0x84>)
 80063f8:	68fb      	ldr	r3, [r7, #12]
 80063fa:	fbb2 f3f3 	udiv	r3, r2, r3
 80063fe:	4a0e      	ldr	r2, [pc, #56]	@ (8006438 <RCC_GetSysClockFreqFromPLLSource+0x80>)
 8006400:	68d2      	ldr	r2, [r2, #12]
 8006402:	0a12      	lsrs	r2, r2, #8
 8006404:	f002 027f 	and.w	r2, r2, #127	@ 0x7f
 8006408:	fb02 f303 	mul.w	r3, r2, r3
 800640c:	617b      	str	r3, [r7, #20]
    break;
 800640e:	bf00      	nop
  }

  pllr = ((READ_BIT(RCC->PLLCFGR, RCC_PLLCFGR_PLLR) >> RCC_PLLCFGR_PLLR_Pos) + 1U ) * 2U;
 8006410:	4b09      	ldr	r3, [pc, #36]	@ (8006438 <RCC_GetSysClockFreqFromPLLSource+0x80>)
 8006412:	68db      	ldr	r3, [r3, #12]
 8006414:	0e5b      	lsrs	r3, r3, #25
 8006416:	f003 0303 	and.w	r3, r3, #3
 800641a:	3301      	adds	r3, #1
 800641c:	005b      	lsls	r3, r3, #1
 800641e:	60bb      	str	r3, [r7, #8]
  sysclockfreq = pllvco/pllr;
 8006420:	697a      	ldr	r2, [r7, #20]
 8006422:	68bb      	ldr	r3, [r7, #8]
 8006424:	fbb2 f3f3 	udiv	r3, r2, r3
 8006428:	607b      	str	r3, [r7, #4]

  return sysclockfreq;
 800642a:	687b      	ldr	r3, [r7, #4]
}
 800642c:	4618      	mov	r0, r3
 800642e:	371c      	adds	r7, #28
 8006430:	46bd      	mov	sp, r7
 8006432:	f85d 7b04 	ldr.w	r7, [sp], #4
 8006436:	4770      	bx	lr
 8006438:	40021000 	.word	0x40021000
 800643c:	00f42400 	.word	0x00f42400

08006440 <HAL_RCCEx_PeriphCLKConfig>:
  *         the RTC clock source: in this case the access to Backup domain is enabled.
  *
  * @retval HAL status
  */
HAL_StatusTypeDef HAL_RCCEx_PeriphCLKConfig(RCC_PeriphCLKInitTypeDef  *PeriphClkInit)
{
 8006440:	b580      	push	{r7, lr}
 8006442:	b086      	sub	sp, #24
 8006444:	af00      	add	r7, sp, #0
 8006446:	6078      	str	r0, [r7, #4]
  uint32_t tmpregister;
  uint32_t tickstart;
  HAL_StatusTypeDef ret = HAL_OK;      /* Intermediate status */
 8006448:	2300      	movs	r3, #0
 800644a:	74fb      	strb	r3, [r7, #19]
  HAL_StatusTypeDef status = HAL_OK;   /* Final status */
 800644c:	2300      	movs	r3, #0
 800644e:	74bb      	strb	r3, [r7, #18]

  /* Check the parameters */
  assert_param(IS_RCC_PERIPHCLOCK(PeriphClkInit->PeriphClockSelection));

  /*-------------------------- RTC clock source configuration ----------------------*/
  if((PeriphClkInit->PeriphClockSelection & RCC_PERIPHCLK_RTC) == RCC_PERIPHCLK_RTC)
 8006450:	687b      	ldr	r3, [r7, #4]
 8006452:	681b      	ldr	r3, [r3, #0]
 8006454:	f403 2300 	and.w	r3, r3, #524288	@ 0x80000
 8006458:	2b00      	cmp	r3, #0
 800645a:	f000 8098 	beq.w	800658e <HAL_RCCEx_PeriphCLKConfig+0x14e>
  {
    FlagStatus       pwrclkchanged = RESET;
 800645e:	2300      	movs	r3, #0
 8006460:	747b      	strb	r3, [r7, #17]
    
    /* Check for RTC Parameters used to output RTCCLK */
    assert_param(IS_RCC_RTCCLKSOURCE(PeriphClkInit->RTCClockSelection));

    /* Enable Power Clock */
    if(__HAL_RCC_PWR_IS_CLK_DISABLED())
 8006462:	4b43      	ldr	r3, [pc, #268]	@ (8006570 <HAL_RCCEx_PeriphCLKConfig+0x130>)
 8006464:	6d9b      	ldr	r3, [r3, #88]	@ 0x58
 8006466:	f003 5380 	and.w	r3, r3, #268435456	@ 0x10000000
 800646a:	2b00      	cmp	r3, #0
 800646c:	d10d      	bne.n	800648a <HAL_RCCEx_PeriphCLKConfig+0x4a>
    {
      __HAL_RCC_PWR_CLK_ENABLE();
 800646e:	4b40      	ldr	r3, [pc, #256]	@ (8006570 <HAL_RCCEx_PeriphCLKConfig+0x130>)
 8006470:	6d9b      	ldr	r3, [r3, #88]	@ 0x58
 8006472:	4a3f      	ldr	r2, [pc, #252]	@ (8006570 <HAL_RCCEx_PeriphCLKConfig+0x130>)
 8006474:	f043 5380 	orr.w	r3, r3, #268435456	@ 0x10000000
 8006478:	6593      	str	r3, [r2, #88]	@ 0x58
 800647a:	4b3d      	ldr	r3, [pc, #244]	@ (8006570 <HAL_RCCEx_PeriphCLKConfig+0x130>)
 800647c:	6d9b      	ldr	r3, [r3, #88]	@ 0x58
 800647e:	f003 5380 	and.w	r3, r3, #268435456	@ 0x10000000
 8006482:	60bb      	str	r3, [r7, #8]
 8006484:	68bb      	ldr	r3, [r7, #8]
      pwrclkchanged = SET;
 8006486:	2301      	movs	r3, #1
 8006488:	747b      	strb	r3, [r7, #17]
    }
      
    /* Enable write access to Backup domain */
    SET_BIT(PWR->CR1, PWR_CR1_DBP);
 800648a:	4b3a      	ldr	r3, [pc, #232]	@ (8006574 <HAL_RCCEx_PeriphCLKConfig+0x134>)
 800648c:	681b      	ldr	r3, [r3, #0]
 800648e:	4a39      	ldr	r2, [pc, #228]	@ (8006574 <HAL_RCCEx_PeriphCLKConfig+0x134>)
 8006490:	f443 7380 	orr.w	r3, r3, #256	@ 0x100
 8006494:	6013      	str	r3, [r2, #0]

    /* Wait for Backup domain Write protection disable */
    tickstart = HAL_GetTick();
 8006496:	f7fc fd4f 	bl	8002f38 <HAL_GetTick>
 800649a:	60f8      	str	r0, [r7, #12]

    while((PWR->CR1 & PWR_CR1_DBP) == 0U)
 800649c:	e009      	b.n	80064b2 <HAL_RCCEx_PeriphCLKConfig+0x72>
    {
      if((HAL_GetTick() - tickstart) > RCC_DBP_TIMEOUT_VALUE)
 800649e:	f7fc fd4b 	bl	8002f38 <HAL_GetTick>
 80064a2:	4602      	mov	r2, r0
 80064a4:	68fb      	ldr	r3, [r7, #12]
 80064a6:	1ad3      	subs	r3, r2, r3
 80064a8:	2b02      	cmp	r3, #2
 80064aa:	d902      	bls.n	80064b2 <HAL_RCCEx_PeriphCLKConfig+0x72>
      {
        ret = HAL_TIMEOUT;
 80064ac:	2303      	movs	r3, #3
 80064ae:	74fb      	strb	r3, [r7, #19]
        break;
 80064b0:	e005      	b.n	80064be <HAL_RCCEx_PeriphCLKConfig+0x7e>
    while((PWR->CR1 & PWR_CR1_DBP) == 0U)
 80064b2:	4b30      	ldr	r3, [pc, #192]	@ (8006574 <HAL_RCCEx_PeriphCLKConfig+0x134>)
 80064b4:	681b      	ldr	r3, [r3, #0]
 80064b6:	f403 7380 	and.w	r3, r3, #256	@ 0x100
 80064ba:	2b00      	cmp	r3, #0
 80064bc:	d0ef      	beq.n	800649e <HAL_RCCEx_PeriphCLKConfig+0x5e>
      }
    }

    if(ret == HAL_OK)
 80064be:	7cfb      	ldrb	r3, [r7, #19]
 80064c0:	2b00      	cmp	r3, #0
 80064c2:	d159      	bne.n	8006578 <HAL_RCCEx_PeriphCLKConfig+0x138>
    { 
      /* Reset the Backup domain only if the RTC Clock source selection is modified from default */
      tmpregister = READ_BIT(RCC->BDCR, RCC_BDCR_RTCSEL);
 80064c4:	4b2a      	ldr	r3, [pc, #168]	@ (8006570 <HAL_RCCEx_PeriphCLKConfig+0x130>)
 80064c6:	f8d3 3090 	ldr.w	r3, [r3, #144]	@ 0x90
 80064ca:	f403 7340 	and.w	r3, r3, #768	@ 0x300
 80064ce:	617b      	str	r3, [r7, #20]
      
      if((tmpregister != RCC_RTCCLKSOURCE_NONE) && (tmpregister != PeriphClkInit->RTCClockSelection))
 80064d0:	697b      	ldr	r3, [r7, #20]
 80064d2:	2b00      	cmp	r3, #0
 80064d4:	d01e      	beq.n	8006514 <HAL_RCCEx_PeriphCLKConfig+0xd4>
 80064d6:	687b      	ldr	r3, [r7, #4]
 80064d8:	6d1b      	ldr	r3, [r3, #80]	@ 0x50
 80064da:	697a      	ldr	r2, [r7, #20]
 80064dc:	429a      	cmp	r2, r3
 80064de:	d019      	beq.n	8006514 <HAL_RCCEx_PeriphCLKConfig+0xd4>
      {
        /* Store the content of BDCR register before the reset of Backup Domain */
        tmpregister = READ_BIT(RCC->BDCR, ~(RCC_BDCR_RTCSEL));
 80064e0:	4b23      	ldr	r3, [pc, #140]	@ (8006570 <HAL_RCCEx_PeriphCLKConfig+0x130>)
 80064e2:	f8d3 3090 	ldr.w	r3, [r3, #144]	@ 0x90
 80064e6:	f423 7340 	bic.w	r3, r3, #768	@ 0x300
 80064ea:	617b      	str	r3, [r7, #20]
        /* RTC Clock selection can be changed only if the Backup Domain is reset */
        __HAL_RCC_BACKUPRESET_FORCE();
 80064ec:	4b20      	ldr	r3, [pc, #128]	@ (8006570 <HAL_RCCEx_PeriphCLKConfig+0x130>)
 80064ee:	f8d3 3090 	ldr.w	r3, [r3, #144]	@ 0x90
 80064f2:	4a1f      	ldr	r2, [pc, #124]	@ (8006570 <HAL_RCCEx_PeriphCLKConfig+0x130>)
 80064f4:	f443 3380 	orr.w	r3, r3, #65536	@ 0x10000
 80064f8:	f8c2 3090 	str.w	r3, [r2, #144]	@ 0x90
        __HAL_RCC_BACKUPRESET_RELEASE();
 80064fc:	4b1c      	ldr	r3, [pc, #112]	@ (8006570 <HAL_RCCEx_PeriphCLKConfig+0x130>)
 80064fe:	f8d3 3090 	ldr.w	r3, [r3, #144]	@ 0x90
 8006502:	4a1b      	ldr	r2, [pc, #108]	@ (8006570 <HAL_RCCEx_PeriphCLKConfig+0x130>)
 8006504:	f423 3380 	bic.w	r3, r3, #65536	@ 0x10000
 8006508:	f8c2 3090 	str.w	r3, [r2, #144]	@ 0x90
        /* Restore the Content of BDCR register */
        RCC->BDCR = tmpregister;
 800650c:	4a18      	ldr	r2, [pc, #96]	@ (8006570 <HAL_RCCEx_PeriphCLKConfig+0x130>)
 800650e:	697b      	ldr	r3, [r7, #20]
 8006510:	f8c2 3090 	str.w	r3, [r2, #144]	@ 0x90
      }

      /* Wait for LSE reactivation if LSE was enable prior to Backup Domain reset */
      if (HAL_IS_BIT_SET(tmpregister, RCC_BDCR_LSEON))
 8006514:	697b      	ldr	r3, [r7, #20]
 8006516:	f003 0301 	and.w	r3, r3, #1
 800651a:	2b00      	cmp	r3, #0
 800651c:	d016      	beq.n	800654c <HAL_RCCEx_PeriphCLKConfig+0x10c>
      {
        /* Get Start Tick*/
        tickstart = HAL_GetTick();
 800651e:	f7fc fd0b 	bl	8002f38 <HAL_GetTick>
 8006522:	60f8      	str	r0, [r7, #12]

        /* Wait till LSE is ready */
        while(READ_BIT(RCC->BDCR, RCC_BDCR_LSERDY) == 0U)
 8006524:	e00b      	b.n	800653e <HAL_RCCEx_PeriphCLKConfig+0xfe>
        {
          if((HAL_GetTick() - tickstart) > RCC_LSE_TIMEOUT_VALUE)
 8006526:	f7fc fd07 	bl	8002f38 <HAL_GetTick>
 800652a:	4602      	mov	r2, r0
 800652c:	68fb      	ldr	r3, [r7, #12]
 800652e:	1ad3      	subs	r3, r2, r3
 8006530:	f241 3288 	movw	r2, #5000	@ 0x1388
 8006534:	4293      	cmp	r3, r2
 8006536:	d902      	bls.n	800653e <HAL_RCCEx_PeriphCLKConfig+0xfe>
          {
            ret = HAL_TIMEOUT;
 8006538:	2303      	movs	r3, #3
 800653a:	74fb      	strb	r3, [r7, #19]
            break;
 800653c:	e006      	b.n	800654c <HAL_RCCEx_PeriphCLKConfig+0x10c>
        while(READ_BIT(RCC->BDCR, RCC_BDCR_LSERDY) == 0U)
 800653e:	4b0c      	ldr	r3, [pc, #48]	@ (8006570 <HAL_RCCEx_PeriphCLKConfig+0x130>)
 8006540:	f8d3 3090 	ldr.w	r3, [r3, #144]	@ 0x90
 8006544:	f003 0302 	and.w	r3, r3, #2
 8006548:	2b00      	cmp	r3, #0
 800654a:	d0ec      	beq.n	8006526 <HAL_RCCEx_PeriphCLKConfig+0xe6>
          }
        }
      }
      
      if(ret == HAL_OK)
 800654c:	7cfb      	ldrb	r3, [r7, #19]
 800654e:	2b00      	cmp	r3, #0
 8006550:	d10b      	bne.n	800656a <HAL_RCCEx_PeriphCLKConfig+0x12a>
      {
        /* Apply new RTC clock source selection */
        __HAL_RCC_RTC_CONFIG(PeriphClkInit->RTCClockSelection);
 8006552:	4b07      	ldr	r3, [pc, #28]	@ (8006570 <HAL_RCCEx_PeriphCLKConfig+0x130>)
 8006554:	f8d3 3090 	ldr.w	r3, [r3, #144]	@ 0x90
 8006558:	f423 7240 	bic.w	r2, r3, #768	@ 0x300
 800655c:	687b      	ldr	r3, [r7, #4]
 800655e:	6d1b      	ldr	r3, [r3, #80]	@ 0x50
 8006560:	4903      	ldr	r1, [pc, #12]	@ (8006570 <HAL_RCCEx_PeriphCLKConfig+0x130>)
 8006562:	4313      	orrs	r3, r2
 8006564:	f8c1 3090 	str.w	r3, [r1, #144]	@ 0x90
 8006568:	e008      	b.n	800657c <HAL_RCCEx_PeriphCLKConfig+0x13c>
      }
      else
      {
        /* set overall return value */
        status = ret;
 800656a:	7cfb      	ldrb	r3, [r7, #19]
 800656c:	74bb      	strb	r3, [r7, #18]
 800656e:	e005      	b.n	800657c <HAL_RCCEx_PeriphCLKConfig+0x13c>
 8006570:	40021000 	.word	0x40021000
 8006574:	40007000 	.word	0x40007000
      }
    }
    else
    {
      /* set overall return value */
      status = ret;
 8006578:	7cfb      	ldrb	r3, [r7, #19]
 800657a:	74bb      	strb	r3, [r7, #18]
    }

    /* Restore clock configuration if changed */
    if(pwrclkchanged == SET)
 800657c:	7c7b      	ldrb	r3, [r7, #17]
 800657e:	2b01      	cmp	r3, #1
 8006580:	d105      	bne.n	800658e <HAL_RCCEx_PeriphCLKConfig+0x14e>
    {
      __HAL_RCC_PWR_CLK_DISABLE();
 8006582:	4ba7      	ldr	r3, [pc, #668]	@ (8006820 <HAL_RCCEx_PeriphCLKConfig+0x3e0>)
 8006584:	6d9b      	ldr	r3, [r3, #88]	@ 0x58
 8006586:	4aa6      	ldr	r2, [pc, #664]	@ (8006820 <HAL_RCCEx_PeriphCLKConfig+0x3e0>)
 8006588:	f023 5380 	bic.w	r3, r3, #268435456	@ 0x10000000
 800658c:	6593      	str	r3, [r2, #88]	@ 0x58
    }
  }

  /*-------------------------- USART1 clock source configuration -------------------*/
  if(((PeriphClkInit->PeriphClockSelection) & RCC_PERIPHCLK_USART1) == RCC_PERIPHCLK_USART1)
 800658e:	687b      	ldr	r3, [r7, #4]
 8006590:	681b      	ldr	r3, [r3, #0]
 8006592:	f003 0301 	and.w	r3, r3, #1
 8006596:	2b00      	cmp	r3, #0
 8006598:	d00a      	beq.n	80065b0 <HAL_RCCEx_PeriphCLKConfig+0x170>
  {
    /* Check the parameters */
    assert_param(IS_RCC_USART1CLKSOURCE(PeriphClkInit->Usart1ClockSelection));

    /* Configure the USART1 clock source */
    __HAL_RCC_USART1_CONFIG(PeriphClkInit->Usart1ClockSelection);
 800659a:	4ba1      	ldr	r3, [pc, #644]	@ (8006820 <HAL_RCCEx_PeriphCLKConfig+0x3e0>)
 800659c:	f8d3 3088 	ldr.w	r3, [r3, #136]	@ 0x88
 80065a0:	f023 0203 	bic.w	r2, r3, #3
 80065a4:	687b      	ldr	r3, [r7, #4]
 80065a6:	685b      	ldr	r3, [r3, #4]
 80065a8:	499d      	ldr	r1, [pc, #628]	@ (8006820 <HAL_RCCEx_PeriphCLKConfig+0x3e0>)
 80065aa:	4313      	orrs	r3, r2
 80065ac:	f8c1 3088 	str.w	r3, [r1, #136]	@ 0x88
  }

  /*-------------------------- USART2 clock source configuration -------------------*/
  if(((PeriphClkInit->PeriphClockSelection) & RCC_PERIPHCLK_USART2) == RCC_PERIPHCLK_USART2)
 80065b0:	687b      	ldr	r3, [r7, #4]
 80065b2:	681b      	ldr	r3, [r3, #0]
 80065b4:	f003 0302 	and.w	r3, r3, #2
 80065b8:	2b00      	cmp	r3, #0
 80065ba:	d00a      	beq.n	80065d2 <HAL_RCCEx_PeriphCLKConfig+0x192>
  {
    /* Check the parameters */
    assert_param(IS_RCC_USART2CLKSOURCE(PeriphClkInit->Usart2ClockSelection));

    /* Configure the USART2 clock source */
    __HAL_RCC_USART2_CONFIG(PeriphClkInit->Usart2ClockSelection);
 80065bc:	4b98      	ldr	r3, [pc, #608]	@ (8006820 <HAL_RCCEx_PeriphCLKConfig+0x3e0>)
 80065be:	f8d3 3088 	ldr.w	r3, [r3, #136]	@ 0x88
 80065c2:	f023 020c 	bic.w	r2, r3, #12
 80065c6:	687b      	ldr	r3, [r7, #4]
 80065c8:	689b      	ldr	r3, [r3, #8]
 80065ca:	4995      	ldr	r1, [pc, #596]	@ (8006820 <HAL_RCCEx_PeriphCLKConfig+0x3e0>)
 80065cc:	4313      	orrs	r3, r2
 80065ce:	f8c1 3088 	str.w	r3, [r1, #136]	@ 0x88
  }

#if defined(USART3)

  /*-------------------------- USART3 clock source configuration -------------------*/
  if(((PeriphClkInit->PeriphClockSelection) & RCC_PERIPHCLK_USART3) == RCC_PERIPHCLK_USART3)
 80065d2:	687b      	ldr	r3, [r7, #4]
 80065d4:	681b      	ldr	r3, [r3, #0]
 80065d6:	f003 0304 	and.w	r3, r3, #4
 80065da:	2b00      	cmp	r3, #0
 80065dc:	d00a      	beq.n	80065f4 <HAL_RCCEx_PeriphCLKConfig+0x1b4>
  {
    /* Check the parameters */
    assert_param(IS_RCC_USART3CLKSOURCE(PeriphClkInit->Usart3ClockSelection));

    /* Configure the USART3 clock source */
    __HAL_RCC_USART3_CONFIG(PeriphClkInit->Usart3ClockSelection);
 80065de:	4b90      	ldr	r3, [pc, #576]	@ (8006820 <HAL_RCCEx_PeriphCLKConfig+0x3e0>)
 80065e0:	f8d3 3088 	ldr.w	r3, [r3, #136]	@ 0x88
 80065e4:	f023 0230 	bic.w	r2, r3, #48	@ 0x30
 80065e8:	687b      	ldr	r3, [r7, #4]
 80065ea:	68db      	ldr	r3, [r3, #12]
 80065ec:	498c      	ldr	r1, [pc, #560]	@ (8006820 <HAL_RCCEx_PeriphCLKConfig+0x3e0>)
 80065ee:	4313      	orrs	r3, r2
 80065f0:	f8c1 3088 	str.w	r3, [r1, #136]	@ 0x88

#endif /* USART3 */

#if defined(UART4)
  /*-------------------------- UART4 clock source configuration --------------------*/
  if(((PeriphClkInit->PeriphClockSelection) & RCC_PERIPHCLK_UART4) == RCC_PERIPHCLK_UART4)
 80065f4:	687b      	ldr	r3, [r7, #4]
 80065f6:	681b      	ldr	r3, [r3, #0]
 80065f8:	f003 0308 	and.w	r3, r3, #8
 80065fc:	2b00      	cmp	r3, #0
 80065fe:	d00a      	beq.n	8006616 <HAL_RCCEx_PeriphCLKConfig+0x1d6>
  {
    /* Check the parameters */
    assert_param(IS_RCC_UART4CLKSOURCE(PeriphClkInit->Uart4ClockSelection));

    /* Configure the UART4 clock source */
    __HAL_RCC_UART4_CONFIG(PeriphClkInit->Uart4ClockSelection);
 8006600:	4b87      	ldr	r3, [pc, #540]	@ (8006820 <HAL_RCCEx_PeriphCLKConfig+0x3e0>)
 8006602:	f8d3 3088 	ldr.w	r3, [r3, #136]	@ 0x88
 8006606:	f023 02c0 	bic.w	r2, r3, #192	@ 0xc0
 800660a:	687b      	ldr	r3, [r7, #4]
 800660c:	691b      	ldr	r3, [r3, #16]
 800660e:	4984      	ldr	r1, [pc, #528]	@ (8006820 <HAL_RCCEx_PeriphCLKConfig+0x3e0>)
 8006610:	4313      	orrs	r3, r2
 8006612:	f8c1 3088 	str.w	r3, [r1, #136]	@ 0x88
#endif /* UART4 */

#if defined(UART5)

  /*-------------------------- UART5 clock source configuration --------------------*/
  if(((PeriphClkInit->PeriphClockSelection) & RCC_PERIPHCLK_UART5) == RCC_PERIPHCLK_UART5)
 8006616:	687b      	ldr	r3, [r7, #4]
 8006618:	681b      	ldr	r3, [r3, #0]
 800661a:	f003 0310 	and.w	r3, r3, #16
 800661e:	2b00      	cmp	r3, #0
 8006620:	d00a      	beq.n	8006638 <HAL_RCCEx_PeriphCLKConfig+0x1f8>
  {
    /* Check the parameters */
    assert_param(IS_RCC_UART5CLKSOURCE(PeriphClkInit->Uart5ClockSelection));

    /* Configure the UART5 clock source */
    __HAL_RCC_UART5_CONFIG(PeriphClkInit->Uart5ClockSelection);
 8006622:	4b7f      	ldr	r3, [pc, #508]	@ (8006820 <HAL_RCCEx_PeriphCLKConfig+0x3e0>)
 8006624:	f8d3 3088 	ldr.w	r3, [r3, #136]	@ 0x88
 8006628:	f423 7240 	bic.w	r2, r3, #768	@ 0x300
 800662c:	687b      	ldr	r3, [r7, #4]
 800662e:	695b      	ldr	r3, [r3, #20]
 8006630:	497b      	ldr	r1, [pc, #492]	@ (8006820 <HAL_RCCEx_PeriphCLKConfig+0x3e0>)
 8006632:	4313      	orrs	r3, r2
 8006634:	f8c1 3088 	str.w	r3, [r1, #136]	@ 0x88
  }

#endif /* UART5 */

  /*-------------------------- LPUART1 clock source configuration ------------------*/
  if(((PeriphClkInit->PeriphClockSelection) & RCC_PERIPHCLK_LPUART1) == RCC_PERIPHCLK_LPUART1)
 8006638:	687b      	ldr	r3, [r7, #4]
 800663a:	681b      	ldr	r3, [r3, #0]
 800663c:	f003 0320 	and.w	r3, r3, #32
 8006640:	2b00      	cmp	r3, #0
 8006642:	d00a      	beq.n	800665a <HAL_RCCEx_PeriphCLKConfig+0x21a>
  {
    /* Check the parameters */
    assert_param(IS_RCC_LPUART1CLKSOURCE(PeriphClkInit->Lpuart1ClockSelection));

    /* Configure the LPUAR1 clock source */
    __HAL_RCC_LPUART1_CONFIG(PeriphClkInit->Lpuart1ClockSelection);
 8006644:	4b76      	ldr	r3, [pc, #472]	@ (8006820 <HAL_RCCEx_PeriphCLKConfig+0x3e0>)
 8006646:	f8d3 3088 	ldr.w	r3, [r3, #136]	@ 0x88
 800664a:	f423 6240 	bic.w	r2, r3, #3072	@ 0xc00
 800664e:	687b      	ldr	r3, [r7, #4]
 8006650:	699b      	ldr	r3, [r3, #24]
 8006652:	4973      	ldr	r1, [pc, #460]	@ (8006820 <HAL_RCCEx_PeriphCLKConfig+0x3e0>)
 8006654:	4313      	orrs	r3, r2
 8006656:	f8c1 3088 	str.w	r3, [r1, #136]	@ 0x88
  }

  /*-------------------------- I2C1 clock source configuration ---------------------*/
  if(((PeriphClkInit->PeriphClockSelection) & RCC_PERIPHCLK_I2C1) == RCC_PERIPHCLK_I2C1)
 800665a:	687b      	ldr	r3, [r7, #4]
 800665c:	681b      	ldr	r3, [r3, #0]
 800665e:	f003 0340 	and.w	r3, r3, #64	@ 0x40
 8006662:	2b00      	cmp	r3, #0
 8006664:	d00a      	beq.n	800667c <HAL_RCCEx_PeriphCLKConfig+0x23c>
  {
    /* Check the parameters */
    assert_param(IS_RCC_I2C1CLKSOURCE(PeriphClkInit->I2c1ClockSelection));

    /* Configure the I2C1 clock source */
    __HAL_RCC_I2C1_CONFIG(PeriphClkInit->I2c1ClockSelection);
 8006666:	4b6e      	ldr	r3, [pc, #440]	@ (8006820 <HAL_RCCEx_PeriphCLKConfig+0x3e0>)
 8006668:	f8d3 3088 	ldr.w	r3, [r3, #136]	@ 0x88
 800666c:	f423 5240 	bic.w	r2, r3, #12288	@ 0x3000
 8006670:	687b      	ldr	r3, [r7, #4]
 8006672:	69db      	ldr	r3, [r3, #28]
 8006674:	496a      	ldr	r1, [pc, #424]	@ (8006820 <HAL_RCCEx_PeriphCLKConfig+0x3e0>)
 8006676:	4313      	orrs	r3, r2
 8006678:	f8c1 3088 	str.w	r3, [r1, #136]	@ 0x88
  }

  /*-------------------------- I2C2 clock source configuration ---------------------*/
  if(((PeriphClkInit->PeriphClockSelection) & RCC_PERIPHCLK_I2C2) == RCC_PERIPHCLK_I2C2)
 800667c:	687b      	ldr	r3, [r7, #4]
 800667e:	681b      	ldr	r3, [r3, #0]
 8006680:	f003 0380 	and.w	r3, r3, #128	@ 0x80
 8006684:	2b00      	cmp	r3, #0
 8006686:	d00a      	beq.n	800669e <HAL_RCCEx_PeriphCLKConfig+0x25e>
  {
    /* Check the parameters */
    assert_param(IS_RCC_I2C2CLKSOURCE(PeriphClkInit->I2c2ClockSelection));

    /* Configure the I2C2 clock source */
    __HAL_RCC_I2C2_CONFIG(PeriphClkInit->I2c2ClockSelection);
 8006688:	4b65      	ldr	r3, [pc, #404]	@ (8006820 <HAL_RCCEx_PeriphCLKConfig+0x3e0>)
 800668a:	f8d3 3088 	ldr.w	r3, [r3, #136]	@ 0x88
 800668e:	f423 4240 	bic.w	r2, r3, #49152	@ 0xc000
 8006692:	687b      	ldr	r3, [r7, #4]
 8006694:	6a1b      	ldr	r3, [r3, #32]
 8006696:	4962      	ldr	r1, [pc, #392]	@ (8006820 <HAL_RCCEx_PeriphCLKConfig+0x3e0>)
 8006698:	4313      	orrs	r3, r2
 800669a:	f8c1 3088 	str.w	r3, [r1, #136]	@ 0x88
  }
#if defined(I2C3)

  /*-------------------------- I2C3 clock source configuration ---------------------*/
  if(((PeriphClkInit->PeriphClockSelection) & RCC_PERIPHCLK_I2C3) == RCC_PERIPHCLK_I2C3)
 800669e:	687b      	ldr	r3, [r7, #4]
 80066a0:	681b      	ldr	r3, [r3, #0]
 80066a2:	f403 7380 	and.w	r3, r3, #256	@ 0x100
 80066a6:	2b00      	cmp	r3, #0
 80066a8:	d00a      	beq.n	80066c0 <HAL_RCCEx_PeriphCLKConfig+0x280>
  {
    /* Check the parameters */
    assert_param(IS_RCC_I2C3CLKSOURCE(PeriphClkInit->I2c3ClockSelection));

    /* Configure the I2C3 clock source */
    __HAL_RCC_I2C3_CONFIG(PeriphClkInit->I2c3ClockSelection);
 80066aa:	4b5d      	ldr	r3, [pc, #372]	@ (8006820 <HAL_RCCEx_PeriphCLKConfig+0x3e0>)
 80066ac:	f8d3 3088 	ldr.w	r3, [r3, #136]	@ 0x88
 80066b0:	f423 3240 	bic.w	r2, r3, #196608	@ 0x30000
 80066b4:	687b      	ldr	r3, [r7, #4]
 80066b6:	6a5b      	ldr	r3, [r3, #36]	@ 0x24
 80066b8:	4959      	ldr	r1, [pc, #356]	@ (8006820 <HAL_RCCEx_PeriphCLKConfig+0x3e0>)
 80066ba:	4313      	orrs	r3, r2
 80066bc:	f8c1 3088 	str.w	r3, [r1, #136]	@ 0x88

#endif /* I2C3 */
#if defined(I2C4)

  /*-------------------------- I2C4 clock source configuration ---------------------*/
  if(((PeriphClkInit->PeriphClockSelection) & RCC_PERIPHCLK_I2C4) == RCC_PERIPHCLK_I2C4)
 80066c0:	687b      	ldr	r3, [r7, #4]
 80066c2:	681b      	ldr	r3, [r3, #0]
 80066c4:	f403 3300 	and.w	r3, r3, #131072	@ 0x20000
 80066c8:	2b00      	cmp	r3, #0
 80066ca:	d00a      	beq.n	80066e2 <HAL_RCCEx_PeriphCLKConfig+0x2a2>
  {
    /* Check the parameters */
    assert_param(IS_RCC_I2C4CLKSOURCE(PeriphClkInit->I2c4ClockSelection));

    /* Configure the I2C4 clock source */
    __HAL_RCC_I2C4_CONFIG(PeriphClkInit->I2c4ClockSelection);
 80066cc:	4b54      	ldr	r3, [pc, #336]	@ (8006820 <HAL_RCCEx_PeriphCLKConfig+0x3e0>)
 80066ce:	f8d3 309c 	ldr.w	r3, [r3, #156]	@ 0x9c
 80066d2:	f023 0203 	bic.w	r2, r3, #3
 80066d6:	687b      	ldr	r3, [r7, #4]
 80066d8:	6a9b      	ldr	r3, [r3, #40]	@ 0x28
 80066da:	4951      	ldr	r1, [pc, #324]	@ (8006820 <HAL_RCCEx_PeriphCLKConfig+0x3e0>)
 80066dc:	4313      	orrs	r3, r2
 80066de:	f8c1 309c 	str.w	r3, [r1, #156]	@ 0x9c
  }

#endif /* I2C4 */

  /*-------------------------- LPTIM1 clock source configuration ---------------------*/
  if(((PeriphClkInit->PeriphClockSelection) & RCC_PERIPHCLK_LPTIM1) == RCC_PERIPHCLK_LPTIM1)
 80066e2:	687b      	ldr	r3, [r7, #4]
 80066e4:	681b      	ldr	r3, [r3, #0]
 80066e6:	f403 7300 	and.w	r3, r3, #512	@ 0x200
 80066ea:	2b00      	cmp	r3, #0
 80066ec:	d00a      	beq.n	8006704 <HAL_RCCEx_PeriphCLKConfig+0x2c4>
  {
    /* Check the parameters */
    assert_param(IS_RCC_LPTIM1CLKSOURCE(PeriphClkInit->Lptim1ClockSelection));

    /* Configure the LPTIM1 clock source */
    __HAL_RCC_LPTIM1_CONFIG(PeriphClkInit->Lptim1ClockSelection);
 80066ee:	4b4c      	ldr	r3, [pc, #304]	@ (8006820 <HAL_RCCEx_PeriphCLKConfig+0x3e0>)
 80066f0:	f8d3 3088 	ldr.w	r3, [r3, #136]	@ 0x88
 80066f4:	f423 2240 	bic.w	r2, r3, #786432	@ 0xc0000
 80066f8:	687b      	ldr	r3, [r7, #4]
 80066fa:	6adb      	ldr	r3, [r3, #44]	@ 0x2c
 80066fc:	4948      	ldr	r1, [pc, #288]	@ (8006820 <HAL_RCCEx_PeriphCLKConfig+0x3e0>)
 80066fe:	4313      	orrs	r3, r2
 8006700:	f8c1 3088 	str.w	r3, [r1, #136]	@ 0x88
  }

#if defined(SAI1) 
  /*-------------------------- SAI1 clock source configuration ---------------------*/
  if(((PeriphClkInit->PeriphClockSelection) & RCC_PERIPHCLK_SAI1) == RCC_PERIPHCLK_SAI1)
 8006704:	687b      	ldr	r3, [r7, #4]
 8006706:	681b      	ldr	r3, [r3, #0]
 8006708:	f403 6380 	and.w	r3, r3, #1024	@ 0x400
 800670c:	2b00      	cmp	r3, #0
 800670e:	d015      	beq.n	800673c <HAL_RCCEx_PeriphCLKConfig+0x2fc>
  {
    /* Check the parameters */
    assert_param(IS_RCC_SAI1CLKSOURCE(PeriphClkInit->Sai1ClockSelection));

    /* Configure the SAI1 interface clock source */
    __HAL_RCC_SAI1_CONFIG(PeriphClkInit->Sai1ClockSelection);
 8006710:	4b43      	ldr	r3, [pc, #268]	@ (8006820 <HAL_RCCEx_PeriphCLKConfig+0x3e0>)
 8006712:	f8d3 3088 	ldr.w	r3, [r3, #136]	@ 0x88
 8006716:	f423 1240 	bic.w	r2, r3, #3145728	@ 0x300000
 800671a:	687b      	ldr	r3, [r7, #4]
 800671c:	6b1b      	ldr	r3, [r3, #48]	@ 0x30
 800671e:	4940      	ldr	r1, [pc, #256]	@ (8006820 <HAL_RCCEx_PeriphCLKConfig+0x3e0>)
 8006720:	4313      	orrs	r3, r2
 8006722:	f8c1 3088 	str.w	r3, [r1, #136]	@ 0x88
    
    if(PeriphClkInit->Sai1ClockSelection == RCC_SAI1CLKSOURCE_PLL)
 8006726:	687b      	ldr	r3, [r7, #4]
 8006728:	6b1b      	ldr	r3, [r3, #48]	@ 0x30
 800672a:	f5b3 1f80 	cmp.w	r3, #1048576	@ 0x100000
 800672e:	d105      	bne.n	800673c <HAL_RCCEx_PeriphCLKConfig+0x2fc>
    {
      /* Enable PLL48M1CLK output */
      __HAL_RCC_PLLCLKOUT_ENABLE(RCC_PLL_48M1CLK);
 8006730:	4b3b      	ldr	r3, [pc, #236]	@ (8006820 <HAL_RCCEx_PeriphCLKConfig+0x3e0>)
 8006732:	68db      	ldr	r3, [r3, #12]
 8006734:	4a3a      	ldr	r2, [pc, #232]	@ (8006820 <HAL_RCCEx_PeriphCLKConfig+0x3e0>)
 8006736:	f443 1380 	orr.w	r3, r3, #1048576	@ 0x100000
 800673a:	60d3      	str	r3, [r2, #12]

#endif /* SAI1 */

#if defined(SPI_I2S_SUPPORT)
  /*-------------------------- I2S clock source configuration ---------------------*/
  if(((PeriphClkInit->PeriphClockSelection) & RCC_PERIPHCLK_I2S) == RCC_PERIPHCLK_I2S)
 800673c:	687b      	ldr	r3, [r7, #4]
 800673e:	681b      	ldr	r3, [r3, #0]
 8006740:	f403 6300 	and.w	r3, r3, #2048	@ 0x800
 8006744:	2b00      	cmp	r3, #0
 8006746:	d015      	beq.n	8006774 <HAL_RCCEx_PeriphCLKConfig+0x334>
  {
    /* Check the parameters */
    assert_param(IS_RCC_I2SCLKSOURCE(PeriphClkInit->I2sClockSelection));

    /* Configure the I2S interface clock source */
    __HAL_RCC_I2S_CONFIG(PeriphClkInit->I2sClockSelection);
 8006748:	4b35      	ldr	r3, [pc, #212]	@ (8006820 <HAL_RCCEx_PeriphCLKConfig+0x3e0>)
 800674a:	f8d3 3088 	ldr.w	r3, [r3, #136]	@ 0x88
 800674e:	f423 0240 	bic.w	r2, r3, #12582912	@ 0xc00000
 8006752:	687b      	ldr	r3, [r7, #4]
 8006754:	6b5b      	ldr	r3, [r3, #52]	@ 0x34
 8006756:	4932      	ldr	r1, [pc, #200]	@ (8006820 <HAL_RCCEx_PeriphCLKConfig+0x3e0>)
 8006758:	4313      	orrs	r3, r2
 800675a:	f8c1 3088 	str.w	r3, [r1, #136]	@ 0x88
    
    if(PeriphClkInit->I2sClockSelection == RCC_I2SCLKSOURCE_PLL)
 800675e:	687b      	ldr	r3, [r7, #4]
 8006760:	6b5b      	ldr	r3, [r3, #52]	@ 0x34
 8006762:	f5b3 0f80 	cmp.w	r3, #4194304	@ 0x400000
 8006766:	d105      	bne.n	8006774 <HAL_RCCEx_PeriphCLKConfig+0x334>
    {
      /* Enable PLL48M1CLK output */
      __HAL_RCC_PLLCLKOUT_ENABLE(RCC_PLL_48M1CLK);
 8006768:	4b2d      	ldr	r3, [pc, #180]	@ (8006820 <HAL_RCCEx_PeriphCLKConfig+0x3e0>)
 800676a:	68db      	ldr	r3, [r3, #12]
 800676c:	4a2c      	ldr	r2, [pc, #176]	@ (8006820 <HAL_RCCEx_PeriphCLKConfig+0x3e0>)
 800676e:	f443 1380 	orr.w	r3, r3, #1048576	@ 0x100000
 8006772:	60d3      	str	r3, [r2, #12]

#endif /* SPI_I2S_SUPPORT */

#if defined(FDCAN1)
  /*-------------------------- FDCAN clock source configuration ---------------------*/
  if(((PeriphClkInit->PeriphClockSelection) & RCC_PERIPHCLK_FDCAN) == RCC_PERIPHCLK_FDCAN)
 8006774:	687b      	ldr	r3, [r7, #4]
 8006776:	681b      	ldr	r3, [r3, #0]
 8006778:	f403 5380 	and.w	r3, r3, #4096	@ 0x1000
 800677c:	2b00      	cmp	r3, #0
 800677e:	d015      	beq.n	80067ac <HAL_RCCEx_PeriphCLKConfig+0x36c>
  {
    /* Check the parameters */
    assert_param(IS_RCC_FDCANCLKSOURCE(PeriphClkInit->FdcanClockSelection));

    /* Configure the FDCAN interface clock source */
    __HAL_RCC_FDCAN_CONFIG(PeriphClkInit->FdcanClockSelection);
 8006780:	4b27      	ldr	r3, [pc, #156]	@ (8006820 <HAL_RCCEx_PeriphCLKConfig+0x3e0>)
 8006782:	f8d3 3088 	ldr.w	r3, [r3, #136]	@ 0x88
 8006786:	f023 7240 	bic.w	r2, r3, #50331648	@ 0x3000000
 800678a:	687b      	ldr	r3, [r7, #4]
 800678c:	6b9b      	ldr	r3, [r3, #56]	@ 0x38
 800678e:	4924      	ldr	r1, [pc, #144]	@ (8006820 <HAL_RCCEx_PeriphCLKConfig+0x3e0>)
 8006790:	4313      	orrs	r3, r2
 8006792:	f8c1 3088 	str.w	r3, [r1, #136]	@ 0x88
    
    if(PeriphClkInit->FdcanClockSelection == RCC_FDCANCLKSOURCE_PLL)
 8006796:	687b      	ldr	r3, [r7, #4]
 8006798:	6b9b      	ldr	r3, [r3, #56]	@ 0x38
 800679a:	f1b3 7f80 	cmp.w	r3, #16777216	@ 0x1000000
 800679e:	d105      	bne.n	80067ac <HAL_RCCEx_PeriphCLKConfig+0x36c>
    {
      /* Enable PLL48M1CLK output */
      __HAL_RCC_PLLCLKOUT_ENABLE(RCC_PLL_48M1CLK);
 80067a0:	4b1f      	ldr	r3, [pc, #124]	@ (8006820 <HAL_RCCEx_PeriphCLKConfig+0x3e0>)
 80067a2:	68db      	ldr	r3, [r3, #12]
 80067a4:	4a1e      	ldr	r2, [pc, #120]	@ (8006820 <HAL_RCCEx_PeriphCLKConfig+0x3e0>)
 80067a6:	f443 1380 	orr.w	r3, r3, #1048576	@ 0x100000
 80067aa:	60d3      	str	r3, [r2, #12]
#endif /* FDCAN1 */

#if defined(USB)

  /*-------------------------- USB clock source configuration ----------------------*/
  if(((PeriphClkInit->PeriphClockSelection) & RCC_PERIPHCLK_USB) == (RCC_PERIPHCLK_USB))
 80067ac:	687b      	ldr	r3, [r7, #4]
 80067ae:	681b      	ldr	r3, [r3, #0]
 80067b0:	f403 5300 	and.w	r3, r3, #8192	@ 0x2000
 80067b4:	2b00      	cmp	r3, #0
 80067b6:	d015      	beq.n	80067e4 <HAL_RCCEx_PeriphCLKConfig+0x3a4>
  {
    assert_param(IS_RCC_USBCLKSOURCE(PeriphClkInit->UsbClockSelection));
    __HAL_RCC_USB_CONFIG(PeriphClkInit->UsbClockSelection);
 80067b8:	4b19      	ldr	r3, [pc, #100]	@ (8006820 <HAL_RCCEx_PeriphCLKConfig+0x3e0>)
 80067ba:	f8d3 3088 	ldr.w	r3, [r3, #136]	@ 0x88
 80067be:	f023 6240 	bic.w	r2, r3, #201326592	@ 0xc000000
 80067c2:	687b      	ldr	r3, [r7, #4]
 80067c4:	6bdb      	ldr	r3, [r3, #60]	@ 0x3c
 80067c6:	4916      	ldr	r1, [pc, #88]	@ (8006820 <HAL_RCCEx_PeriphCLKConfig+0x3e0>)
 80067c8:	4313      	orrs	r3, r2
 80067ca:	f8c1 3088 	str.w	r3, [r1, #136]	@ 0x88

    if(PeriphClkInit->UsbClockSelection == RCC_USBCLKSOURCE_PLL)
 80067ce:	687b      	ldr	r3, [r7, #4]
 80067d0:	6bdb      	ldr	r3, [r3, #60]	@ 0x3c
 80067d2:	f1b3 6f00 	cmp.w	r3, #134217728	@ 0x8000000
 80067d6:	d105      	bne.n	80067e4 <HAL_RCCEx_PeriphCLKConfig+0x3a4>
    {
      /* Enable PLL48M1CLK output */
      __HAL_RCC_PLLCLKOUT_ENABLE(RCC_PLL_48M1CLK);
 80067d8:	4b11      	ldr	r3, [pc, #68]	@ (8006820 <HAL_RCCEx_PeriphCLKConfig+0x3e0>)
 80067da:	68db      	ldr	r3, [r3, #12]
 80067dc:	4a10      	ldr	r2, [pc, #64]	@ (8006820 <HAL_RCCEx_PeriphCLKConfig+0x3e0>)
 80067de:	f443 1380 	orr.w	r3, r3, #1048576	@ 0x100000
 80067e2:	60d3      	str	r3, [r2, #12]
  }

#endif /* USB */

  /*-------------------------- RNG clock source configuration ----------------------*/
  if(((PeriphClkInit->PeriphClockSelection) & RCC_PERIPHCLK_RNG) == (RCC_PERIPHCLK_RNG))
 80067e4:	687b      	ldr	r3, [r7, #4]
 80067e6:	681b      	ldr	r3, [r3, #0]
 80067e8:	f403 4380 	and.w	r3, r3, #16384	@ 0x4000
 80067ec:	2b00      	cmp	r3, #0
 80067ee:	d019      	beq.n	8006824 <HAL_RCCEx_PeriphCLKConfig+0x3e4>
  {
    assert_param(IS_RCC_RNGCLKSOURCE(PeriphClkInit->RngClockSelection));
    __HAL_RCC_RNG_CONFIG(PeriphClkInit->RngClockSelection);
 80067f0:	4b0b      	ldr	r3, [pc, #44]	@ (8006820 <HAL_RCCEx_PeriphCLKConfig+0x3e0>)
 80067f2:	f8d3 3088 	ldr.w	r3, [r3, #136]	@ 0x88
 80067f6:	f023 6240 	bic.w	r2, r3, #201326592	@ 0xc000000
 80067fa:	687b      	ldr	r3, [r7, #4]
 80067fc:	6c1b      	ldr	r3, [r3, #64]	@ 0x40
 80067fe:	4908      	ldr	r1, [pc, #32]	@ (8006820 <HAL_RCCEx_PeriphCLKConfig+0x3e0>)
 8006800:	4313      	orrs	r3, r2
 8006802:	f8c1 3088 	str.w	r3, [r1, #136]	@ 0x88

    if(PeriphClkInit->RngClockSelection == RCC_RNGCLKSOURCE_PLL)
 8006806:	687b      	ldr	r3, [r7, #4]
 8006808:	6c1b      	ldr	r3, [r3, #64]	@ 0x40
 800680a:	f1b3 6f00 	cmp.w	r3, #134217728	@ 0x8000000
 800680e:	d109      	bne.n	8006824 <HAL_RCCEx_PeriphCLKConfig+0x3e4>
    {
      /* Enable PLL48M1CLK output */
      __HAL_RCC_PLLCLKOUT_ENABLE(RCC_PLL_48M1CLK);
 8006810:	4b03      	ldr	r3, [pc, #12]	@ (8006820 <HAL_RCCEx_PeriphCLKConfig+0x3e0>)
 8006812:	68db      	ldr	r3, [r3, #12]
 8006814:	4a02      	ldr	r2, [pc, #8]	@ (8006820 <HAL_RCCEx_PeriphCLKConfig+0x3e0>)
 8006816:	f443 1380 	orr.w	r3, r3, #1048576	@ 0x100000
 800681a:	60d3      	str	r3, [r2, #12]
 800681c:	e002      	b.n	8006824 <HAL_RCCEx_PeriphCLKConfig+0x3e4>
 800681e:	bf00      	nop
 8006820:	40021000 	.word	0x40021000
    }
  }

  /*-------------------------- ADC12 clock source configuration ----------------------*/
  if(((PeriphClkInit->PeriphClockSelection) & RCC_PERIPHCLK_ADC12) == RCC_PERIPHCLK_ADC12)
 8006824:	687b      	ldr	r3, [r7, #4]
 8006826:	681b      	ldr	r3, [r3, #0]
 8006828:	f403 4300 	and.w	r3, r3, #32768	@ 0x8000
 800682c:	2b00      	cmp	r3, #0
 800682e:	d015      	beq.n	800685c <HAL_RCCEx_PeriphCLKConfig+0x41c>
  {
    /* Check the parameters */
    assert_param(IS_RCC_ADC12CLKSOURCE(PeriphClkInit->Adc12ClockSelection));

    /* Configure the ADC12 interface clock source */
    __HAL_RCC_ADC12_CONFIG(PeriphClkInit->Adc12ClockSelection);
 8006830:	4b29      	ldr	r3, [pc, #164]	@ (80068d8 <HAL_RCCEx_PeriphCLKConfig+0x498>)
 8006832:	f8d3 3088 	ldr.w	r3, [r3, #136]	@ 0x88
 8006836:	f023 5240 	bic.w	r2, r3, #805306368	@ 0x30000000
 800683a:	687b      	ldr	r3, [r7, #4]
 800683c:	6c5b      	ldr	r3, [r3, #68]	@ 0x44
 800683e:	4926      	ldr	r1, [pc, #152]	@ (80068d8 <HAL_RCCEx_PeriphCLKConfig+0x498>)
 8006840:	4313      	orrs	r3, r2
 8006842:	f8c1 3088 	str.w	r3, [r1, #136]	@ 0x88
    
    if(PeriphClkInit->Adc12ClockSelection == RCC_ADC12CLKSOURCE_PLL)
 8006846:	687b      	ldr	r3, [r7, #4]
 8006848:	6c5b      	ldr	r3, [r3, #68]	@ 0x44
 800684a:	f1b3 5f80 	cmp.w	r3, #268435456	@ 0x10000000
 800684e:	d105      	bne.n	800685c <HAL_RCCEx_PeriphCLKConfig+0x41c>
    {
      /* Enable PLLADCCLK output */
      __HAL_RCC_PLLCLKOUT_ENABLE(RCC_PLL_ADCCLK);
 8006850:	4b21      	ldr	r3, [pc, #132]	@ (80068d8 <HAL_RCCEx_PeriphCLKConfig+0x498>)
 8006852:	68db      	ldr	r3, [r3, #12]
 8006854:	4a20      	ldr	r2, [pc, #128]	@ (80068d8 <HAL_RCCEx_PeriphCLKConfig+0x498>)
 8006856:	f443 3380 	orr.w	r3, r3, #65536	@ 0x10000
 800685a:	60d3      	str	r3, [r2, #12]
    }
  }
  
#if defined(ADC345_COMMON)
  /*-------------------------- ADC345 clock source configuration ----------------------*/
  if(((PeriphClkInit->PeriphClockSelection) & RCC_PERIPHCLK_ADC345) == RCC_PERIPHCLK_ADC345)
 800685c:	687b      	ldr	r3, [r7, #4]
 800685e:	681b      	ldr	r3, [r3, #0]
 8006860:	f403 3380 	and.w	r3, r3, #65536	@ 0x10000
 8006864:	2b00      	cmp	r3, #0
 8006866:	d015      	beq.n	8006894 <HAL_RCCEx_PeriphCLKConfig+0x454>
  {
    /* Check the parameters */
    assert_param(IS_RCC_ADC345CLKSOURCE(PeriphClkInit->Adc345ClockSelection));

    /* Configure the ADC345 interface clock source */
    __HAL_RCC_ADC345_CONFIG(PeriphClkInit->Adc345ClockSelection);
 8006868:	4b1b      	ldr	r3, [pc, #108]	@ (80068d8 <HAL_RCCEx_PeriphCLKConfig+0x498>)
 800686a:	f8d3 3088 	ldr.w	r3, [r3, #136]	@ 0x88
 800686e:	f023 4240 	bic.w	r2, r3, #3221225472	@ 0xc0000000
 8006872:	687b      	ldr	r3, [r7, #4]
 8006874:	6c9b      	ldr	r3, [r3, #72]	@ 0x48
 8006876:	4918      	ldr	r1, [pc, #96]	@ (80068d8 <HAL_RCCEx_PeriphCLKConfig+0x498>)
 8006878:	4313      	orrs	r3, r2
 800687a:	f8c1 3088 	str.w	r3, [r1, #136]	@ 0x88
    
    if(PeriphClkInit->Adc345ClockSelection == RCC_ADC345CLKSOURCE_PLL)
 800687e:	687b      	ldr	r3, [r7, #4]
 8006880:	6c9b      	ldr	r3, [r3, #72]	@ 0x48
 8006882:	f1b3 4f80 	cmp.w	r3, #1073741824	@ 0x40000000
 8006886:	d105      	bne.n	8006894 <HAL_RCCEx_PeriphCLKConfig+0x454>
    {
      /* Enable PLLADCCLK output */
      __HAL_RCC_PLLCLKOUT_ENABLE(RCC_PLL_ADCCLK);
 8006888:	4b13      	ldr	r3, [pc, #76]	@ (80068d8 <HAL_RCCEx_PeriphCLKConfig+0x498>)
 800688a:	68db      	ldr	r3, [r3, #12]
 800688c:	4a12      	ldr	r2, [pc, #72]	@ (80068d8 <HAL_RCCEx_PeriphCLKConfig+0x498>)
 800688e:	f443 3380 	orr.w	r3, r3, #65536	@ 0x10000
 8006892:	60d3      	str	r3, [r2, #12]
#endif /* ADC345_COMMON */

#if defined(QUADSPI)

  /*-------------------------- QuadSPIx clock source configuration ----------------*/
  if(((PeriphClkInit->PeriphClockSelection) & RCC_PERIPHCLK_QSPI) == RCC_PERIPHCLK_QSPI)
 8006894:	687b      	ldr	r3, [r7, #4]
 8006896:	681b      	ldr	r3, [r3, #0]
 8006898:	f403 2380 	and.w	r3, r3, #262144	@ 0x40000
 800689c:	2b00      	cmp	r3, #0
 800689e:	d015      	beq.n	80068cc <HAL_RCCEx_PeriphCLKConfig+0x48c>
  {
    /* Check the parameters */
    assert_param(IS_RCC_QSPICLKSOURCE(PeriphClkInit->QspiClockSelection));

    /* Configure the QuadSPI clock source */
    __HAL_RCC_QSPI_CONFIG(PeriphClkInit->QspiClockSelection);
 80068a0:	4b0d      	ldr	r3, [pc, #52]	@ (80068d8 <HAL_RCCEx_PeriphCLKConfig+0x498>)
 80068a2:	f8d3 309c 	ldr.w	r3, [r3, #156]	@ 0x9c
 80068a6:	f423 1240 	bic.w	r2, r3, #3145728	@ 0x300000
 80068aa:	687b      	ldr	r3, [r7, #4]
 80068ac:	6cdb      	ldr	r3, [r3, #76]	@ 0x4c
 80068ae:	490a      	ldr	r1, [pc, #40]	@ (80068d8 <HAL_RCCEx_PeriphCLKConfig+0x498>)
 80068b0:	4313      	orrs	r3, r2
 80068b2:	f8c1 309c 	str.w	r3, [r1, #156]	@ 0x9c

    if(PeriphClkInit->QspiClockSelection == RCC_QSPICLKSOURCE_PLL)
 80068b6:	687b      	ldr	r3, [r7, #4]
 80068b8:	6cdb      	ldr	r3, [r3, #76]	@ 0x4c
 80068ba:	f5b3 1f00 	cmp.w	r3, #2097152	@ 0x200000
 80068be:	d105      	bne.n	80068cc <HAL_RCCEx_PeriphCLKConfig+0x48c>
    {
      /* Enable PLL48M1CLK output */
      __HAL_RCC_PLLCLKOUT_ENABLE(RCC_PLL_48M1CLK);
 80068c0:	4b05      	ldr	r3, [pc, #20]	@ (80068d8 <HAL_RCCEx_PeriphCLKConfig+0x498>)
 80068c2:	68db      	ldr	r3, [r3, #12]
 80068c4:	4a04      	ldr	r2, [pc, #16]	@ (80068d8 <HAL_RCCEx_PeriphCLKConfig+0x498>)
 80068c6:	f443 1380 	orr.w	r3, r3, #1048576	@ 0x100000
 80068ca:	60d3      	str	r3, [r2, #12]
    }
  }

#endif /* QUADSPI */

  return status;
 80068cc:	7cbb      	ldrb	r3, [r7, #18]
}
 80068ce:	4618      	mov	r0, r3
 80068d0:	3718      	adds	r7, #24
 80068d2:	46bd      	mov	sp, r7
 80068d4:	bd80      	pop	{r7, pc}
 80068d6:	bf00      	nop
 80068d8:	40021000 	.word	0x40021000

080068dc <HAL_TIM_Base_Init>:
  *         Ex: call @ref HAL_TIM_Base_DeInit() before HAL_TIM_Base_Init()
  * @param  htim TIM Base handle
  * @retval HAL status
  */
HAL_StatusTypeDef HAL_TIM_Base_Init(TIM_HandleTypeDef *htim)
{
 80068dc:	b580      	push	{r7, lr}
 80068de:	b082      	sub	sp, #8
 80068e0:	af00      	add	r7, sp, #0
 80068e2:	6078      	str	r0, [r7, #4]
  /* Check the TIM handle allocation */
  if (htim == NULL)
 80068e4:	687b      	ldr	r3, [r7, #4]
 80068e6:	2b00      	cmp	r3, #0
 80068e8:	d101      	bne.n	80068ee <HAL_TIM_Base_Init+0x12>
  {
    return HAL_ERROR;
 80068ea:	2301      	movs	r3, #1
 80068ec:	e049      	b.n	8006982 <HAL_TIM_Base_Init+0xa6>
  assert_param(IS_TIM_COUNTER_MODE(htim->Init.CounterMode));
  assert_param(IS_TIM_CLOCKDIVISION_DIV(htim->Init.ClockDivision));
  assert_param(IS_TIM_PERIOD(htim, htim->Init.Period));
  assert_param(IS_TIM_AUTORELOAD_PRELOAD(htim->Init.AutoReloadPreload));

  if (htim->State == HAL_TIM_STATE_RESET)
 80068ee:	687b      	ldr	r3, [r7, #4]
 80068f0:	f893 303d 	ldrb.w	r3, [r3, #61]	@ 0x3d
 80068f4:	b2db      	uxtb	r3, r3
 80068f6:	2b00      	cmp	r3, #0
 80068f8:	d106      	bne.n	8006908 <HAL_TIM_Base_Init+0x2c>
  {
    /* Allocate lock resource and initialize it */
    htim->Lock = HAL_UNLOCKED;
 80068fa:	687b      	ldr	r3, [r7, #4]
 80068fc:	2200      	movs	r2, #0
 80068fe:	f883 203c 	strb.w	r2, [r3, #60]	@ 0x3c
    }
    /* Init the low level hardware : GPIO, CLOCK, NVIC */
    htim->Base_MspInitCallback(htim);
#else
    /* Init the low level hardware : GPIO, CLOCK, NVIC */
    HAL_TIM_Base_MspInit(htim);
 8006902:	6878      	ldr	r0, [r7, #4]
 8006904:	f7fc f828 	bl	8002958 <HAL_TIM_Base_MspInit>
#endif /* USE_HAL_TIM_REGISTER_CALLBACKS */
  }

  /* Set the TIM state */
  htim->State = HAL_TIM_STATE_BUSY;
 8006908:	687b      	ldr	r3, [r7, #4]
 800690a:	2202      	movs	r2, #2
 800690c:	f883 203d 	strb.w	r2, [r3, #61]	@ 0x3d

  /* Set the Time Base configuration */
  TIM_Base_SetConfig(htim->Instance, &htim->Init);
 8006910:	687b      	ldr	r3, [r7, #4]
 8006912:	681a      	ldr	r2, [r3, #0]
 8006914:	687b      	ldr	r3, [r7, #4]
 8006916:	3304      	adds	r3, #4
 8006918:	4619      	mov	r1, r3
 800691a:	4610      	mov	r0, r2
 800691c:	f000 fc64 	bl	80071e8 <TIM_Base_SetConfig>

  /* Initialize the DMA burst operation state */
  htim->DMABurstState = HAL_DMA_BURST_STATE_READY;
 8006920:	687b      	ldr	r3, [r7, #4]
 8006922:	2201      	movs	r2, #1
 8006924:	f883 2048 	strb.w	r2, [r3, #72]	@ 0x48

  /* Initialize the TIM channels state */
  TIM_CHANNEL_STATE_SET_ALL(htim, HAL_TIM_CHANNEL_STATE_READY);
 8006928:	687b      	ldr	r3, [r7, #4]
 800692a:	2201      	movs	r2, #1
 800692c:	f883 203e 	strb.w	r2, [r3, #62]	@ 0x3e
 8006930:	687b      	ldr	r3, [r7, #4]
 8006932:	2201      	movs	r2, #1
 8006934:	f883 203f 	strb.w	r2, [r3, #63]	@ 0x3f
 8006938:	687b      	ldr	r3, [r7, #4]
 800693a:	2201      	movs	r2, #1
 800693c:	f883 2040 	strb.w	r2, [r3, #64]	@ 0x40
 8006940:	687b      	ldr	r3, [r7, #4]
 8006942:	2201      	movs	r2, #1
 8006944:	f883 2041 	strb.w	r2, [r3, #65]	@ 0x41
 8006948:	687b      	ldr	r3, [r7, #4]
 800694a:	2201      	movs	r2, #1
 800694c:	f883 2042 	strb.w	r2, [r3, #66]	@ 0x42
 8006950:	687b      	ldr	r3, [r7, #4]
 8006952:	2201      	movs	r2, #1
 8006954:	f883 2043 	strb.w	r2, [r3, #67]	@ 0x43
  TIM_CHANNEL_N_STATE_SET_ALL(htim, HAL_TIM_CHANNEL_STATE_READY);
 8006958:	687b      	ldr	r3, [r7, #4]
 800695a:	2201      	movs	r2, #1
 800695c:	f883 2044 	strb.w	r2, [r3, #68]	@ 0x44
 8006960:	687b      	ldr	r3, [r7, #4]
 8006962:	2201      	movs	r2, #1
 8006964:	f883 2045 	strb.w	r2, [r3, #69]	@ 0x45
 8006968:	687b      	ldr	r3, [r7, #4]
 800696a:	2201      	movs	r2, #1
 800696c:	f883 2046 	strb.w	r2, [r3, #70]	@ 0x46
 8006970:	687b      	ldr	r3, [r7, #4]
 8006972:	2201      	movs	r2, #1
 8006974:	f883 2047 	strb.w	r2, [r3, #71]	@ 0x47

  /* Initialize the TIM state*/
  htim->State = HAL_TIM_STATE_READY;
 8006978:	687b      	ldr	r3, [r7, #4]
 800697a:	2201      	movs	r2, #1
 800697c:	f883 203d 	strb.w	r2, [r3, #61]	@ 0x3d

  return HAL_OK;
 8006980:	2300      	movs	r3, #0
}
 8006982:	4618      	mov	r0, r3
 8006984:	3708      	adds	r7, #8
 8006986:	46bd      	mov	sp, r7
 8006988:	bd80      	pop	{r7, pc}
	...

0800698c <HAL_TIM_Base_Start_IT>:
  * @brief  Starts the TIM Base generation in interrupt mode.
  * @param  htim TIM Base handle
  * @retval HAL status
  */
HAL_StatusTypeDef HAL_TIM_Base_Start_IT(TIM_HandleTypeDef *htim)
{
 800698c:	b480      	push	{r7}
 800698e:	b085      	sub	sp, #20
 8006990:	af00      	add	r7, sp, #0
 8006992:	6078      	str	r0, [r7, #4]

  /* Check the parameters */
  assert_param(IS_TIM_INSTANCE(htim->Instance));

  /* Check the TIM state */
  if (htim->State != HAL_TIM_STATE_READY)
 8006994:	687b      	ldr	r3, [r7, #4]
 8006996:	f893 303d 	ldrb.w	r3, [r3, #61]	@ 0x3d
 800699a:	b2db      	uxtb	r3, r3
 800699c:	2b01      	cmp	r3, #1
 800699e:	d001      	beq.n	80069a4 <HAL_TIM_Base_Start_IT+0x18>
  {
    return HAL_ERROR;
 80069a0:	2301      	movs	r3, #1
 80069a2:	e054      	b.n	8006a4e <HAL_TIM_Base_Start_IT+0xc2>
  }

  /* Set the TIM state */
  htim->State = HAL_TIM_STATE_BUSY;
 80069a4:	687b      	ldr	r3, [r7, #4]
 80069a6:	2202      	movs	r2, #2
 80069a8:	f883 203d 	strb.w	r2, [r3, #61]	@ 0x3d

  /* Enable the TIM Update interrupt */
  __HAL_TIM_ENABLE_IT(htim, TIM_IT_UPDATE);
 80069ac:	687b      	ldr	r3, [r7, #4]
 80069ae:	681b      	ldr	r3, [r3, #0]
 80069b0:	68da      	ldr	r2, [r3, #12]
 80069b2:	687b      	ldr	r3, [r7, #4]
 80069b4:	681b      	ldr	r3, [r3, #0]
 80069b6:	f042 0201 	orr.w	r2, r2, #1
 80069ba:	60da      	str	r2, [r3, #12]

  /* Enable the Peripheral, except in trigger mode where enable is automatically done with trigger */
  if (IS_TIM_SLAVE_INSTANCE(htim->Instance))
 80069bc:	687b      	ldr	r3, [r7, #4]
 80069be:	681b      	ldr	r3, [r3, #0]
 80069c0:	4a26      	ldr	r2, [pc, #152]	@ (8006a5c <HAL_TIM_Base_Start_IT+0xd0>)
 80069c2:	4293      	cmp	r3, r2
 80069c4:	d022      	beq.n	8006a0c <HAL_TIM_Base_Start_IT+0x80>
 80069c6:	687b      	ldr	r3, [r7, #4]
 80069c8:	681b      	ldr	r3, [r3, #0]
 80069ca:	f1b3 4f80 	cmp.w	r3, #1073741824	@ 0x40000000
 80069ce:	d01d      	beq.n	8006a0c <HAL_TIM_Base_Start_IT+0x80>
 80069d0:	687b      	ldr	r3, [r7, #4]
 80069d2:	681b      	ldr	r3, [r3, #0]
 80069d4:	4a22      	ldr	r2, [pc, #136]	@ (8006a60 <HAL_TIM_Base_Start_IT+0xd4>)
 80069d6:	4293      	cmp	r3, r2
 80069d8:	d018      	beq.n	8006a0c <HAL_TIM_Base_Start_IT+0x80>
 80069da:	687b      	ldr	r3, [r7, #4]
 80069dc:	681b      	ldr	r3, [r3, #0]
 80069de:	4a21      	ldr	r2, [pc, #132]	@ (8006a64 <HAL_TIM_Base_Start_IT+0xd8>)
 80069e0:	4293      	cmp	r3, r2
 80069e2:	d013      	beq.n	8006a0c <HAL_TIM_Base_Start_IT+0x80>
 80069e4:	687b      	ldr	r3, [r7, #4]
 80069e6:	681b      	ldr	r3, [r3, #0]
 80069e8:	4a1f      	ldr	r2, [pc, #124]	@ (8006a68 <HAL_TIM_Base_Start_IT+0xdc>)
 80069ea:	4293      	cmp	r3, r2
 80069ec:	d00e      	beq.n	8006a0c <HAL_TIM_Base_Start_IT+0x80>
 80069ee:	687b      	ldr	r3, [r7, #4]
 80069f0:	681b      	ldr	r3, [r3, #0]
 80069f2:	4a1e      	ldr	r2, [pc, #120]	@ (8006a6c <HAL_TIM_Base_Start_IT+0xe0>)
 80069f4:	4293      	cmp	r3, r2
 80069f6:	d009      	beq.n	8006a0c <HAL_TIM_Base_Start_IT+0x80>
 80069f8:	687b      	ldr	r3, [r7, #4]
 80069fa:	681b      	ldr	r3, [r3, #0]
 80069fc:	4a1c      	ldr	r2, [pc, #112]	@ (8006a70 <HAL_TIM_Base_Start_IT+0xe4>)
 80069fe:	4293      	cmp	r3, r2
 8006a00:	d004      	beq.n	8006a0c <HAL_TIM_Base_Start_IT+0x80>
 8006a02:	687b      	ldr	r3, [r7, #4]
 8006a04:	681b      	ldr	r3, [r3, #0]
 8006a06:	4a1b      	ldr	r2, [pc, #108]	@ (8006a74 <HAL_TIM_Base_Start_IT+0xe8>)
 8006a08:	4293      	cmp	r3, r2
 8006a0a:	d115      	bne.n	8006a38 <HAL_TIM_Base_Start_IT+0xac>
  {
    tmpsmcr = htim->Instance->SMCR & TIM_SMCR_SMS;
 8006a0c:	687b      	ldr	r3, [r7, #4]
 8006a0e:	681b      	ldr	r3, [r3, #0]
 8006a10:	689a      	ldr	r2, [r3, #8]
 8006a12:	4b19      	ldr	r3, [pc, #100]	@ (8006a78 <HAL_TIM_Base_Start_IT+0xec>)
 8006a14:	4013      	ands	r3, r2
 8006a16:	60fb      	str	r3, [r7, #12]
    if (!IS_TIM_SLAVEMODE_TRIGGER_ENABLED(tmpsmcr))
 8006a18:	68fb      	ldr	r3, [r7, #12]
 8006a1a:	2b06      	cmp	r3, #6
 8006a1c:	d015      	beq.n	8006a4a <HAL_TIM_Base_Start_IT+0xbe>
 8006a1e:	68fb      	ldr	r3, [r7, #12]
 8006a20:	f5b3 3f80 	cmp.w	r3, #65536	@ 0x10000
 8006a24:	d011      	beq.n	8006a4a <HAL_TIM_Base_Start_IT+0xbe>
    {
      __HAL_TIM_ENABLE(htim);
 8006a26:	687b      	ldr	r3, [r7, #4]
 8006a28:	681b      	ldr	r3, [r3, #0]
 8006a2a:	681a      	ldr	r2, [r3, #0]
 8006a2c:	687b      	ldr	r3, [r7, #4]
 8006a2e:	681b      	ldr	r3, [r3, #0]
 8006a30:	f042 0201 	orr.w	r2, r2, #1
 8006a34:	601a      	str	r2, [r3, #0]
    if (!IS_TIM_SLAVEMODE_TRIGGER_ENABLED(tmpsmcr))
 8006a36:	e008      	b.n	8006a4a <HAL_TIM_Base_Start_IT+0xbe>
    }
  }
  else
  {
    __HAL_TIM_ENABLE(htim);
 8006a38:	687b      	ldr	r3, [r7, #4]
 8006a3a:	681b      	ldr	r3, [r3, #0]
 8006a3c:	681a      	ldr	r2, [r3, #0]
 8006a3e:	687b      	ldr	r3, [r7, #4]
 8006a40:	681b      	ldr	r3, [r3, #0]
 8006a42:	f042 0201 	orr.w	r2, r2, #1
 8006a46:	601a      	str	r2, [r3, #0]
 8006a48:	e000      	b.n	8006a4c <HAL_TIM_Base_Start_IT+0xc0>
    if (!IS_TIM_SLAVEMODE_TRIGGER_ENABLED(tmpsmcr))
 8006a4a:	bf00      	nop
  }

  /* Return function status */
  return HAL_OK;
 8006a4c:	2300      	movs	r3, #0
}
 8006a4e:	4618      	mov	r0, r3
 8006a50:	3714      	adds	r7, #20
 8006a52:	46bd      	mov	sp, r7
 8006a54:	f85d 7b04 	ldr.w	r7, [sp], #4
 8006a58:	4770      	bx	lr
 8006a5a:	bf00      	nop
 8006a5c:	40012c00 	.word	0x40012c00
 8006a60:	40000400 	.word	0x40000400
 8006a64:	40000800 	.word	0x40000800
 8006a68:	40000c00 	.word	0x40000c00
 8006a6c:	40013400 	.word	0x40013400
 8006a70:	40014000 	.word	0x40014000
 8006a74:	40015000 	.word	0x40015000
 8006a78:	00010007 	.word	0x00010007

08006a7c <HAL_TIM_PWM_Init>:
  *         Ex: call @ref HAL_TIM_PWM_DeInit() before HAL_TIM_PWM_Init()
  * @param  htim TIM PWM handle
  * @retval HAL status
  */
HAL_StatusTypeDef HAL_TIM_PWM_Init(TIM_HandleTypeDef *htim)
{
 8006a7c:	b580      	push	{r7, lr}
 8006a7e:	b082      	sub	sp, #8
 8006a80:	af00      	add	r7, sp, #0
 8006a82:	6078      	str	r0, [r7, #4]
  /* Check the TIM handle allocation */
  if (htim == NULL)
 8006a84:	687b      	ldr	r3, [r7, #4]
 8006a86:	2b00      	cmp	r3, #0
 8006a88:	d101      	bne.n	8006a8e <HAL_TIM_PWM_Init+0x12>
  {
    return HAL_ERROR;
 8006a8a:	2301      	movs	r3, #1
 8006a8c:	e049      	b.n	8006b22 <HAL_TIM_PWM_Init+0xa6>
  assert_param(IS_TIM_COUNTER_MODE(htim->Init.CounterMode));
  assert_param(IS_TIM_CLOCKDIVISION_DIV(htim->Init.ClockDivision));
  assert_param(IS_TIM_PERIOD(htim, htim->Init.Period));
  assert_param(IS_TIM_AUTORELOAD_PRELOAD(htim->Init.AutoReloadPreload));

  if (htim->State == HAL_TIM_STATE_RESET)
 8006a8e:	687b      	ldr	r3, [r7, #4]
 8006a90:	f893 303d 	ldrb.w	r3, [r3, #61]	@ 0x3d
 8006a94:	b2db      	uxtb	r3, r3
 8006a96:	2b00      	cmp	r3, #0
 8006a98:	d106      	bne.n	8006aa8 <HAL_TIM_PWM_Init+0x2c>
  {
    /* Allocate lock resource and initialize it */
    htim->Lock = HAL_UNLOCKED;
 8006a9a:	687b      	ldr	r3, [r7, #4]
 8006a9c:	2200      	movs	r2, #0
 8006a9e:	f883 203c 	strb.w	r2, [r3, #60]	@ 0x3c
    }
    /* Init the low level hardware : GPIO, CLOCK, NVIC */
    htim->PWM_MspInitCallback(htim);
#else
    /* Init the low level hardware : GPIO, CLOCK, NVIC and DMA */
    HAL_TIM_PWM_MspInit(htim);
 8006aa2:	6878      	ldr	r0, [r7, #4]
 8006aa4:	f7fb ff24 	bl	80028f0 <HAL_TIM_PWM_MspInit>
#endif /* USE_HAL_TIM_REGISTER_CALLBACKS */
  }

  /* Set the TIM state */
  htim->State = HAL_TIM_STATE_BUSY;
 8006aa8:	687b      	ldr	r3, [r7, #4]
 8006aaa:	2202      	movs	r2, #2
 8006aac:	f883 203d 	strb.w	r2, [r3, #61]	@ 0x3d

  /* Init the base time for the PWM */
  TIM_Base_SetConfig(htim->Instance, &htim->Init);
 8006ab0:	687b      	ldr	r3, [r7, #4]
 8006ab2:	681a      	ldr	r2, [r3, #0]
 8006ab4:	687b      	ldr	r3, [r7, #4]
 8006ab6:	3304      	adds	r3, #4
 8006ab8:	4619      	mov	r1, r3
 8006aba:	4610      	mov	r0, r2
 8006abc:	f000 fb94 	bl	80071e8 <TIM_Base_SetConfig>

  /* Initialize the DMA burst operation state */
  htim->DMABurstState = HAL_DMA_BURST_STATE_READY;
 8006ac0:	687b      	ldr	r3, [r7, #4]
 8006ac2:	2201      	movs	r2, #1
 8006ac4:	f883 2048 	strb.w	r2, [r3, #72]	@ 0x48

  /* Initialize the TIM channels state */
  TIM_CHANNEL_STATE_SET_ALL(htim, HAL_TIM_CHANNEL_STATE_READY);
 8006ac8:	687b      	ldr	r3, [r7, #4]
 8006aca:	2201      	movs	r2, #1
 8006acc:	f883 203e 	strb.w	r2, [r3, #62]	@ 0x3e
 8006ad0:	687b      	ldr	r3, [r7, #4]
 8006ad2:	2201      	movs	r2, #1
 8006ad4:	f883 203f 	strb.w	r2, [r3, #63]	@ 0x3f
 8006ad8:	687b      	ldr	r3, [r7, #4]
 8006ada:	2201      	movs	r2, #1
 8006adc:	f883 2040 	strb.w	r2, [r3, #64]	@ 0x40
 8006ae0:	687b      	ldr	r3, [r7, #4]
 8006ae2:	2201      	movs	r2, #1
 8006ae4:	f883 2041 	strb.w	r2, [r3, #65]	@ 0x41
 8006ae8:	687b      	ldr	r3, [r7, #4]
 8006aea:	2201      	movs	r2, #1
 8006aec:	f883 2042 	strb.w	r2, [r3, #66]	@ 0x42
 8006af0:	687b      	ldr	r3, [r7, #4]
 8006af2:	2201      	movs	r2, #1
 8006af4:	f883 2043 	strb.w	r2, [r3, #67]	@ 0x43
  TIM_CHANNEL_N_STATE_SET_ALL(htim, HAL_TIM_CHANNEL_STATE_READY);
 8006af8:	687b      	ldr	r3, [r7, #4]
 8006afa:	2201      	movs	r2, #1
 8006afc:	f883 2044 	strb.w	r2, [r3, #68]	@ 0x44
 8006b00:	687b      	ldr	r3, [r7, #4]
 8006b02:	2201      	movs	r2, #1
 8006b04:	f883 2045 	strb.w	r2, [r3, #69]	@ 0x45
 8006b08:	687b      	ldr	r3, [r7, #4]
 8006b0a:	2201      	movs	r2, #1
 8006b0c:	f883 2046 	strb.w	r2, [r3, #70]	@ 0x46
 8006b10:	687b      	ldr	r3, [r7, #4]
 8006b12:	2201      	movs	r2, #1
 8006b14:	f883 2047 	strb.w	r2, [r3, #71]	@ 0x47

  /* Initialize the TIM state*/
  htim->State = HAL_TIM_STATE_READY;
 8006b18:	687b      	ldr	r3, [r7, #4]
 8006b1a:	2201      	movs	r2, #1
 8006b1c:	f883 203d 	strb.w	r2, [r3, #61]	@ 0x3d

  return HAL_OK;
 8006b20:	2300      	movs	r3, #0
}
 8006b22:	4618      	mov	r0, r3
 8006b24:	3708      	adds	r7, #8
 8006b26:	46bd      	mov	sp, r7
 8006b28:	bd80      	pop	{r7, pc}

08006b2a <HAL_TIM_Encoder_Init>:
  * @param  htim TIM Encoder Interface handle
  * @param  sConfig TIM Encoder Interface configuration structure
  * @retval HAL status
  */
HAL_StatusTypeDef HAL_TIM_Encoder_Init(TIM_HandleTypeDef *htim, const TIM_Encoder_InitTypeDef *sConfig)
{
 8006b2a:	b580      	push	{r7, lr}
 8006b2c:	b086      	sub	sp, #24
 8006b2e:	af00      	add	r7, sp, #0
 8006b30:	6078      	str	r0, [r7, #4]
 8006b32:	6039      	str	r1, [r7, #0]
  uint32_t tmpsmcr;
  uint32_t tmpccmr1;
  uint32_t tmpccer;

  /* Check the TIM handle allocation */
  if (htim == NULL)
 8006b34:	687b      	ldr	r3, [r7, #4]
 8006b36:	2b00      	cmp	r3, #0
 8006b38:	d101      	bne.n	8006b3e <HAL_TIM_Encoder_Init+0x14>
  {
    return HAL_ERROR;
 8006b3a:	2301      	movs	r3, #1
 8006b3c:	e097      	b.n	8006c6e <HAL_TIM_Encoder_Init+0x144>
  assert_param(IS_TIM_IC_PRESCALER(sConfig->IC2Prescaler));
  assert_param(IS_TIM_IC_FILTER(sConfig->IC1Filter));
  assert_param(IS_TIM_IC_FILTER(sConfig->IC2Filter));
  assert_param(IS_TIM_PERIOD(htim, htim->Init.Period));

  if (htim->State == HAL_TIM_STATE_RESET)
 8006b3e:	687b      	ldr	r3, [r7, #4]
 8006b40:	f893 303d 	ldrb.w	r3, [r3, #61]	@ 0x3d
 8006b44:	b2db      	uxtb	r3, r3
 8006b46:	2b00      	cmp	r3, #0
 8006b48:	d106      	bne.n	8006b58 <HAL_TIM_Encoder_Init+0x2e>
  {
    /* Allocate lock resource and initialize it */
    htim->Lock = HAL_UNLOCKED;
 8006b4a:	687b      	ldr	r3, [r7, #4]
 8006b4c:	2200      	movs	r2, #0
 8006b4e:	f883 203c 	strb.w	r2, [r3, #60]	@ 0x3c
    }
    /* Init the low level hardware : GPIO, CLOCK, NVIC */
    htim->Encoder_MspInitCallback(htim);
#else
    /* Init the low level hardware : GPIO, CLOCK, NVIC and DMA */
    HAL_TIM_Encoder_MspInit(htim);
 8006b52:	6878      	ldr	r0, [r7, #4]
 8006b54:	f7fb ff32 	bl	80029bc <HAL_TIM_Encoder_MspInit>
#endif /* USE_HAL_TIM_REGISTER_CALLBACKS */
  }

  /* Set the TIM state */
  htim->State = HAL_TIM_STATE_BUSY;
 8006b58:	687b      	ldr	r3, [r7, #4]
 8006b5a:	2202      	movs	r2, #2
 8006b5c:	f883 203d 	strb.w	r2, [r3, #61]	@ 0x3d

  /* Reset the SMS and ECE bits */
  htim->Instance->SMCR &= ~(TIM_SMCR_SMS | TIM_SMCR_ECE);
 8006b60:	687b      	ldr	r3, [r7, #4]
 8006b62:	681b      	ldr	r3, [r3, #0]
 8006b64:	689b      	ldr	r3, [r3, #8]
 8006b66:	687a      	ldr	r2, [r7, #4]
 8006b68:	6812      	ldr	r2, [r2, #0]
 8006b6a:	f423 33a0 	bic.w	r3, r3, #81920	@ 0x14000
 8006b6e:	f023 0307 	bic.w	r3, r3, #7
 8006b72:	6093      	str	r3, [r2, #8]

  /* Configure the Time base in the Encoder Mode */
  TIM_Base_SetConfig(htim->Instance, &htim->Init);
 8006b74:	687b      	ldr	r3, [r7, #4]
 8006b76:	681a      	ldr	r2, [r3, #0]
 8006b78:	687b      	ldr	r3, [r7, #4]
 8006b7a:	3304      	adds	r3, #4
 8006b7c:	4619      	mov	r1, r3
 8006b7e:	4610      	mov	r0, r2
 8006b80:	f000 fb32 	bl	80071e8 <TIM_Base_SetConfig>

  /* Get the TIMx SMCR register value */
  tmpsmcr = htim->Instance->SMCR;
 8006b84:	687b      	ldr	r3, [r7, #4]
 8006b86:	681b      	ldr	r3, [r3, #0]
 8006b88:	689b      	ldr	r3, [r3, #8]
 8006b8a:	617b      	str	r3, [r7, #20]

  /* Get the TIMx CCMR1 register value */
  tmpccmr1 = htim->Instance->CCMR1;
 8006b8c:	687b      	ldr	r3, [r7, #4]
 8006b8e:	681b      	ldr	r3, [r3, #0]
 8006b90:	699b      	ldr	r3, [r3, #24]
 8006b92:	613b      	str	r3, [r7, #16]

  /* Get the TIMx CCER register value */
  tmpccer = htim->Instance->CCER;
 8006b94:	687b      	ldr	r3, [r7, #4]
 8006b96:	681b      	ldr	r3, [r3, #0]
 8006b98:	6a1b      	ldr	r3, [r3, #32]
 8006b9a:	60fb      	str	r3, [r7, #12]

  /* Set the encoder Mode */
  tmpsmcr |= sConfig->EncoderMode;
 8006b9c:	683b      	ldr	r3, [r7, #0]
 8006b9e:	681b      	ldr	r3, [r3, #0]
 8006ba0:	697a      	ldr	r2, [r7, #20]
 8006ba2:	4313      	orrs	r3, r2
 8006ba4:	617b      	str	r3, [r7, #20]

  /* Select the Capture Compare 1 and the Capture Compare 2 as input */
  tmpccmr1 &= ~(TIM_CCMR1_CC1S | TIM_CCMR1_CC2S);
 8006ba6:	693b      	ldr	r3, [r7, #16]
 8006ba8:	f423 7340 	bic.w	r3, r3, #768	@ 0x300
 8006bac:	f023 0303 	bic.w	r3, r3, #3
 8006bb0:	613b      	str	r3, [r7, #16]
  tmpccmr1 |= (sConfig->IC1Selection | (sConfig->IC2Selection << 8U));
 8006bb2:	683b      	ldr	r3, [r7, #0]
 8006bb4:	689a      	ldr	r2, [r3, #8]
 8006bb6:	683b      	ldr	r3, [r7, #0]
 8006bb8:	699b      	ldr	r3, [r3, #24]
 8006bba:	021b      	lsls	r3, r3, #8
 8006bbc:	4313      	orrs	r3, r2
 8006bbe:	693a      	ldr	r2, [r7, #16]
 8006bc0:	4313      	orrs	r3, r2
 8006bc2:	613b      	str	r3, [r7, #16]

  /* Set the Capture Compare 1 and the Capture Compare 2 prescalers and filters */
  tmpccmr1 &= ~(TIM_CCMR1_IC1PSC | TIM_CCMR1_IC2PSC);
 8006bc4:	693b      	ldr	r3, [r7, #16]
 8006bc6:	f423 6340 	bic.w	r3, r3, #3072	@ 0xc00
 8006bca:	f023 030c 	bic.w	r3, r3, #12
 8006bce:	613b      	str	r3, [r7, #16]
  tmpccmr1 &= ~(TIM_CCMR1_IC1F | TIM_CCMR1_IC2F);
 8006bd0:	693b      	ldr	r3, [r7, #16]
 8006bd2:	f423 4370 	bic.w	r3, r3, #61440	@ 0xf000
 8006bd6:	f023 03f0 	bic.w	r3, r3, #240	@ 0xf0
 8006bda:	613b      	str	r3, [r7, #16]
  tmpccmr1 |= sConfig->IC1Prescaler | (sConfig->IC2Prescaler << 8U);
 8006bdc:	683b      	ldr	r3, [r7, #0]
 8006bde:	68da      	ldr	r2, [r3, #12]
 8006be0:	683b      	ldr	r3, [r7, #0]
 8006be2:	69db      	ldr	r3, [r3, #28]
 8006be4:	021b      	lsls	r3, r3, #8
 8006be6:	4313      	orrs	r3, r2
 8006be8:	693a      	ldr	r2, [r7, #16]
 8006bea:	4313      	orrs	r3, r2
 8006bec:	613b      	str	r3, [r7, #16]
  tmpccmr1 |= (sConfig->IC1Filter << 4U) | (sConfig->IC2Filter << 12U);
 8006bee:	683b      	ldr	r3, [r7, #0]
 8006bf0:	691b      	ldr	r3, [r3, #16]
 8006bf2:	011a      	lsls	r2, r3, #4
 8006bf4:	683b      	ldr	r3, [r7, #0]
 8006bf6:	6a1b      	ldr	r3, [r3, #32]
 8006bf8:	031b      	lsls	r3, r3, #12
 8006bfa:	4313      	orrs	r3, r2
 8006bfc:	693a      	ldr	r2, [r7, #16]
 8006bfe:	4313      	orrs	r3, r2
 8006c00:	613b      	str	r3, [r7, #16]

  /* Set the TI1 and the TI2 Polarities */
  tmpccer &= ~(TIM_CCER_CC1P | TIM_CCER_CC2P);
 8006c02:	68fb      	ldr	r3, [r7, #12]
 8006c04:	f023 0322 	bic.w	r3, r3, #34	@ 0x22
 8006c08:	60fb      	str	r3, [r7, #12]
  tmpccer &= ~(TIM_CCER_CC1NP | TIM_CCER_CC2NP);
 8006c0a:	68fb      	ldr	r3, [r7, #12]
 8006c0c:	f023 0388 	bic.w	r3, r3, #136	@ 0x88
 8006c10:	60fb      	str	r3, [r7, #12]
  tmpccer |= sConfig->IC1Polarity | (sConfig->IC2Polarity << 4U);
 8006c12:	683b      	ldr	r3, [r7, #0]
 8006c14:	685a      	ldr	r2, [r3, #4]
 8006c16:	683b      	ldr	r3, [r7, #0]
 8006c18:	695b      	ldr	r3, [r3, #20]
 8006c1a:	011b      	lsls	r3, r3, #4
 8006c1c:	4313      	orrs	r3, r2
 8006c1e:	68fa      	ldr	r2, [r7, #12]
 8006c20:	4313      	orrs	r3, r2
 8006c22:	60fb      	str	r3, [r7, #12]

  /* Write to TIMx SMCR */
  htim->Instance->SMCR = tmpsmcr;
 8006c24:	687b      	ldr	r3, [r7, #4]
 8006c26:	681b      	ldr	r3, [r3, #0]
 8006c28:	697a      	ldr	r2, [r7, #20]
 8006c2a:	609a      	str	r2, [r3, #8]

  /* Write to TIMx CCMR1 */
  htim->Instance->CCMR1 = tmpccmr1;
 8006c2c:	687b      	ldr	r3, [r7, #4]
 8006c2e:	681b      	ldr	r3, [r3, #0]
 8006c30:	693a      	ldr	r2, [r7, #16]
 8006c32:	619a      	str	r2, [r3, #24]

  /* Write to TIMx CCER */
  htim->Instance->CCER = tmpccer;
 8006c34:	687b      	ldr	r3, [r7, #4]
 8006c36:	681b      	ldr	r3, [r3, #0]
 8006c38:	68fa      	ldr	r2, [r7, #12]
 8006c3a:	621a      	str	r2, [r3, #32]

  /* Initialize the DMA burst operation state */
  htim->DMABurstState = HAL_DMA_BURST_STATE_READY;
 8006c3c:	687b      	ldr	r3, [r7, #4]
 8006c3e:	2201      	movs	r2, #1
 8006c40:	f883 2048 	strb.w	r2, [r3, #72]	@ 0x48

  /* Set the TIM channels state */
  TIM_CHANNEL_STATE_SET(htim, TIM_CHANNEL_1, HAL_TIM_CHANNEL_STATE_READY);
 8006c44:	687b      	ldr	r3, [r7, #4]
 8006c46:	2201      	movs	r2, #1
 8006c48:	f883 203e 	strb.w	r2, [r3, #62]	@ 0x3e
  TIM_CHANNEL_STATE_SET(htim, TIM_CHANNEL_2, HAL_TIM_CHANNEL_STATE_READY);
 8006c4c:	687b      	ldr	r3, [r7, #4]
 8006c4e:	2201      	movs	r2, #1
 8006c50:	f883 203f 	strb.w	r2, [r3, #63]	@ 0x3f
  TIM_CHANNEL_N_STATE_SET(htim, TIM_CHANNEL_1, HAL_TIM_CHANNEL_STATE_READY);
 8006c54:	687b      	ldr	r3, [r7, #4]
 8006c56:	2201      	movs	r2, #1
 8006c58:	f883 2044 	strb.w	r2, [r3, #68]	@ 0x44
  TIM_CHANNEL_N_STATE_SET(htim, TIM_CHANNEL_2, HAL_TIM_CHANNEL_STATE_READY);
 8006c5c:	687b      	ldr	r3, [r7, #4]
 8006c5e:	2201      	movs	r2, #1
 8006c60:	f883 2045 	strb.w	r2, [r3, #69]	@ 0x45

  /* Initialize the TIM state*/
  htim->State = HAL_TIM_STATE_READY;
 8006c64:	687b      	ldr	r3, [r7, #4]
 8006c66:	2201      	movs	r2, #1
 8006c68:	f883 203d 	strb.w	r2, [r3, #61]	@ 0x3d

  return HAL_OK;
 8006c6c:	2300      	movs	r3, #0
}
 8006c6e:	4618      	mov	r0, r3
 8006c70:	3718      	adds	r7, #24
 8006c72:	46bd      	mov	sp, r7
 8006c74:	bd80      	pop	{r7, pc}

08006c76 <HAL_TIM_Encoder_Start>:
  *            @arg TIM_CHANNEL_2: TIM Channel 2 selected
  *            @arg TIM_CHANNEL_ALL: TIM Channel 1 and TIM Channel 2 are selected
  * @retval HAL status
  */
HAL_StatusTypeDef HAL_TIM_Encoder_Start(TIM_HandleTypeDef *htim, uint32_t Channel)
{
 8006c76:	b580      	push	{r7, lr}
 8006c78:	b084      	sub	sp, #16
 8006c7a:	af00      	add	r7, sp, #0
 8006c7c:	6078      	str	r0, [r7, #4]
 8006c7e:	6039      	str	r1, [r7, #0]
  HAL_TIM_ChannelStateTypeDef channel_1_state = TIM_CHANNEL_STATE_GET(htim, TIM_CHANNEL_1);
 8006c80:	687b      	ldr	r3, [r7, #4]
 8006c82:	f893 303e 	ldrb.w	r3, [r3, #62]	@ 0x3e
 8006c86:	73fb      	strb	r3, [r7, #15]
  HAL_TIM_ChannelStateTypeDef channel_2_state = TIM_CHANNEL_STATE_GET(htim, TIM_CHANNEL_2);
 8006c88:	687b      	ldr	r3, [r7, #4]
 8006c8a:	f893 303f 	ldrb.w	r3, [r3, #63]	@ 0x3f
 8006c8e:	73bb      	strb	r3, [r7, #14]
  HAL_TIM_ChannelStateTypeDef complementary_channel_1_state = TIM_CHANNEL_N_STATE_GET(htim, TIM_CHANNEL_1);
 8006c90:	687b      	ldr	r3, [r7, #4]
 8006c92:	f893 3044 	ldrb.w	r3, [r3, #68]	@ 0x44
 8006c96:	737b      	strb	r3, [r7, #13]
  HAL_TIM_ChannelStateTypeDef complementary_channel_2_state = TIM_CHANNEL_N_STATE_GET(htim, TIM_CHANNEL_2);
 8006c98:	687b      	ldr	r3, [r7, #4]
 8006c9a:	f893 3045 	ldrb.w	r3, [r3, #69]	@ 0x45
 8006c9e:	733b      	strb	r3, [r7, #12]

  /* Check the parameters */
  assert_param(IS_TIM_ENCODER_INTERFACE_INSTANCE(htim->Instance));

  /* Set the TIM channel(s) state */
  if (Channel == TIM_CHANNEL_1)
 8006ca0:	683b      	ldr	r3, [r7, #0]
 8006ca2:	2b00      	cmp	r3, #0
 8006ca4:	d110      	bne.n	8006cc8 <HAL_TIM_Encoder_Start+0x52>
  {
    if ((channel_1_state != HAL_TIM_CHANNEL_STATE_READY)
 8006ca6:	7bfb      	ldrb	r3, [r7, #15]
 8006ca8:	2b01      	cmp	r3, #1
 8006caa:	d102      	bne.n	8006cb2 <HAL_TIM_Encoder_Start+0x3c>
        || (complementary_channel_1_state != HAL_TIM_CHANNEL_STATE_READY))
 8006cac:	7b7b      	ldrb	r3, [r7, #13]
 8006cae:	2b01      	cmp	r3, #1
 8006cb0:	d001      	beq.n	8006cb6 <HAL_TIM_Encoder_Start+0x40>
    {
      return HAL_ERROR;
 8006cb2:	2301      	movs	r3, #1
 8006cb4:	e069      	b.n	8006d8a <HAL_TIM_Encoder_Start+0x114>
    }
    else
    {
      TIM_CHANNEL_STATE_SET(htim, TIM_CHANNEL_1, HAL_TIM_CHANNEL_STATE_BUSY);
 8006cb6:	687b      	ldr	r3, [r7, #4]
 8006cb8:	2202      	movs	r2, #2
 8006cba:	f883 203e 	strb.w	r2, [r3, #62]	@ 0x3e
      TIM_CHANNEL_N_STATE_SET(htim, TIM_CHANNEL_1, HAL_TIM_CHANNEL_STATE_BUSY);
 8006cbe:	687b      	ldr	r3, [r7, #4]
 8006cc0:	2202      	movs	r2, #2
 8006cc2:	f883 2044 	strb.w	r2, [r3, #68]	@ 0x44
 8006cc6:	e031      	b.n	8006d2c <HAL_TIM_Encoder_Start+0xb6>
    }
  }
  else if (Channel == TIM_CHANNEL_2)
 8006cc8:	683b      	ldr	r3, [r7, #0]
 8006cca:	2b04      	cmp	r3, #4
 8006ccc:	d110      	bne.n	8006cf0 <HAL_TIM_Encoder_Start+0x7a>
  {
    if ((channel_2_state != HAL_TIM_CHANNEL_STATE_READY)
 8006cce:	7bbb      	ldrb	r3, [r7, #14]
 8006cd0:	2b01      	cmp	r3, #1
 8006cd2:	d102      	bne.n	8006cda <HAL_TIM_Encoder_Start+0x64>
        || (complementary_channel_2_state != HAL_TIM_CHANNEL_STATE_READY))
 8006cd4:	7b3b      	ldrb	r3, [r7, #12]
 8006cd6:	2b01      	cmp	r3, #1
 8006cd8:	d001      	beq.n	8006cde <HAL_TIM_Encoder_Start+0x68>
    {
      return HAL_ERROR;
 8006cda:	2301      	movs	r3, #1
 8006cdc:	e055      	b.n	8006d8a <HAL_TIM_Encoder_Start+0x114>
    }
    else
    {
      TIM_CHANNEL_STATE_SET(htim, TIM_CHANNEL_2, HAL_TIM_CHANNEL_STATE_BUSY);
 8006cde:	687b      	ldr	r3, [r7, #4]
 8006ce0:	2202      	movs	r2, #2
 8006ce2:	f883 203f 	strb.w	r2, [r3, #63]	@ 0x3f
      TIM_CHANNEL_N_STATE_SET(htim, TIM_CHANNEL_2, HAL_TIM_CHANNEL_STATE_BUSY);
 8006ce6:	687b      	ldr	r3, [r7, #4]
 8006ce8:	2202      	movs	r2, #2
 8006cea:	f883 2045 	strb.w	r2, [r3, #69]	@ 0x45
 8006cee:	e01d      	b.n	8006d2c <HAL_TIM_Encoder_Start+0xb6>
    }
  }
  else
  {
    if ((channel_1_state != HAL_TIM_CHANNEL_STATE_READY)
 8006cf0:	7bfb      	ldrb	r3, [r7, #15]
 8006cf2:	2b01      	cmp	r3, #1
 8006cf4:	d108      	bne.n	8006d08 <HAL_TIM_Encoder_Start+0x92>
        || (channel_2_state != HAL_TIM_CHANNEL_STATE_READY)
 8006cf6:	7bbb      	ldrb	r3, [r7, #14]
 8006cf8:	2b01      	cmp	r3, #1
 8006cfa:	d105      	bne.n	8006d08 <HAL_TIM_Encoder_Start+0x92>
        || (complementary_channel_1_state != HAL_TIM_CHANNEL_STATE_READY)
 8006cfc:	7b7b      	ldrb	r3, [r7, #13]
 8006cfe:	2b01      	cmp	r3, #1
 8006d00:	d102      	bne.n	8006d08 <HAL_TIM_Encoder_Start+0x92>
        || (complementary_channel_2_state != HAL_TIM_CHANNEL_STATE_READY))
 8006d02:	7b3b      	ldrb	r3, [r7, #12]
 8006d04:	2b01      	cmp	r3, #1
 8006d06:	d001      	beq.n	8006d0c <HAL_TIM_Encoder_Start+0x96>
    {
      return HAL_ERROR;
 8006d08:	2301      	movs	r3, #1
 8006d0a:	e03e      	b.n	8006d8a <HAL_TIM_Encoder_Start+0x114>
    }
    else
    {
      TIM_CHANNEL_STATE_SET(htim, TIM_CHANNEL_1, HAL_TIM_CHANNEL_STATE_BUSY);
 8006d0c:	687b      	ldr	r3, [r7, #4]
 8006d0e:	2202      	movs	r2, #2
 8006d10:	f883 203e 	strb.w	r2, [r3, #62]	@ 0x3e
      TIM_CHANNEL_STATE_SET(htim, TIM_CHANNEL_2, HAL_TIM_CHANNEL_STATE_BUSY);
 8006d14:	687b      	ldr	r3, [r7, #4]
 8006d16:	2202      	movs	r2, #2
 8006d18:	f883 203f 	strb.w	r2, [r3, #63]	@ 0x3f
      TIM_CHANNEL_N_STATE_SET(htim, TIM_CHANNEL_1, HAL_TIM_CHANNEL_STATE_BUSY);
 8006d1c:	687b      	ldr	r3, [r7, #4]
 8006d1e:	2202      	movs	r2, #2
 8006d20:	f883 2044 	strb.w	r2, [r3, #68]	@ 0x44
      TIM_CHANNEL_N_STATE_SET(htim, TIM_CHANNEL_2, HAL_TIM_CHANNEL_STATE_BUSY);
 8006d24:	687b      	ldr	r3, [r7, #4]
 8006d26:	2202      	movs	r2, #2
 8006d28:	f883 2045 	strb.w	r2, [r3, #69]	@ 0x45
    }
  }

  /* Enable the encoder interface channels */
  switch (Channel)
 8006d2c:	683b      	ldr	r3, [r7, #0]
 8006d2e:	2b00      	cmp	r3, #0
 8006d30:	d003      	beq.n	8006d3a <HAL_TIM_Encoder_Start+0xc4>
 8006d32:	683b      	ldr	r3, [r7, #0]
 8006d34:	2b04      	cmp	r3, #4
 8006d36:	d008      	beq.n	8006d4a <HAL_TIM_Encoder_Start+0xd4>
 8006d38:	e00f      	b.n	8006d5a <HAL_TIM_Encoder_Start+0xe4>
  {
    case TIM_CHANNEL_1:
    {
      TIM_CCxChannelCmd(htim->Instance, TIM_CHANNEL_1, TIM_CCx_ENABLE);
 8006d3a:	687b      	ldr	r3, [r7, #4]
 8006d3c:	681b      	ldr	r3, [r3, #0]
 8006d3e:	2201      	movs	r2, #1
 8006d40:	2100      	movs	r1, #0
 8006d42:	4618      	mov	r0, r3
 8006d44:	f000 feca 	bl	8007adc <TIM_CCxChannelCmd>
      break;
 8006d48:	e016      	b.n	8006d78 <HAL_TIM_Encoder_Start+0x102>
    }

    case TIM_CHANNEL_2:
    {
      TIM_CCxChannelCmd(htim->Instance, TIM_CHANNEL_2, TIM_CCx_ENABLE);
 8006d4a:	687b      	ldr	r3, [r7, #4]
 8006d4c:	681b      	ldr	r3, [r3, #0]
 8006d4e:	2201      	movs	r2, #1
 8006d50:	2104      	movs	r1, #4
 8006d52:	4618      	mov	r0, r3
 8006d54:	f000 fec2 	bl	8007adc <TIM_CCxChannelCmd>
      break;
 8006d58:	e00e      	b.n	8006d78 <HAL_TIM_Encoder_Start+0x102>
    }

    default :
    {
      TIM_CCxChannelCmd(htim->Instance, TIM_CHANNEL_1, TIM_CCx_ENABLE);
 8006d5a:	687b      	ldr	r3, [r7, #4]
 8006d5c:	681b      	ldr	r3, [r3, #0]
 8006d5e:	2201      	movs	r2, #1
 8006d60:	2100      	movs	r1, #0
 8006d62:	4618      	mov	r0, r3
 8006d64:	f000 feba 	bl	8007adc <TIM_CCxChannelCmd>
      TIM_CCxChannelCmd(htim->Instance, TIM_CHANNEL_2, TIM_CCx_ENABLE);
 8006d68:	687b      	ldr	r3, [r7, #4]
 8006d6a:	681b      	ldr	r3, [r3, #0]
 8006d6c:	2201      	movs	r2, #1
 8006d6e:	2104      	movs	r1, #4
 8006d70:	4618      	mov	r0, r3
 8006d72:	f000 feb3 	bl	8007adc <TIM_CCxChannelCmd>
      break;
 8006d76:	bf00      	nop
    }
  }
  /* Enable the Peripheral */
  __HAL_TIM_ENABLE(htim);
 8006d78:	687b      	ldr	r3, [r7, #4]
 8006d7a:	681b      	ldr	r3, [r3, #0]
 8006d7c:	681a      	ldr	r2, [r3, #0]
 8006d7e:	687b      	ldr	r3, [r7, #4]
 8006d80:	681b      	ldr	r3, [r3, #0]
 8006d82:	f042 0201 	orr.w	r2, r2, #1
 8006d86:	601a      	str	r2, [r3, #0]

  /* Return function status */
  return HAL_OK;
 8006d88:	2300      	movs	r3, #0
}
 8006d8a:	4618      	mov	r0, r3
 8006d8c:	3710      	adds	r7, #16
 8006d8e:	46bd      	mov	sp, r7
 8006d90:	bd80      	pop	{r7, pc}
	...

08006d94 <HAL_TIM_PWM_ConfigChannel>:
  * @retval HAL status
  */
HAL_StatusTypeDef HAL_TIM_PWM_ConfigChannel(TIM_HandleTypeDef *htim,
                                            const TIM_OC_InitTypeDef *sConfig,
                                            uint32_t Channel)
{
 8006d94:	b580      	push	{r7, lr}
 8006d96:	b086      	sub	sp, #24
 8006d98:	af00      	add	r7, sp, #0
 8006d9a:	60f8      	str	r0, [r7, #12]
 8006d9c:	60b9      	str	r1, [r7, #8]
 8006d9e:	607a      	str	r2, [r7, #4]
  HAL_StatusTypeDef status = HAL_OK;
 8006da0:	2300      	movs	r3, #0
 8006da2:	75fb      	strb	r3, [r7, #23]
  assert_param(IS_TIM_PWM_MODE(sConfig->OCMode));
  assert_param(IS_TIM_OC_POLARITY(sConfig->OCPolarity));
  assert_param(IS_TIM_FAST_STATE(sConfig->OCFastMode));

  /* Process Locked */
  __HAL_LOCK(htim);
 8006da4:	68fb      	ldr	r3, [r7, #12]
 8006da6:	f893 303c 	ldrb.w	r3, [r3, #60]	@ 0x3c
 8006daa:	2b01      	cmp	r3, #1
 8006dac:	d101      	bne.n	8006db2 <HAL_TIM_PWM_ConfigChannel+0x1e>
 8006dae:	2302      	movs	r3, #2
 8006db0:	e0ff      	b.n	8006fb2 <HAL_TIM_PWM_ConfigChannel+0x21e>
 8006db2:	68fb      	ldr	r3, [r7, #12]
 8006db4:	2201      	movs	r2, #1
 8006db6:	f883 203c 	strb.w	r2, [r3, #60]	@ 0x3c

  switch (Channel)
 8006dba:	687b      	ldr	r3, [r7, #4]
 8006dbc:	2b14      	cmp	r3, #20
 8006dbe:	f200 80f0 	bhi.w	8006fa2 <HAL_TIM_PWM_ConfigChannel+0x20e>
 8006dc2:	a201      	add	r2, pc, #4	@ (adr r2, 8006dc8 <HAL_TIM_PWM_ConfigChannel+0x34>)
 8006dc4:	f852 f023 	ldr.w	pc, [r2, r3, lsl #2]
 8006dc8:	08006e1d 	.word	0x08006e1d
 8006dcc:	08006fa3 	.word	0x08006fa3
 8006dd0:	08006fa3 	.word	0x08006fa3
 8006dd4:	08006fa3 	.word	0x08006fa3
 8006dd8:	08006e5d 	.word	0x08006e5d
 8006ddc:	08006fa3 	.word	0x08006fa3
 8006de0:	08006fa3 	.word	0x08006fa3
 8006de4:	08006fa3 	.word	0x08006fa3
 8006de8:	08006e9f 	.word	0x08006e9f
 8006dec:	08006fa3 	.word	0x08006fa3
 8006df0:	08006fa3 	.word	0x08006fa3
 8006df4:	08006fa3 	.word	0x08006fa3
 8006df8:	08006edf 	.word	0x08006edf
 8006dfc:	08006fa3 	.word	0x08006fa3
 8006e00:	08006fa3 	.word	0x08006fa3
 8006e04:	08006fa3 	.word	0x08006fa3
 8006e08:	08006f21 	.word	0x08006f21
 8006e0c:	08006fa3 	.word	0x08006fa3
 8006e10:	08006fa3 	.word	0x08006fa3
 8006e14:	08006fa3 	.word	0x08006fa3
 8006e18:	08006f61 	.word	0x08006f61
    {
      /* Check the parameters */
      assert_param(IS_TIM_CC1_INSTANCE(htim->Instance));

      /* Configure the Channel 1 in PWM mode */
      TIM_OC1_SetConfig(htim->Instance, sConfig);
 8006e1c:	68fb      	ldr	r3, [r7, #12]
 8006e1e:	681b      	ldr	r3, [r3, #0]
 8006e20:	68b9      	ldr	r1, [r7, #8]
 8006e22:	4618      	mov	r0, r3
 8006e24:	f000 fa94 	bl	8007350 <TIM_OC1_SetConfig>

      /* Set the Preload enable bit for channel1 */
      htim->Instance->CCMR1 |= TIM_CCMR1_OC1PE;
 8006e28:	68fb      	ldr	r3, [r7, #12]
 8006e2a:	681b      	ldr	r3, [r3, #0]
 8006e2c:	699a      	ldr	r2, [r3, #24]
 8006e2e:	68fb      	ldr	r3, [r7, #12]
 8006e30:	681b      	ldr	r3, [r3, #0]
 8006e32:	f042 0208 	orr.w	r2, r2, #8
 8006e36:	619a      	str	r2, [r3, #24]

      /* Configure the Output Fast mode */
      htim->Instance->CCMR1 &= ~TIM_CCMR1_OC1FE;
 8006e38:	68fb      	ldr	r3, [r7, #12]
 8006e3a:	681b      	ldr	r3, [r3, #0]
 8006e3c:	699a      	ldr	r2, [r3, #24]
 8006e3e:	68fb      	ldr	r3, [r7, #12]
 8006e40:	681b      	ldr	r3, [r3, #0]
 8006e42:	f022 0204 	bic.w	r2, r2, #4
 8006e46:	619a      	str	r2, [r3, #24]
      htim->Instance->CCMR1 |= sConfig->OCFastMode;
 8006e48:	68fb      	ldr	r3, [r7, #12]
 8006e4a:	681b      	ldr	r3, [r3, #0]
 8006e4c:	6999      	ldr	r1, [r3, #24]
 8006e4e:	68bb      	ldr	r3, [r7, #8]
 8006e50:	691a      	ldr	r2, [r3, #16]
 8006e52:	68fb      	ldr	r3, [r7, #12]
 8006e54:	681b      	ldr	r3, [r3, #0]
 8006e56:	430a      	orrs	r2, r1
 8006e58:	619a      	str	r2, [r3, #24]
      break;
 8006e5a:	e0a5      	b.n	8006fa8 <HAL_TIM_PWM_ConfigChannel+0x214>
    {
      /* Check the parameters */
      assert_param(IS_TIM_CC2_INSTANCE(htim->Instance));

      /* Configure the Channel 2 in PWM mode */
      TIM_OC2_SetConfig(htim->Instance, sConfig);
 8006e5c:	68fb      	ldr	r3, [r7, #12]
 8006e5e:	681b      	ldr	r3, [r3, #0]
 8006e60:	68b9      	ldr	r1, [r7, #8]
 8006e62:	4618      	mov	r0, r3
 8006e64:	f000 fb0e 	bl	8007484 <TIM_OC2_SetConfig>

      /* Set the Preload enable bit for channel2 */
      htim->Instance->CCMR1 |= TIM_CCMR1_OC2PE;
 8006e68:	68fb      	ldr	r3, [r7, #12]
 8006e6a:	681b      	ldr	r3, [r3, #0]
 8006e6c:	699a      	ldr	r2, [r3, #24]
 8006e6e:	68fb      	ldr	r3, [r7, #12]
 8006e70:	681b      	ldr	r3, [r3, #0]
 8006e72:	f442 6200 	orr.w	r2, r2, #2048	@ 0x800
 8006e76:	619a      	str	r2, [r3, #24]

      /* Configure the Output Fast mode */
      htim->Instance->CCMR1 &= ~TIM_CCMR1_OC2FE;
 8006e78:	68fb      	ldr	r3, [r7, #12]
 8006e7a:	681b      	ldr	r3, [r3, #0]
 8006e7c:	699a      	ldr	r2, [r3, #24]
 8006e7e:	68fb      	ldr	r3, [r7, #12]
 8006e80:	681b      	ldr	r3, [r3, #0]
 8006e82:	f422 6280 	bic.w	r2, r2, #1024	@ 0x400
 8006e86:	619a      	str	r2, [r3, #24]
      htim->Instance->CCMR1 |= sConfig->OCFastMode << 8U;
 8006e88:	68fb      	ldr	r3, [r7, #12]
 8006e8a:	681b      	ldr	r3, [r3, #0]
 8006e8c:	6999      	ldr	r1, [r3, #24]
 8006e8e:	68bb      	ldr	r3, [r7, #8]
 8006e90:	691b      	ldr	r3, [r3, #16]
 8006e92:	021a      	lsls	r2, r3, #8
 8006e94:	68fb      	ldr	r3, [r7, #12]
 8006e96:	681b      	ldr	r3, [r3, #0]
 8006e98:	430a      	orrs	r2, r1
 8006e9a:	619a      	str	r2, [r3, #24]
      break;
 8006e9c:	e084      	b.n	8006fa8 <HAL_TIM_PWM_ConfigChannel+0x214>
    {
      /* Check the parameters */
      assert_param(IS_TIM_CC3_INSTANCE(htim->Instance));

      /* Configure the Channel 3 in PWM mode */
      TIM_OC3_SetConfig(htim->Instance, sConfig);
 8006e9e:	68fb      	ldr	r3, [r7, #12]
 8006ea0:	681b      	ldr	r3, [r3, #0]
 8006ea2:	68b9      	ldr	r1, [r7, #8]
 8006ea4:	4618      	mov	r0, r3
 8006ea6:	f000 fb81 	bl	80075ac <TIM_OC3_SetConfig>

      /* Set the Preload enable bit for channel3 */
      htim->Instance->CCMR2 |= TIM_CCMR2_OC3PE;
 8006eaa:	68fb      	ldr	r3, [r7, #12]
 8006eac:	681b      	ldr	r3, [r3, #0]
 8006eae:	69da      	ldr	r2, [r3, #28]
 8006eb0:	68fb      	ldr	r3, [r7, #12]
 8006eb2:	681b      	ldr	r3, [r3, #0]
 8006eb4:	f042 0208 	orr.w	r2, r2, #8
 8006eb8:	61da      	str	r2, [r3, #28]

      /* Configure the Output Fast mode */
      htim->Instance->CCMR2 &= ~TIM_CCMR2_OC3FE;
 8006eba:	68fb      	ldr	r3, [r7, #12]
 8006ebc:	681b      	ldr	r3, [r3, #0]
 8006ebe:	69da      	ldr	r2, [r3, #28]
 8006ec0:	68fb      	ldr	r3, [r7, #12]
 8006ec2:	681b      	ldr	r3, [r3, #0]
 8006ec4:	f022 0204 	bic.w	r2, r2, #4
 8006ec8:	61da      	str	r2, [r3, #28]
      htim->Instance->CCMR2 |= sConfig->OCFastMode;
 8006eca:	68fb      	ldr	r3, [r7, #12]
 8006ecc:	681b      	ldr	r3, [r3, #0]
 8006ece:	69d9      	ldr	r1, [r3, #28]
 8006ed0:	68bb      	ldr	r3, [r7, #8]
 8006ed2:	691a      	ldr	r2, [r3, #16]
 8006ed4:	68fb      	ldr	r3, [r7, #12]
 8006ed6:	681b      	ldr	r3, [r3, #0]
 8006ed8:	430a      	orrs	r2, r1
 8006eda:	61da      	str	r2, [r3, #28]
      break;
 8006edc:	e064      	b.n	8006fa8 <HAL_TIM_PWM_ConfigChannel+0x214>
    {
      /* Check the parameters */
      assert_param(IS_TIM_CC4_INSTANCE(htim->Instance));

      /* Configure the Channel 4 in PWM mode */
      TIM_OC4_SetConfig(htim->Instance, sConfig);
 8006ede:	68fb      	ldr	r3, [r7, #12]
 8006ee0:	681b      	ldr	r3, [r3, #0]
 8006ee2:	68b9      	ldr	r1, [r7, #8]
 8006ee4:	4618      	mov	r0, r3
 8006ee6:	f000 fbf3 	bl	80076d0 <TIM_OC4_SetConfig>

      /* Set the Preload enable bit for channel4 */
      htim->Instance->CCMR2 |= TIM_CCMR2_OC4PE;
 8006eea:	68fb      	ldr	r3, [r7, #12]
 8006eec:	681b      	ldr	r3, [r3, #0]
 8006eee:	69da      	ldr	r2, [r3, #28]
 8006ef0:	68fb      	ldr	r3, [r7, #12]
 8006ef2:	681b      	ldr	r3, [r3, #0]
 8006ef4:	f442 6200 	orr.w	r2, r2, #2048	@ 0x800
 8006ef8:	61da      	str	r2, [r3, #28]

      /* Configure the Output Fast mode */
      htim->Instance->CCMR2 &= ~TIM_CCMR2_OC4FE;
 8006efa:	68fb      	ldr	r3, [r7, #12]
 8006efc:	681b      	ldr	r3, [r3, #0]
 8006efe:	69da      	ldr	r2, [r3, #28]
 8006f00:	68fb      	ldr	r3, [r7, #12]
 8006f02:	681b      	ldr	r3, [r3, #0]
 8006f04:	f422 6280 	bic.w	r2, r2, #1024	@ 0x400
 8006f08:	61da      	str	r2, [r3, #28]
      htim->Instance->CCMR2 |= sConfig->OCFastMode << 8U;
 8006f0a:	68fb      	ldr	r3, [r7, #12]
 8006f0c:	681b      	ldr	r3, [r3, #0]
 8006f0e:	69d9      	ldr	r1, [r3, #28]
 8006f10:	68bb      	ldr	r3, [r7, #8]
 8006f12:	691b      	ldr	r3, [r3, #16]
 8006f14:	021a      	lsls	r2, r3, #8
 8006f16:	68fb      	ldr	r3, [r7, #12]
 8006f18:	681b      	ldr	r3, [r3, #0]
 8006f1a:	430a      	orrs	r2, r1
 8006f1c:	61da      	str	r2, [r3, #28]
      break;
 8006f1e:	e043      	b.n	8006fa8 <HAL_TIM_PWM_ConfigChannel+0x214>
    {
      /* Check the parameters */
      assert_param(IS_TIM_CC5_INSTANCE(htim->Instance));

      /* Configure the Channel 5 in PWM mode */
      TIM_OC5_SetConfig(htim->Instance, sConfig);
 8006f20:	68fb      	ldr	r3, [r7, #12]
 8006f22:	681b      	ldr	r3, [r3, #0]
 8006f24:	68b9      	ldr	r1, [r7, #8]
 8006f26:	4618      	mov	r0, r3
 8006f28:	f000 fc66 	bl	80077f8 <TIM_OC5_SetConfig>

      /* Set the Preload enable bit for channel5*/
      htim->Instance->CCMR3 |= TIM_CCMR3_OC5PE;
 8006f2c:	68fb      	ldr	r3, [r7, #12]
 8006f2e:	681b      	ldr	r3, [r3, #0]
 8006f30:	6d1a      	ldr	r2, [r3, #80]	@ 0x50
 8006f32:	68fb      	ldr	r3, [r7, #12]
 8006f34:	681b      	ldr	r3, [r3, #0]
 8006f36:	f042 0208 	orr.w	r2, r2, #8
 8006f3a:	651a      	str	r2, [r3, #80]	@ 0x50

      /* Configure the Output Fast mode */
      htim->Instance->CCMR3 &= ~TIM_CCMR3_OC5FE;
 8006f3c:	68fb      	ldr	r3, [r7, #12]
 8006f3e:	681b      	ldr	r3, [r3, #0]
 8006f40:	6d1a      	ldr	r2, [r3, #80]	@ 0x50
 8006f42:	68fb      	ldr	r3, [r7, #12]
 8006f44:	681b      	ldr	r3, [r3, #0]
 8006f46:	f022 0204 	bic.w	r2, r2, #4
 8006f4a:	651a      	str	r2, [r3, #80]	@ 0x50
      htim->Instance->CCMR3 |= sConfig->OCFastMode;
 8006f4c:	68fb      	ldr	r3, [r7, #12]
 8006f4e:	681b      	ldr	r3, [r3, #0]
 8006f50:	6d19      	ldr	r1, [r3, #80]	@ 0x50
 8006f52:	68bb      	ldr	r3, [r7, #8]
 8006f54:	691a      	ldr	r2, [r3, #16]
 8006f56:	68fb      	ldr	r3, [r7, #12]
 8006f58:	681b      	ldr	r3, [r3, #0]
 8006f5a:	430a      	orrs	r2, r1
 8006f5c:	651a      	str	r2, [r3, #80]	@ 0x50
      break;
 8006f5e:	e023      	b.n	8006fa8 <HAL_TIM_PWM_ConfigChannel+0x214>
    {
      /* Check the parameters */
      assert_param(IS_TIM_CC6_INSTANCE(htim->Instance));

      /* Configure the Channel 6 in PWM mode */
      TIM_OC6_SetConfig(htim->Instance, sConfig);
 8006f60:	68fb      	ldr	r3, [r7, #12]
 8006f62:	681b      	ldr	r3, [r3, #0]
 8006f64:	68b9      	ldr	r1, [r7, #8]
 8006f66:	4618      	mov	r0, r3
 8006f68:	f000 fcb0 	bl	80078cc <TIM_OC6_SetConfig>

      /* Set the Preload enable bit for channel6 */
      htim->Instance->CCMR3 |= TIM_CCMR3_OC6PE;
 8006f6c:	68fb      	ldr	r3, [r7, #12]
 8006f6e:	681b      	ldr	r3, [r3, #0]
 8006f70:	6d1a      	ldr	r2, [r3, #80]	@ 0x50
 8006f72:	68fb      	ldr	r3, [r7, #12]
 8006f74:	681b      	ldr	r3, [r3, #0]
 8006f76:	f442 6200 	orr.w	r2, r2, #2048	@ 0x800
 8006f7a:	651a      	str	r2, [r3, #80]	@ 0x50

      /* Configure the Output Fast mode */
      htim->Instance->CCMR3 &= ~TIM_CCMR3_OC6FE;
 8006f7c:	68fb      	ldr	r3, [r7, #12]
 8006f7e:	681b      	ldr	r3, [r3, #0]
 8006f80:	6d1a      	ldr	r2, [r3, #80]	@ 0x50
 8006f82:	68fb      	ldr	r3, [r7, #12]
 8006f84:	681b      	ldr	r3, [r3, #0]
 8006f86:	f422 6280 	bic.w	r2, r2, #1024	@ 0x400
 8006f8a:	651a      	str	r2, [r3, #80]	@ 0x50
      htim->Instance->CCMR3 |= sConfig->OCFastMode << 8U;
 8006f8c:	68fb      	ldr	r3, [r7, #12]
 8006f8e:	681b      	ldr	r3, [r3, #0]
 8006f90:	6d19      	ldr	r1, [r3, #80]	@ 0x50
 8006f92:	68bb      	ldr	r3, [r7, #8]
 8006f94:	691b      	ldr	r3, [r3, #16]
 8006f96:	021a      	lsls	r2, r3, #8
 8006f98:	68fb      	ldr	r3, [r7, #12]
 8006f9a:	681b      	ldr	r3, [r3, #0]
 8006f9c:	430a      	orrs	r2, r1
 8006f9e:	651a      	str	r2, [r3, #80]	@ 0x50
      break;
 8006fa0:	e002      	b.n	8006fa8 <HAL_TIM_PWM_ConfigChannel+0x214>
    }

    default:
      status = HAL_ERROR;
 8006fa2:	2301      	movs	r3, #1
 8006fa4:	75fb      	strb	r3, [r7, #23]
      break;
 8006fa6:	bf00      	nop
  }

  __HAL_UNLOCK(htim);
 8006fa8:	68fb      	ldr	r3, [r7, #12]
 8006faa:	2200      	movs	r2, #0
 8006fac:	f883 203c 	strb.w	r2, [r3, #60]	@ 0x3c

  return status;
 8006fb0:	7dfb      	ldrb	r3, [r7, #23]
}
 8006fb2:	4618      	mov	r0, r3
 8006fb4:	3718      	adds	r7, #24
 8006fb6:	46bd      	mov	sp, r7
 8006fb8:	bd80      	pop	{r7, pc}
 8006fba:	bf00      	nop

08006fbc <HAL_TIM_ConfigClockSource>:
  * @param  sClockSourceConfig pointer to a TIM_ClockConfigTypeDef structure that
  *         contains the clock source information for the TIM peripheral.
  * @retval HAL status
  */
HAL_StatusTypeDef HAL_TIM_ConfigClockSource(TIM_HandleTypeDef *htim, const TIM_ClockConfigTypeDef *sClockSourceConfig)
{
 8006fbc:	b580      	push	{r7, lr}
 8006fbe:	b084      	sub	sp, #16
 8006fc0:	af00      	add	r7, sp, #0
 8006fc2:	6078      	str	r0, [r7, #4]
 8006fc4:	6039      	str	r1, [r7, #0]
  HAL_StatusTypeDef status = HAL_OK;
 8006fc6:	2300      	movs	r3, #0
 8006fc8:	73fb      	strb	r3, [r7, #15]
  uint32_t tmpsmcr;

  /* Process Locked */
  __HAL_LOCK(htim);
 8006fca:	687b      	ldr	r3, [r7, #4]
 8006fcc:	f893 303c 	ldrb.w	r3, [r3, #60]	@ 0x3c
 8006fd0:	2b01      	cmp	r3, #1
 8006fd2:	d101      	bne.n	8006fd8 <HAL_TIM_ConfigClockSource+0x1c>
 8006fd4:	2302      	movs	r3, #2
 8006fd6:	e0f6      	b.n	80071c6 <HAL_TIM_ConfigClockSource+0x20a>
 8006fd8:	687b      	ldr	r3, [r7, #4]
 8006fda:	2201      	movs	r2, #1
 8006fdc:	f883 203c 	strb.w	r2, [r3, #60]	@ 0x3c

  htim->State = HAL_TIM_STATE_BUSY;
 8006fe0:	687b      	ldr	r3, [r7, #4]
 8006fe2:	2202      	movs	r2, #2
 8006fe4:	f883 203d 	strb.w	r2, [r3, #61]	@ 0x3d

  /* Check the parameters */
  assert_param(IS_TIM_CLOCKSOURCE(sClockSourceConfig->ClockSource));

  /* Reset the SMS, TS, ECE, ETPS and ETRF bits */
  tmpsmcr = htim->Instance->SMCR;
 8006fe8:	687b      	ldr	r3, [r7, #4]
 8006fea:	681b      	ldr	r3, [r3, #0]
 8006fec:	689b      	ldr	r3, [r3, #8]
 8006fee:	60bb      	str	r3, [r7, #8]
  tmpsmcr &= ~(TIM_SMCR_SMS | TIM_SMCR_TS);
 8006ff0:	68bb      	ldr	r3, [r7, #8]
 8006ff2:	f423 1344 	bic.w	r3, r3, #3211264	@ 0x310000
 8006ff6:	f023 0377 	bic.w	r3, r3, #119	@ 0x77
 8006ffa:	60bb      	str	r3, [r7, #8]
  tmpsmcr &= ~(TIM_SMCR_ETF | TIM_SMCR_ETPS | TIM_SMCR_ECE | TIM_SMCR_ETP);
 8006ffc:	68bb      	ldr	r3, [r7, #8]
 8006ffe:	f423 437f 	bic.w	r3, r3, #65280	@ 0xff00
 8007002:	60bb      	str	r3, [r7, #8]
  htim->Instance->SMCR = tmpsmcr;
 8007004:	687b      	ldr	r3, [r7, #4]
 8007006:	681b      	ldr	r3, [r3, #0]
 8007008:	68ba      	ldr	r2, [r7, #8]
 800700a:	609a      	str	r2, [r3, #8]

  switch (sClockSourceConfig->ClockSource)
 800700c:	683b      	ldr	r3, [r7, #0]
 800700e:	681b      	ldr	r3, [r3, #0]
 8007010:	4a6f      	ldr	r2, [pc, #444]	@ (80071d0 <HAL_TIM_ConfigClockSource+0x214>)
 8007012:	4293      	cmp	r3, r2
 8007014:	f000 80c1 	beq.w	800719a <HAL_TIM_ConfigClockSource+0x1de>
 8007018:	4a6d      	ldr	r2, [pc, #436]	@ (80071d0 <HAL_TIM_ConfigClockSource+0x214>)
 800701a:	4293      	cmp	r3, r2
 800701c:	f200 80c6 	bhi.w	80071ac <HAL_TIM_ConfigClockSource+0x1f0>
 8007020:	4a6c      	ldr	r2, [pc, #432]	@ (80071d4 <HAL_TIM_ConfigClockSource+0x218>)
 8007022:	4293      	cmp	r3, r2
 8007024:	f000 80b9 	beq.w	800719a <HAL_TIM_ConfigClockSource+0x1de>
 8007028:	4a6a      	ldr	r2, [pc, #424]	@ (80071d4 <HAL_TIM_ConfigClockSource+0x218>)
 800702a:	4293      	cmp	r3, r2
 800702c:	f200 80be 	bhi.w	80071ac <HAL_TIM_ConfigClockSource+0x1f0>
 8007030:	4a69      	ldr	r2, [pc, #420]	@ (80071d8 <HAL_TIM_ConfigClockSource+0x21c>)
 8007032:	4293      	cmp	r3, r2
 8007034:	f000 80b1 	beq.w	800719a <HAL_TIM_ConfigClockSource+0x1de>
 8007038:	4a67      	ldr	r2, [pc, #412]	@ (80071d8 <HAL_TIM_ConfigClockSource+0x21c>)
 800703a:	4293      	cmp	r3, r2
 800703c:	f200 80b6 	bhi.w	80071ac <HAL_TIM_ConfigClockSource+0x1f0>
 8007040:	4a66      	ldr	r2, [pc, #408]	@ (80071dc <HAL_TIM_ConfigClockSource+0x220>)
 8007042:	4293      	cmp	r3, r2
 8007044:	f000 80a9 	beq.w	800719a <HAL_TIM_ConfigClockSource+0x1de>
 8007048:	4a64      	ldr	r2, [pc, #400]	@ (80071dc <HAL_TIM_ConfigClockSource+0x220>)
 800704a:	4293      	cmp	r3, r2
 800704c:	f200 80ae 	bhi.w	80071ac <HAL_TIM_ConfigClockSource+0x1f0>
 8007050:	4a63      	ldr	r2, [pc, #396]	@ (80071e0 <HAL_TIM_ConfigClockSource+0x224>)
 8007052:	4293      	cmp	r3, r2
 8007054:	f000 80a1 	beq.w	800719a <HAL_TIM_ConfigClockSource+0x1de>
 8007058:	4a61      	ldr	r2, [pc, #388]	@ (80071e0 <HAL_TIM_ConfigClockSource+0x224>)
 800705a:	4293      	cmp	r3, r2
 800705c:	f200 80a6 	bhi.w	80071ac <HAL_TIM_ConfigClockSource+0x1f0>
 8007060:	4a60      	ldr	r2, [pc, #384]	@ (80071e4 <HAL_TIM_ConfigClockSource+0x228>)
 8007062:	4293      	cmp	r3, r2
 8007064:	f000 8099 	beq.w	800719a <HAL_TIM_ConfigClockSource+0x1de>
 8007068:	4a5e      	ldr	r2, [pc, #376]	@ (80071e4 <HAL_TIM_ConfigClockSource+0x228>)
 800706a:	4293      	cmp	r3, r2
 800706c:	f200 809e 	bhi.w	80071ac <HAL_TIM_ConfigClockSource+0x1f0>
 8007070:	f1b3 1f10 	cmp.w	r3, #1048592	@ 0x100010
 8007074:	f000 8091 	beq.w	800719a <HAL_TIM_ConfigClockSource+0x1de>
 8007078:	f1b3 1f10 	cmp.w	r3, #1048592	@ 0x100010
 800707c:	f200 8096 	bhi.w	80071ac <HAL_TIM_ConfigClockSource+0x1f0>
 8007080:	f5b3 1f80 	cmp.w	r3, #1048576	@ 0x100000
 8007084:	f000 8089 	beq.w	800719a <HAL_TIM_ConfigClockSource+0x1de>
 8007088:	f5b3 1f80 	cmp.w	r3, #1048576	@ 0x100000
 800708c:	f200 808e 	bhi.w	80071ac <HAL_TIM_ConfigClockSource+0x1f0>
 8007090:	f5b3 5f00 	cmp.w	r3, #8192	@ 0x2000
 8007094:	d03e      	beq.n	8007114 <HAL_TIM_ConfigClockSource+0x158>
 8007096:	f5b3 5f00 	cmp.w	r3, #8192	@ 0x2000
 800709a:	f200 8087 	bhi.w	80071ac <HAL_TIM_ConfigClockSource+0x1f0>
 800709e:	f5b3 5f80 	cmp.w	r3, #4096	@ 0x1000
 80070a2:	f000 8086 	beq.w	80071b2 <HAL_TIM_ConfigClockSource+0x1f6>
 80070a6:	f5b3 5f80 	cmp.w	r3, #4096	@ 0x1000
 80070aa:	d87f      	bhi.n	80071ac <HAL_TIM_ConfigClockSource+0x1f0>
 80070ac:	2b70      	cmp	r3, #112	@ 0x70
 80070ae:	d01a      	beq.n	80070e6 <HAL_TIM_ConfigClockSource+0x12a>
 80070b0:	2b70      	cmp	r3, #112	@ 0x70
 80070b2:	d87b      	bhi.n	80071ac <HAL_TIM_ConfigClockSource+0x1f0>
 80070b4:	2b60      	cmp	r3, #96	@ 0x60
 80070b6:	d050      	beq.n	800715a <HAL_TIM_ConfigClockSource+0x19e>
 80070b8:	2b60      	cmp	r3, #96	@ 0x60
 80070ba:	d877      	bhi.n	80071ac <HAL_TIM_ConfigClockSource+0x1f0>
 80070bc:	2b50      	cmp	r3, #80	@ 0x50
 80070be:	d03c      	beq.n	800713a <HAL_TIM_ConfigClockSource+0x17e>
 80070c0:	2b50      	cmp	r3, #80	@ 0x50
 80070c2:	d873      	bhi.n	80071ac <HAL_TIM_ConfigClockSource+0x1f0>
 80070c4:	2b40      	cmp	r3, #64	@ 0x40
 80070c6:	d058      	beq.n	800717a <HAL_TIM_ConfigClockSource+0x1be>
 80070c8:	2b40      	cmp	r3, #64	@ 0x40
 80070ca:	d86f      	bhi.n	80071ac <HAL_TIM_ConfigClockSource+0x1f0>
 80070cc:	2b30      	cmp	r3, #48	@ 0x30
 80070ce:	d064      	beq.n	800719a <HAL_TIM_ConfigClockSource+0x1de>
 80070d0:	2b30      	cmp	r3, #48	@ 0x30
 80070d2:	d86b      	bhi.n	80071ac <HAL_TIM_ConfigClockSource+0x1f0>
 80070d4:	2b20      	cmp	r3, #32
 80070d6:	d060      	beq.n	800719a <HAL_TIM_ConfigClockSource+0x1de>
 80070d8:	2b20      	cmp	r3, #32
 80070da:	d867      	bhi.n	80071ac <HAL_TIM_ConfigClockSource+0x1f0>
 80070dc:	2b00      	cmp	r3, #0
 80070de:	d05c      	beq.n	800719a <HAL_TIM_ConfigClockSource+0x1de>
 80070e0:	2b10      	cmp	r3, #16
 80070e2:	d05a      	beq.n	800719a <HAL_TIM_ConfigClockSource+0x1de>
 80070e4:	e062      	b.n	80071ac <HAL_TIM_ConfigClockSource+0x1f0>
      assert_param(IS_TIM_CLOCKPRESCALER(sClockSourceConfig->ClockPrescaler));
      assert_param(IS_TIM_CLOCKPOLARITY(sClockSourceConfig->ClockPolarity));
      assert_param(IS_TIM_CLOCKFILTER(sClockSourceConfig->ClockFilter));

      /* Configure the ETR Clock source */
      TIM_ETR_SetConfig(htim->Instance,
 80070e6:	687b      	ldr	r3, [r7, #4]
 80070e8:	6818      	ldr	r0, [r3, #0]
                        sClockSourceConfig->ClockPrescaler,
 80070ea:	683b      	ldr	r3, [r7, #0]
 80070ec:	6899      	ldr	r1, [r3, #8]
                        sClockSourceConfig->ClockPolarity,
 80070ee:	683b      	ldr	r3, [r7, #0]
 80070f0:	685a      	ldr	r2, [r3, #4]
                        sClockSourceConfig->ClockFilter);
 80070f2:	683b      	ldr	r3, [r7, #0]
 80070f4:	68db      	ldr	r3, [r3, #12]
      TIM_ETR_SetConfig(htim->Instance,
 80070f6:	f000 fcd1 	bl	8007a9c <TIM_ETR_SetConfig>

      /* Select the External clock mode1 and the ETRF trigger */
      tmpsmcr = htim->Instance->SMCR;
 80070fa:	687b      	ldr	r3, [r7, #4]
 80070fc:	681b      	ldr	r3, [r3, #0]
 80070fe:	689b      	ldr	r3, [r3, #8]
 8007100:	60bb      	str	r3, [r7, #8]
      tmpsmcr |= (TIM_SLAVEMODE_EXTERNAL1 | TIM_CLOCKSOURCE_ETRMODE1);
 8007102:	68bb      	ldr	r3, [r7, #8]
 8007104:	f043 0377 	orr.w	r3, r3, #119	@ 0x77
 8007108:	60bb      	str	r3, [r7, #8]
      /* Write to TIMx SMCR */
      htim->Instance->SMCR = tmpsmcr;
 800710a:	687b      	ldr	r3, [r7, #4]
 800710c:	681b      	ldr	r3, [r3, #0]
 800710e:	68ba      	ldr	r2, [r7, #8]
 8007110:	609a      	str	r2, [r3, #8]
      break;
 8007112:	e04f      	b.n	80071b4 <HAL_TIM_ConfigClockSource+0x1f8>
      assert_param(IS_TIM_CLOCKPRESCALER(sClockSourceConfig->ClockPrescaler));
      assert_param(IS_TIM_CLOCKPOLARITY(sClockSourceConfig->ClockPolarity));
      assert_param(IS_TIM_CLOCKFILTER(sClockSourceConfig->ClockFilter));

      /* Configure the ETR Clock source */
      TIM_ETR_SetConfig(htim->Instance,
 8007114:	687b      	ldr	r3, [r7, #4]
 8007116:	6818      	ldr	r0, [r3, #0]
                        sClockSourceConfig->ClockPrescaler,
 8007118:	683b      	ldr	r3, [r7, #0]
 800711a:	6899      	ldr	r1, [r3, #8]
                        sClockSourceConfig->ClockPolarity,
 800711c:	683b      	ldr	r3, [r7, #0]
 800711e:	685a      	ldr	r2, [r3, #4]
                        sClockSourceConfig->ClockFilter);
 8007120:	683b      	ldr	r3, [r7, #0]
 8007122:	68db      	ldr	r3, [r3, #12]
      TIM_ETR_SetConfig(htim->Instance,
 8007124:	f000 fcba 	bl	8007a9c <TIM_ETR_SetConfig>
      /* Enable the External clock mode2 */
      htim->Instance->SMCR |= TIM_SMCR_ECE;
 8007128:	687b      	ldr	r3, [r7, #4]
 800712a:	681b      	ldr	r3, [r3, #0]
 800712c:	689a      	ldr	r2, [r3, #8]
 800712e:	687b      	ldr	r3, [r7, #4]
 8007130:	681b      	ldr	r3, [r3, #0]
 8007132:	f442 4280 	orr.w	r2, r2, #16384	@ 0x4000
 8007136:	609a      	str	r2, [r3, #8]
      break;
 8007138:	e03c      	b.n	80071b4 <HAL_TIM_ConfigClockSource+0x1f8>

      /* Check TI1 input conditioning related parameters */
      assert_param(IS_TIM_CLOCKPOLARITY(sClockSourceConfig->ClockPolarity));
      assert_param(IS_TIM_CLOCKFILTER(sClockSourceConfig->ClockFilter));

      TIM_TI1_ConfigInputStage(htim->Instance,
 800713a:	687b      	ldr	r3, [r7, #4]
 800713c:	6818      	ldr	r0, [r3, #0]
                               sClockSourceConfig->ClockPolarity,
 800713e:	683b      	ldr	r3, [r7, #0]
 8007140:	6859      	ldr	r1, [r3, #4]
                               sClockSourceConfig->ClockFilter);
 8007142:	683b      	ldr	r3, [r7, #0]
 8007144:	68db      	ldr	r3, [r3, #12]
      TIM_TI1_ConfigInputStage(htim->Instance,
 8007146:	461a      	mov	r2, r3
 8007148:	f000 fc2c 	bl	80079a4 <TIM_TI1_ConfigInputStage>
      TIM_ITRx_SetConfig(htim->Instance, TIM_CLOCKSOURCE_TI1);
 800714c:	687b      	ldr	r3, [r7, #4]
 800714e:	681b      	ldr	r3, [r3, #0]
 8007150:	2150      	movs	r1, #80	@ 0x50
 8007152:	4618      	mov	r0, r3
 8007154:	f000 fc85 	bl	8007a62 <TIM_ITRx_SetConfig>
      break;
 8007158:	e02c      	b.n	80071b4 <HAL_TIM_ConfigClockSource+0x1f8>

      /* Check TI2 input conditioning related parameters */
      assert_param(IS_TIM_CLOCKPOLARITY(sClockSourceConfig->ClockPolarity));
      assert_param(IS_TIM_CLOCKFILTER(sClockSourceConfig->ClockFilter));

      TIM_TI2_ConfigInputStage(htim->Instance,
 800715a:	687b      	ldr	r3, [r7, #4]
 800715c:	6818      	ldr	r0, [r3, #0]
                               sClockSourceConfig->ClockPolarity,
 800715e:	683b      	ldr	r3, [r7, #0]
 8007160:	6859      	ldr	r1, [r3, #4]
                               sClockSourceConfig->ClockFilter);
 8007162:	683b      	ldr	r3, [r7, #0]
 8007164:	68db      	ldr	r3, [r3, #12]
      TIM_TI2_ConfigInputStage(htim->Instance,
 8007166:	461a      	mov	r2, r3
 8007168:	f000 fc4b 	bl	8007a02 <TIM_TI2_ConfigInputStage>
      TIM_ITRx_SetConfig(htim->Instance, TIM_CLOCKSOURCE_TI2);
 800716c:	687b      	ldr	r3, [r7, #4]
 800716e:	681b      	ldr	r3, [r3, #0]
 8007170:	2160      	movs	r1, #96	@ 0x60
 8007172:	4618      	mov	r0, r3
 8007174:	f000 fc75 	bl	8007a62 <TIM_ITRx_SetConfig>
      break;
 8007178:	e01c      	b.n	80071b4 <HAL_TIM_ConfigClockSource+0x1f8>

      /* Check TI1 input conditioning related parameters */
      assert_param(IS_TIM_CLOCKPOLARITY(sClockSourceConfig->ClockPolarity));
      assert_param(IS_TIM_CLOCKFILTER(sClockSourceConfig->ClockFilter));

      TIM_TI1_ConfigInputStage(htim->Instance,
 800717a:	687b      	ldr	r3, [r7, #4]
 800717c:	6818      	ldr	r0, [r3, #0]
                               sClockSourceConfig->ClockPolarity,
 800717e:	683b      	ldr	r3, [r7, #0]
 8007180:	6859      	ldr	r1, [r3, #4]
                               sClockSourceConfig->ClockFilter);
 8007182:	683b      	ldr	r3, [r7, #0]
 8007184:	68db      	ldr	r3, [r3, #12]
      TIM_TI1_ConfigInputStage(htim->Instance,
 8007186:	461a      	mov	r2, r3
 8007188:	f000 fc0c 	bl	80079a4 <TIM_TI1_ConfigInputStage>
      TIM_ITRx_SetConfig(htim->Instance, TIM_CLOCKSOURCE_TI1ED);
 800718c:	687b      	ldr	r3, [r7, #4]
 800718e:	681b      	ldr	r3, [r3, #0]
 8007190:	2140      	movs	r1, #64	@ 0x40
 8007192:	4618      	mov	r0, r3
 8007194:	f000 fc65 	bl	8007a62 <TIM_ITRx_SetConfig>
      break;
 8007198:	e00c      	b.n	80071b4 <HAL_TIM_ConfigClockSource+0x1f8>
    case TIM_CLOCKSOURCE_ITR11:
    {
      /* Check whether or not the timer instance supports internal trigger input */
      assert_param(IS_TIM_CLOCKSOURCE_INSTANCE((htim->Instance), sClockSourceConfig->ClockSource));

      TIM_ITRx_SetConfig(htim->Instance, sClockSourceConfig->ClockSource);
 800719a:	687b      	ldr	r3, [r7, #4]
 800719c:	681a      	ldr	r2, [r3, #0]
 800719e:	683b      	ldr	r3, [r7, #0]
 80071a0:	681b      	ldr	r3, [r3, #0]
 80071a2:	4619      	mov	r1, r3
 80071a4:	4610      	mov	r0, r2
 80071a6:	f000 fc5c 	bl	8007a62 <TIM_ITRx_SetConfig>
      break;
 80071aa:	e003      	b.n	80071b4 <HAL_TIM_ConfigClockSource+0x1f8>
    }

    default:
      status = HAL_ERROR;
 80071ac:	2301      	movs	r3, #1
 80071ae:	73fb      	strb	r3, [r7, #15]
      break;
 80071b0:	e000      	b.n	80071b4 <HAL_TIM_ConfigClockSource+0x1f8>
      break;
 80071b2:	bf00      	nop
  }
  htim->State = HAL_TIM_STATE_READY;
 80071b4:	687b      	ldr	r3, [r7, #4]
 80071b6:	2201      	movs	r2, #1
 80071b8:	f883 203d 	strb.w	r2, [r3, #61]	@ 0x3d

  __HAL_UNLOCK(htim);
 80071bc:	687b      	ldr	r3, [r7, #4]
 80071be:	2200      	movs	r2, #0
 80071c0:	f883 203c 	strb.w	r2, [r3, #60]	@ 0x3c

  return status;
 80071c4:	7bfb      	ldrb	r3, [r7, #15]
}
 80071c6:	4618      	mov	r0, r3
 80071c8:	3710      	adds	r7, #16
 80071ca:	46bd      	mov	sp, r7
 80071cc:	bd80      	pop	{r7, pc}
 80071ce:	bf00      	nop
 80071d0:	00100070 	.word	0x00100070
 80071d4:	00100060 	.word	0x00100060
 80071d8:	00100050 	.word	0x00100050
 80071dc:	00100040 	.word	0x00100040
 80071e0:	00100030 	.word	0x00100030
 80071e4:	00100020 	.word	0x00100020

080071e8 <TIM_Base_SetConfig>:
  * @param  TIMx TIM peripheral
  * @param  Structure TIM Base configuration structure
  * @retval None
  */
void TIM_Base_SetConfig(TIM_TypeDef *TIMx, const TIM_Base_InitTypeDef *Structure)
{
 80071e8:	b480      	push	{r7}
 80071ea:	b085      	sub	sp, #20
 80071ec:	af00      	add	r7, sp, #0
 80071ee:	6078      	str	r0, [r7, #4]
 80071f0:	6039      	str	r1, [r7, #0]
  uint32_t tmpcr1;
  tmpcr1 = TIMx->CR1;
 80071f2:	687b      	ldr	r3, [r7, #4]
 80071f4:	681b      	ldr	r3, [r3, #0]
 80071f6:	60fb      	str	r3, [r7, #12]

  /* Set TIM Time Base Unit parameters ---------------------------------------*/
  if (IS_TIM_COUNTER_MODE_SELECT_INSTANCE(TIMx))
 80071f8:	687b      	ldr	r3, [r7, #4]
 80071fa:	4a4c      	ldr	r2, [pc, #304]	@ (800732c <TIM_Base_SetConfig+0x144>)
 80071fc:	4293      	cmp	r3, r2
 80071fe:	d017      	beq.n	8007230 <TIM_Base_SetConfig+0x48>
 8007200:	687b      	ldr	r3, [r7, #4]
 8007202:	f1b3 4f80 	cmp.w	r3, #1073741824	@ 0x40000000
 8007206:	d013      	beq.n	8007230 <TIM_Base_SetConfig+0x48>
 8007208:	687b      	ldr	r3, [r7, #4]
 800720a:	4a49      	ldr	r2, [pc, #292]	@ (8007330 <TIM_Base_SetConfig+0x148>)
 800720c:	4293      	cmp	r3, r2
 800720e:	d00f      	beq.n	8007230 <TIM_Base_SetConfig+0x48>
 8007210:	687b      	ldr	r3, [r7, #4]
 8007212:	4a48      	ldr	r2, [pc, #288]	@ (8007334 <TIM_Base_SetConfig+0x14c>)
 8007214:	4293      	cmp	r3, r2
 8007216:	d00b      	beq.n	8007230 <TIM_Base_SetConfig+0x48>
 8007218:	687b      	ldr	r3, [r7, #4]
 800721a:	4a47      	ldr	r2, [pc, #284]	@ (8007338 <TIM_Base_SetConfig+0x150>)
 800721c:	4293      	cmp	r3, r2
 800721e:	d007      	beq.n	8007230 <TIM_Base_SetConfig+0x48>
 8007220:	687b      	ldr	r3, [r7, #4]
 8007222:	4a46      	ldr	r2, [pc, #280]	@ (800733c <TIM_Base_SetConfig+0x154>)
 8007224:	4293      	cmp	r3, r2
 8007226:	d003      	beq.n	8007230 <TIM_Base_SetConfig+0x48>
 8007228:	687b      	ldr	r3, [r7, #4]
 800722a:	4a45      	ldr	r2, [pc, #276]	@ (8007340 <TIM_Base_SetConfig+0x158>)
 800722c:	4293      	cmp	r3, r2
 800722e:	d108      	bne.n	8007242 <TIM_Base_SetConfig+0x5a>
  {
    /* Select the Counter Mode */
    tmpcr1 &= ~(TIM_CR1_DIR | TIM_CR1_CMS);
 8007230:	68fb      	ldr	r3, [r7, #12]
 8007232:	f023 0370 	bic.w	r3, r3, #112	@ 0x70
 8007236:	60fb      	str	r3, [r7, #12]
    tmpcr1 |= Structure->CounterMode;
 8007238:	683b      	ldr	r3, [r7, #0]
 800723a:	685b      	ldr	r3, [r3, #4]
 800723c:	68fa      	ldr	r2, [r7, #12]
 800723e:	4313      	orrs	r3, r2
 8007240:	60fb      	str	r3, [r7, #12]
  }

  if (IS_TIM_CLOCK_DIVISION_INSTANCE(TIMx))
 8007242:	687b      	ldr	r3, [r7, #4]
 8007244:	4a39      	ldr	r2, [pc, #228]	@ (800732c <TIM_Base_SetConfig+0x144>)
 8007246:	4293      	cmp	r3, r2
 8007248:	d023      	beq.n	8007292 <TIM_Base_SetConfig+0xaa>
 800724a:	687b      	ldr	r3, [r7, #4]
 800724c:	f1b3 4f80 	cmp.w	r3, #1073741824	@ 0x40000000
 8007250:	d01f      	beq.n	8007292 <TIM_Base_SetConfig+0xaa>
 8007252:	687b      	ldr	r3, [r7, #4]
 8007254:	4a36      	ldr	r2, [pc, #216]	@ (8007330 <TIM_Base_SetConfig+0x148>)
 8007256:	4293      	cmp	r3, r2
 8007258:	d01b      	beq.n	8007292 <TIM_Base_SetConfig+0xaa>
 800725a:	687b      	ldr	r3, [r7, #4]
 800725c:	4a35      	ldr	r2, [pc, #212]	@ (8007334 <TIM_Base_SetConfig+0x14c>)
 800725e:	4293      	cmp	r3, r2
 8007260:	d017      	beq.n	8007292 <TIM_Base_SetConfig+0xaa>
 8007262:	687b      	ldr	r3, [r7, #4]
 8007264:	4a34      	ldr	r2, [pc, #208]	@ (8007338 <TIM_Base_SetConfig+0x150>)
 8007266:	4293      	cmp	r3, r2
 8007268:	d013      	beq.n	8007292 <TIM_Base_SetConfig+0xaa>
 800726a:	687b      	ldr	r3, [r7, #4]
 800726c:	4a33      	ldr	r2, [pc, #204]	@ (800733c <TIM_Base_SetConfig+0x154>)
 800726e:	4293      	cmp	r3, r2
 8007270:	d00f      	beq.n	8007292 <TIM_Base_SetConfig+0xaa>
 8007272:	687b      	ldr	r3, [r7, #4]
 8007274:	4a33      	ldr	r2, [pc, #204]	@ (8007344 <TIM_Base_SetConfig+0x15c>)
 8007276:	4293      	cmp	r3, r2
 8007278:	d00b      	beq.n	8007292 <TIM_Base_SetConfig+0xaa>
 800727a:	687b      	ldr	r3, [r7, #4]
 800727c:	4a32      	ldr	r2, [pc, #200]	@ (8007348 <TIM_Base_SetConfig+0x160>)
 800727e:	4293      	cmp	r3, r2
 8007280:	d007      	beq.n	8007292 <TIM_Base_SetConfig+0xaa>
 8007282:	687b      	ldr	r3, [r7, #4]
 8007284:	4a31      	ldr	r2, [pc, #196]	@ (800734c <TIM_Base_SetConfig+0x164>)
 8007286:	4293      	cmp	r3, r2
 8007288:	d003      	beq.n	8007292 <TIM_Base_SetConfig+0xaa>
 800728a:	687b      	ldr	r3, [r7, #4]
 800728c:	4a2c      	ldr	r2, [pc, #176]	@ (8007340 <TIM_Base_SetConfig+0x158>)
 800728e:	4293      	cmp	r3, r2
 8007290:	d108      	bne.n	80072a4 <TIM_Base_SetConfig+0xbc>
  {
    /* Set the clock division */
    tmpcr1 &= ~TIM_CR1_CKD;
 8007292:	68fb      	ldr	r3, [r7, #12]
 8007294:	f423 7340 	bic.w	r3, r3, #768	@ 0x300
 8007298:	60fb      	str	r3, [r7, #12]
    tmpcr1 |= (uint32_t)Structure->ClockDivision;
 800729a:	683b      	ldr	r3, [r7, #0]
 800729c:	68db      	ldr	r3, [r3, #12]
 800729e:	68fa      	ldr	r2, [r7, #12]
 80072a0:	4313      	orrs	r3, r2
 80072a2:	60fb      	str	r3, [r7, #12]
  }

  /* Set the auto-reload preload */
  MODIFY_REG(tmpcr1, TIM_CR1_ARPE, Structure->AutoReloadPreload);
 80072a4:	68fb      	ldr	r3, [r7, #12]
 80072a6:	f023 0280 	bic.w	r2, r3, #128	@ 0x80
 80072aa:	683b      	ldr	r3, [r7, #0]
 80072ac:	695b      	ldr	r3, [r3, #20]
 80072ae:	4313      	orrs	r3, r2
 80072b0:	60fb      	str	r3, [r7, #12]

  TIMx->CR1 = tmpcr1;
 80072b2:	687b      	ldr	r3, [r7, #4]
 80072b4:	68fa      	ldr	r2, [r7, #12]
 80072b6:	601a      	str	r2, [r3, #0]

  /* Set the Autoreload value */
  TIMx->ARR = (uint32_t)Structure->Period ;
 80072b8:	683b      	ldr	r3, [r7, #0]
 80072ba:	689a      	ldr	r2, [r3, #8]
 80072bc:	687b      	ldr	r3, [r7, #4]
 80072be:	62da      	str	r2, [r3, #44]	@ 0x2c

  /* Set the Prescaler value */
  TIMx->PSC = Structure->Prescaler;
 80072c0:	683b      	ldr	r3, [r7, #0]
 80072c2:	681a      	ldr	r2, [r3, #0]
 80072c4:	687b      	ldr	r3, [r7, #4]
 80072c6:	629a      	str	r2, [r3, #40]	@ 0x28

  if (IS_TIM_REPETITION_COUNTER_INSTANCE(TIMx))
 80072c8:	687b      	ldr	r3, [r7, #4]
 80072ca:	4a18      	ldr	r2, [pc, #96]	@ (800732c <TIM_Base_SetConfig+0x144>)
 80072cc:	4293      	cmp	r3, r2
 80072ce:	d013      	beq.n	80072f8 <TIM_Base_SetConfig+0x110>
 80072d0:	687b      	ldr	r3, [r7, #4]
 80072d2:	4a1a      	ldr	r2, [pc, #104]	@ (800733c <TIM_Base_SetConfig+0x154>)
 80072d4:	4293      	cmp	r3, r2
 80072d6:	d00f      	beq.n	80072f8 <TIM_Base_SetConfig+0x110>
 80072d8:	687b      	ldr	r3, [r7, #4]
 80072da:	4a1a      	ldr	r2, [pc, #104]	@ (8007344 <TIM_Base_SetConfig+0x15c>)
 80072dc:	4293      	cmp	r3, r2
 80072de:	d00b      	beq.n	80072f8 <TIM_Base_SetConfig+0x110>
 80072e0:	687b      	ldr	r3, [r7, #4]
 80072e2:	4a19      	ldr	r2, [pc, #100]	@ (8007348 <TIM_Base_SetConfig+0x160>)
 80072e4:	4293      	cmp	r3, r2
 80072e6:	d007      	beq.n	80072f8 <TIM_Base_SetConfig+0x110>
 80072e8:	687b      	ldr	r3, [r7, #4]
 80072ea:	4a18      	ldr	r2, [pc, #96]	@ (800734c <TIM_Base_SetConfig+0x164>)
 80072ec:	4293      	cmp	r3, r2
 80072ee:	d003      	beq.n	80072f8 <TIM_Base_SetConfig+0x110>
 80072f0:	687b      	ldr	r3, [r7, #4]
 80072f2:	4a13      	ldr	r2, [pc, #76]	@ (8007340 <TIM_Base_SetConfig+0x158>)
 80072f4:	4293      	cmp	r3, r2
 80072f6:	d103      	bne.n	8007300 <TIM_Base_SetConfig+0x118>
  {
    /* Set the Repetition Counter value */
    TIMx->RCR = Structure->RepetitionCounter;
 80072f8:	683b      	ldr	r3, [r7, #0]
 80072fa:	691a      	ldr	r2, [r3, #16]
 80072fc:	687b      	ldr	r3, [r7, #4]
 80072fe:	631a      	str	r2, [r3, #48]	@ 0x30
  }

  /* Generate an update event to reload the Prescaler
     and the repetition counter (only for advanced timer) value immediately */
  TIMx->EGR = TIM_EGR_UG;
 8007300:	687b      	ldr	r3, [r7, #4]
 8007302:	2201      	movs	r2, #1
 8007304:	615a      	str	r2, [r3, #20]

  /* Check if the update flag is set after the Update Generation, if so clear the UIF flag */
  if (HAL_IS_BIT_SET(TIMx->SR, TIM_FLAG_UPDATE))
 8007306:	687b      	ldr	r3, [r7, #4]
 8007308:	691b      	ldr	r3, [r3, #16]
 800730a:	f003 0301 	and.w	r3, r3, #1
 800730e:	2b01      	cmp	r3, #1
 8007310:	d105      	bne.n	800731e <TIM_Base_SetConfig+0x136>
  {
    /* Clear the update flag */
    CLEAR_BIT(TIMx->SR, TIM_FLAG_UPDATE);
 8007312:	687b      	ldr	r3, [r7, #4]
 8007314:	691b      	ldr	r3, [r3, #16]
 8007316:	f023 0201 	bic.w	r2, r3, #1
 800731a:	687b      	ldr	r3, [r7, #4]
 800731c:	611a      	str	r2, [r3, #16]
  }
}
 800731e:	bf00      	nop
 8007320:	3714      	adds	r7, #20
 8007322:	46bd      	mov	sp, r7
 8007324:	f85d 7b04 	ldr.w	r7, [sp], #4
 8007328:	4770      	bx	lr
 800732a:	bf00      	nop
 800732c:	40012c00 	.word	0x40012c00
 8007330:	40000400 	.word	0x40000400
 8007334:	40000800 	.word	0x40000800
 8007338:	40000c00 	.word	0x40000c00
 800733c:	40013400 	.word	0x40013400
 8007340:	40015000 	.word	0x40015000
 8007344:	40014000 	.word	0x40014000
 8007348:	40014400 	.word	0x40014400
 800734c:	40014800 	.word	0x40014800

08007350 <TIM_OC1_SetConfig>:
  * @param  TIMx to select the TIM peripheral
  * @param  OC_Config The output configuration structure
  * @retval None
  */
static void TIM_OC1_SetConfig(TIM_TypeDef *TIMx, const TIM_OC_InitTypeDef *OC_Config)
{
 8007350:	b480      	push	{r7}
 8007352:	b087      	sub	sp, #28
 8007354:	af00      	add	r7, sp, #0
 8007356:	6078      	str	r0, [r7, #4]
 8007358:	6039      	str	r1, [r7, #0]
  uint32_t tmpccmrx;
  uint32_t tmpccer;
  uint32_t tmpcr2;

  /* Get the TIMx CCER register value */
  tmpccer = TIMx->CCER;
 800735a:	687b      	ldr	r3, [r7, #4]
 800735c:	6a1b      	ldr	r3, [r3, #32]
 800735e:	617b      	str	r3, [r7, #20]

  /* Disable the Channel 1: Reset the CC1E Bit */
  TIMx->CCER &= ~TIM_CCER_CC1E;
 8007360:	687b      	ldr	r3, [r7, #4]
 8007362:	6a1b      	ldr	r3, [r3, #32]
 8007364:	f023 0201 	bic.w	r2, r3, #1
 8007368:	687b      	ldr	r3, [r7, #4]
 800736a:	621a      	str	r2, [r3, #32]

  /* Get the TIMx CR2 register value */
  tmpcr2 =  TIMx->CR2;
 800736c:	687b      	ldr	r3, [r7, #4]
 800736e:	685b      	ldr	r3, [r3, #4]
 8007370:	613b      	str	r3, [r7, #16]

  /* Get the TIMx CCMR1 register value */
  tmpccmrx = TIMx->CCMR1;
 8007372:	687b      	ldr	r3, [r7, #4]
 8007374:	699b      	ldr	r3, [r3, #24]
 8007376:	60fb      	str	r3, [r7, #12]

  /* Reset the Output Compare Mode Bits */
  tmpccmrx &= ~TIM_CCMR1_OC1M;
 8007378:	68fb      	ldr	r3, [r7, #12]
 800737a:	f423 3380 	bic.w	r3, r3, #65536	@ 0x10000
 800737e:	f023 0370 	bic.w	r3, r3, #112	@ 0x70
 8007382:	60fb      	str	r3, [r7, #12]
  tmpccmrx &= ~TIM_CCMR1_CC1S;
 8007384:	68fb      	ldr	r3, [r7, #12]
 8007386:	f023 0303 	bic.w	r3, r3, #3
 800738a:	60fb      	str	r3, [r7, #12]
  /* Select the Output Compare Mode */
  tmpccmrx |= OC_Config->OCMode;
 800738c:	683b      	ldr	r3, [r7, #0]
 800738e:	681b      	ldr	r3, [r3, #0]
 8007390:	68fa      	ldr	r2, [r7, #12]
 8007392:	4313      	orrs	r3, r2
 8007394:	60fb      	str	r3, [r7, #12]

  /* Reset the Output Polarity level */
  tmpccer &= ~TIM_CCER_CC1P;
 8007396:	697b      	ldr	r3, [r7, #20]
 8007398:	f023 0302 	bic.w	r3, r3, #2
 800739c:	617b      	str	r3, [r7, #20]
  /* Set the Output Compare Polarity */
  tmpccer |= OC_Config->OCPolarity;
 800739e:	683b      	ldr	r3, [r7, #0]
 80073a0:	689b      	ldr	r3, [r3, #8]
 80073a2:	697a      	ldr	r2, [r7, #20]
 80073a4:	4313      	orrs	r3, r2
 80073a6:	617b      	str	r3, [r7, #20]

  if (IS_TIM_CCXN_INSTANCE(TIMx, TIM_CHANNEL_1))
 80073a8:	687b      	ldr	r3, [r7, #4]
 80073aa:	4a30      	ldr	r2, [pc, #192]	@ (800746c <TIM_OC1_SetConfig+0x11c>)
 80073ac:	4293      	cmp	r3, r2
 80073ae:	d013      	beq.n	80073d8 <TIM_OC1_SetConfig+0x88>
 80073b0:	687b      	ldr	r3, [r7, #4]
 80073b2:	4a2f      	ldr	r2, [pc, #188]	@ (8007470 <TIM_OC1_SetConfig+0x120>)
 80073b4:	4293      	cmp	r3, r2
 80073b6:	d00f      	beq.n	80073d8 <TIM_OC1_SetConfig+0x88>
 80073b8:	687b      	ldr	r3, [r7, #4]
 80073ba:	4a2e      	ldr	r2, [pc, #184]	@ (8007474 <TIM_OC1_SetConfig+0x124>)
 80073bc:	4293      	cmp	r3, r2
 80073be:	d00b      	beq.n	80073d8 <TIM_OC1_SetConfig+0x88>
 80073c0:	687b      	ldr	r3, [r7, #4]
 80073c2:	4a2d      	ldr	r2, [pc, #180]	@ (8007478 <TIM_OC1_SetConfig+0x128>)
 80073c4:	4293      	cmp	r3, r2
 80073c6:	d007      	beq.n	80073d8 <TIM_OC1_SetConfig+0x88>
 80073c8:	687b      	ldr	r3, [r7, #4]
 80073ca:	4a2c      	ldr	r2, [pc, #176]	@ (800747c <TIM_OC1_SetConfig+0x12c>)
 80073cc:	4293      	cmp	r3, r2
 80073ce:	d003      	beq.n	80073d8 <TIM_OC1_SetConfig+0x88>
 80073d0:	687b      	ldr	r3, [r7, #4]
 80073d2:	4a2b      	ldr	r2, [pc, #172]	@ (8007480 <TIM_OC1_SetConfig+0x130>)
 80073d4:	4293      	cmp	r3, r2
 80073d6:	d10c      	bne.n	80073f2 <TIM_OC1_SetConfig+0xa2>
  {
    /* Check parameters */
    assert_param(IS_TIM_OCN_POLARITY(OC_Config->OCNPolarity));

    /* Reset the Output N Polarity level */
    tmpccer &= ~TIM_CCER_CC1NP;
 80073d8:	697b      	ldr	r3, [r7, #20]
 80073da:	f023 0308 	bic.w	r3, r3, #8
 80073de:	617b      	str	r3, [r7, #20]
    /* Set the Output N Polarity */
    tmpccer |= OC_Config->OCNPolarity;
 80073e0:	683b      	ldr	r3, [r7, #0]
 80073e2:	68db      	ldr	r3, [r3, #12]
 80073e4:	697a      	ldr	r2, [r7, #20]
 80073e6:	4313      	orrs	r3, r2
 80073e8:	617b      	str	r3, [r7, #20]
    /* Reset the Output N State */
    tmpccer &= ~TIM_CCER_CC1NE;
 80073ea:	697b      	ldr	r3, [r7, #20]
 80073ec:	f023 0304 	bic.w	r3, r3, #4
 80073f0:	617b      	str	r3, [r7, #20]
  }

  if (IS_TIM_BREAK_INSTANCE(TIMx))
 80073f2:	687b      	ldr	r3, [r7, #4]
 80073f4:	4a1d      	ldr	r2, [pc, #116]	@ (800746c <TIM_OC1_SetConfig+0x11c>)
 80073f6:	4293      	cmp	r3, r2
 80073f8:	d013      	beq.n	8007422 <TIM_OC1_SetConfig+0xd2>
 80073fa:	687b      	ldr	r3, [r7, #4]
 80073fc:	4a1c      	ldr	r2, [pc, #112]	@ (8007470 <TIM_OC1_SetConfig+0x120>)
 80073fe:	4293      	cmp	r3, r2
 8007400:	d00f      	beq.n	8007422 <TIM_OC1_SetConfig+0xd2>
 8007402:	687b      	ldr	r3, [r7, #4]
 8007404:	4a1b      	ldr	r2, [pc, #108]	@ (8007474 <TIM_OC1_SetConfig+0x124>)
 8007406:	4293      	cmp	r3, r2
 8007408:	d00b      	beq.n	8007422 <TIM_OC1_SetConfig+0xd2>
 800740a:	687b      	ldr	r3, [r7, #4]
 800740c:	4a1a      	ldr	r2, [pc, #104]	@ (8007478 <TIM_OC1_SetConfig+0x128>)
 800740e:	4293      	cmp	r3, r2
 8007410:	d007      	beq.n	8007422 <TIM_OC1_SetConfig+0xd2>
 8007412:	687b      	ldr	r3, [r7, #4]
 8007414:	4a19      	ldr	r2, [pc, #100]	@ (800747c <TIM_OC1_SetConfig+0x12c>)
 8007416:	4293      	cmp	r3, r2
 8007418:	d003      	beq.n	8007422 <TIM_OC1_SetConfig+0xd2>
 800741a:	687b      	ldr	r3, [r7, #4]
 800741c:	4a18      	ldr	r2, [pc, #96]	@ (8007480 <TIM_OC1_SetConfig+0x130>)
 800741e:	4293      	cmp	r3, r2
 8007420:	d111      	bne.n	8007446 <TIM_OC1_SetConfig+0xf6>
    /* Check parameters */
    assert_param(IS_TIM_OCNIDLE_STATE(OC_Config->OCNIdleState));
    assert_param(IS_TIM_OCIDLE_STATE(OC_Config->OCIdleState));

    /* Reset the Output Compare and Output Compare N IDLE State */
    tmpcr2 &= ~TIM_CR2_OIS1;
 8007422:	693b      	ldr	r3, [r7, #16]
 8007424:	f423 7380 	bic.w	r3, r3, #256	@ 0x100
 8007428:	613b      	str	r3, [r7, #16]
    tmpcr2 &= ~TIM_CR2_OIS1N;
 800742a:	693b      	ldr	r3, [r7, #16]
 800742c:	f423 7300 	bic.w	r3, r3, #512	@ 0x200
 8007430:	613b      	str	r3, [r7, #16]
    /* Set the Output Idle state */
    tmpcr2 |= OC_Config->OCIdleState;
 8007432:	683b      	ldr	r3, [r7, #0]
 8007434:	695b      	ldr	r3, [r3, #20]
 8007436:	693a      	ldr	r2, [r7, #16]
 8007438:	4313      	orrs	r3, r2
 800743a:	613b      	str	r3, [r7, #16]
    /* Set the Output N Idle state */
    tmpcr2 |= OC_Config->OCNIdleState;
 800743c:	683b      	ldr	r3, [r7, #0]
 800743e:	699b      	ldr	r3, [r3, #24]
 8007440:	693a      	ldr	r2, [r7, #16]
 8007442:	4313      	orrs	r3, r2
 8007444:	613b      	str	r3, [r7, #16]
  }

  /* Write to TIMx CR2 */
  TIMx->CR2 = tmpcr2;
 8007446:	687b      	ldr	r3, [r7, #4]
 8007448:	693a      	ldr	r2, [r7, #16]
 800744a:	605a      	str	r2, [r3, #4]

  /* Write to TIMx CCMR1 */
  TIMx->CCMR1 = tmpccmrx;
 800744c:	687b      	ldr	r3, [r7, #4]
 800744e:	68fa      	ldr	r2, [r7, #12]
 8007450:	619a      	str	r2, [r3, #24]

  /* Set the Capture Compare Register value */
  TIMx->CCR1 = OC_Config->Pulse;
 8007452:	683b      	ldr	r3, [r7, #0]
 8007454:	685a      	ldr	r2, [r3, #4]
 8007456:	687b      	ldr	r3, [r7, #4]
 8007458:	635a      	str	r2, [r3, #52]	@ 0x34

  /* Write to TIMx CCER */
  TIMx->CCER = tmpccer;
 800745a:	687b      	ldr	r3, [r7, #4]
 800745c:	697a      	ldr	r2, [r7, #20]
 800745e:	621a      	str	r2, [r3, #32]
}
 8007460:	bf00      	nop
 8007462:	371c      	adds	r7, #28
 8007464:	46bd      	mov	sp, r7
 8007466:	f85d 7b04 	ldr.w	r7, [sp], #4
 800746a:	4770      	bx	lr
 800746c:	40012c00 	.word	0x40012c00
 8007470:	40013400 	.word	0x40013400
 8007474:	40014000 	.word	0x40014000
 8007478:	40014400 	.word	0x40014400
 800747c:	40014800 	.word	0x40014800
 8007480:	40015000 	.word	0x40015000

08007484 <TIM_OC2_SetConfig>:
  * @param  TIMx to select the TIM peripheral
  * @param  OC_Config The output configuration structure
  * @retval None
  */
void TIM_OC2_SetConfig(TIM_TypeDef *TIMx, const TIM_OC_InitTypeDef *OC_Config)
{
 8007484:	b480      	push	{r7}
 8007486:	b087      	sub	sp, #28
 8007488:	af00      	add	r7, sp, #0
 800748a:	6078      	str	r0, [r7, #4]
 800748c:	6039      	str	r1, [r7, #0]
  uint32_t tmpccmrx;
  uint32_t tmpccer;
  uint32_t tmpcr2;

  /* Get the TIMx CCER register value */
  tmpccer = TIMx->CCER;
 800748e:	687b      	ldr	r3, [r7, #4]
 8007490:	6a1b      	ldr	r3, [r3, #32]
 8007492:	617b      	str	r3, [r7, #20]

  /* Disable the Channel 2: Reset the CC2E Bit */
  TIMx->CCER &= ~TIM_CCER_CC2E;
 8007494:	687b      	ldr	r3, [r7, #4]
 8007496:	6a1b      	ldr	r3, [r3, #32]
 8007498:	f023 0210 	bic.w	r2, r3, #16
 800749c:	687b      	ldr	r3, [r7, #4]
 800749e:	621a      	str	r2, [r3, #32]

  /* Get the TIMx CR2 register value */
  tmpcr2 =  TIMx->CR2;
 80074a0:	687b      	ldr	r3, [r7, #4]
 80074a2:	685b      	ldr	r3, [r3, #4]
 80074a4:	613b      	str	r3, [r7, #16]

  /* Get the TIMx CCMR1 register value */
  tmpccmrx = TIMx->CCMR1;
 80074a6:	687b      	ldr	r3, [r7, #4]
 80074a8:	699b      	ldr	r3, [r3, #24]
 80074aa:	60fb      	str	r3, [r7, #12]

  /* Reset the Output Compare mode and Capture/Compare selection Bits */
  tmpccmrx &= ~TIM_CCMR1_OC2M;
 80074ac:	68fb      	ldr	r3, [r7, #12]
 80074ae:	f023 7380 	bic.w	r3, r3, #16777216	@ 0x1000000
 80074b2:	f423 43e0 	bic.w	r3, r3, #28672	@ 0x7000
 80074b6:	60fb      	str	r3, [r7, #12]
  tmpccmrx &= ~TIM_CCMR1_CC2S;
 80074b8:	68fb      	ldr	r3, [r7, #12]
 80074ba:	f423 7340 	bic.w	r3, r3, #768	@ 0x300
 80074be:	60fb      	str	r3, [r7, #12]

  /* Select the Output Compare Mode */
  tmpccmrx |= (OC_Config->OCMode << 8U);
 80074c0:	683b      	ldr	r3, [r7, #0]
 80074c2:	681b      	ldr	r3, [r3, #0]
 80074c4:	021b      	lsls	r3, r3, #8
 80074c6:	68fa      	ldr	r2, [r7, #12]
 80074c8:	4313      	orrs	r3, r2
 80074ca:	60fb      	str	r3, [r7, #12]

  /* Reset the Output Polarity level */
  tmpccer &= ~TIM_CCER_CC2P;
 80074cc:	697b      	ldr	r3, [r7, #20]
 80074ce:	f023 0320 	bic.w	r3, r3, #32
 80074d2:	617b      	str	r3, [r7, #20]
  /* Set the Output Compare Polarity */
  tmpccer |= (OC_Config->OCPolarity << 4U);
 80074d4:	683b      	ldr	r3, [r7, #0]
 80074d6:	689b      	ldr	r3, [r3, #8]
 80074d8:	011b      	lsls	r3, r3, #4
 80074da:	697a      	ldr	r2, [r7, #20]
 80074dc:	4313      	orrs	r3, r2
 80074de:	617b      	str	r3, [r7, #20]

  if (IS_TIM_CCXN_INSTANCE(TIMx, TIM_CHANNEL_2))
 80074e0:	687b      	ldr	r3, [r7, #4]
 80074e2:	4a2c      	ldr	r2, [pc, #176]	@ (8007594 <TIM_OC2_SetConfig+0x110>)
 80074e4:	4293      	cmp	r3, r2
 80074e6:	d007      	beq.n	80074f8 <TIM_OC2_SetConfig+0x74>
 80074e8:	687b      	ldr	r3, [r7, #4]
 80074ea:	4a2b      	ldr	r2, [pc, #172]	@ (8007598 <TIM_OC2_SetConfig+0x114>)
 80074ec:	4293      	cmp	r3, r2
 80074ee:	d003      	beq.n	80074f8 <TIM_OC2_SetConfig+0x74>
 80074f0:	687b      	ldr	r3, [r7, #4]
 80074f2:	4a2a      	ldr	r2, [pc, #168]	@ (800759c <TIM_OC2_SetConfig+0x118>)
 80074f4:	4293      	cmp	r3, r2
 80074f6:	d10d      	bne.n	8007514 <TIM_OC2_SetConfig+0x90>
  {
    assert_param(IS_TIM_OCN_POLARITY(OC_Config->OCNPolarity));

    /* Reset the Output N Polarity level */
    tmpccer &= ~TIM_CCER_CC2NP;
 80074f8:	697b      	ldr	r3, [r7, #20]
 80074fa:	f023 0380 	bic.w	r3, r3, #128	@ 0x80
 80074fe:	617b      	str	r3, [r7, #20]
    /* Set the Output N Polarity */
    tmpccer |= (OC_Config->OCNPolarity << 4U);
 8007500:	683b      	ldr	r3, [r7, #0]
 8007502:	68db      	ldr	r3, [r3, #12]
 8007504:	011b      	lsls	r3, r3, #4
 8007506:	697a      	ldr	r2, [r7, #20]
 8007508:	4313      	orrs	r3, r2
 800750a:	617b      	str	r3, [r7, #20]
    /* Reset the Output N State */
    tmpccer &= ~TIM_CCER_CC2NE;
 800750c:	697b      	ldr	r3, [r7, #20]
 800750e:	f023 0340 	bic.w	r3, r3, #64	@ 0x40
 8007512:	617b      	str	r3, [r7, #20]
  }

  if (IS_TIM_BREAK_INSTANCE(TIMx))
 8007514:	687b      	ldr	r3, [r7, #4]
 8007516:	4a1f      	ldr	r2, [pc, #124]	@ (8007594 <TIM_OC2_SetConfig+0x110>)
 8007518:	4293      	cmp	r3, r2
 800751a:	d013      	beq.n	8007544 <TIM_OC2_SetConfig+0xc0>
 800751c:	687b      	ldr	r3, [r7, #4]
 800751e:	4a1e      	ldr	r2, [pc, #120]	@ (8007598 <TIM_OC2_SetConfig+0x114>)
 8007520:	4293      	cmp	r3, r2
 8007522:	d00f      	beq.n	8007544 <TIM_OC2_SetConfig+0xc0>
 8007524:	687b      	ldr	r3, [r7, #4]
 8007526:	4a1e      	ldr	r2, [pc, #120]	@ (80075a0 <TIM_OC2_SetConfig+0x11c>)
 8007528:	4293      	cmp	r3, r2
 800752a:	d00b      	beq.n	8007544 <TIM_OC2_SetConfig+0xc0>
 800752c:	687b      	ldr	r3, [r7, #4]
 800752e:	4a1d      	ldr	r2, [pc, #116]	@ (80075a4 <TIM_OC2_SetConfig+0x120>)
 8007530:	4293      	cmp	r3, r2
 8007532:	d007      	beq.n	8007544 <TIM_OC2_SetConfig+0xc0>
 8007534:	687b      	ldr	r3, [r7, #4]
 8007536:	4a1c      	ldr	r2, [pc, #112]	@ (80075a8 <TIM_OC2_SetConfig+0x124>)
 8007538:	4293      	cmp	r3, r2
 800753a:	d003      	beq.n	8007544 <TIM_OC2_SetConfig+0xc0>
 800753c:	687b      	ldr	r3, [r7, #4]
 800753e:	4a17      	ldr	r2, [pc, #92]	@ (800759c <TIM_OC2_SetConfig+0x118>)
 8007540:	4293      	cmp	r3, r2
 8007542:	d113      	bne.n	800756c <TIM_OC2_SetConfig+0xe8>
    /* Check parameters */
    assert_param(IS_TIM_OCNIDLE_STATE(OC_Config->OCNIdleState));
    assert_param(IS_TIM_OCIDLE_STATE(OC_Config->OCIdleState));

    /* Reset the Output Compare and Output Compare N IDLE State */
    tmpcr2 &= ~TIM_CR2_OIS2;
 8007544:	693b      	ldr	r3, [r7, #16]
 8007546:	f423 6380 	bic.w	r3, r3, #1024	@ 0x400
 800754a:	613b      	str	r3, [r7, #16]
    tmpcr2 &= ~TIM_CR2_OIS2N;
 800754c:	693b      	ldr	r3, [r7, #16]
 800754e:	f423 6300 	bic.w	r3, r3, #2048	@ 0x800
 8007552:	613b      	str	r3, [r7, #16]
    /* Set the Output Idle state */
    tmpcr2 |= (OC_Config->OCIdleState << 2U);
 8007554:	683b      	ldr	r3, [r7, #0]
 8007556:	695b      	ldr	r3, [r3, #20]
 8007558:	009b      	lsls	r3, r3, #2
 800755a:	693a      	ldr	r2, [r7, #16]
 800755c:	4313      	orrs	r3, r2
 800755e:	613b      	str	r3, [r7, #16]
    /* Set the Output N Idle state */
    tmpcr2 |= (OC_Config->OCNIdleState << 2U);
 8007560:	683b      	ldr	r3, [r7, #0]
 8007562:	699b      	ldr	r3, [r3, #24]
 8007564:	009b      	lsls	r3, r3, #2
 8007566:	693a      	ldr	r2, [r7, #16]
 8007568:	4313      	orrs	r3, r2
 800756a:	613b      	str	r3, [r7, #16]
  }

  /* Write to TIMx CR2 */
  TIMx->CR2 = tmpcr2;
 800756c:	687b      	ldr	r3, [r7, #4]
 800756e:	693a      	ldr	r2, [r7, #16]
 8007570:	605a      	str	r2, [r3, #4]

  /* Write to TIMx CCMR1 */
  TIMx->CCMR1 = tmpccmrx;
 8007572:	687b      	ldr	r3, [r7, #4]
 8007574:	68fa      	ldr	r2, [r7, #12]
 8007576:	619a      	str	r2, [r3, #24]

  /* Set the Capture Compare Register value */
  TIMx->CCR2 = OC_Config->Pulse;
 8007578:	683b      	ldr	r3, [r7, #0]
 800757a:	685a      	ldr	r2, [r3, #4]
 800757c:	687b      	ldr	r3, [r7, #4]
 800757e:	639a      	str	r2, [r3, #56]	@ 0x38

  /* Write to TIMx CCER */
  TIMx->CCER = tmpccer;
 8007580:	687b      	ldr	r3, [r7, #4]
 8007582:	697a      	ldr	r2, [r7, #20]
 8007584:	621a      	str	r2, [r3, #32]
}
 8007586:	bf00      	nop
 8007588:	371c      	adds	r7, #28
 800758a:	46bd      	mov	sp, r7
 800758c:	f85d 7b04 	ldr.w	r7, [sp], #4
 8007590:	4770      	bx	lr
 8007592:	bf00      	nop
 8007594:	40012c00 	.word	0x40012c00
 8007598:	40013400 	.word	0x40013400
 800759c:	40015000 	.word	0x40015000
 80075a0:	40014000 	.word	0x40014000
 80075a4:	40014400 	.word	0x40014400
 80075a8:	40014800 	.word	0x40014800

080075ac <TIM_OC3_SetConfig>:
  * @param  TIMx to select the TIM peripheral
  * @param  OC_Config The output configuration structure
  * @retval None
  */
static void TIM_OC3_SetConfig(TIM_TypeDef *TIMx, const TIM_OC_InitTypeDef *OC_Config)
{
 80075ac:	b480      	push	{r7}
 80075ae:	b087      	sub	sp, #28
 80075b0:	af00      	add	r7, sp, #0
 80075b2:	6078      	str	r0, [r7, #4]
 80075b4:	6039      	str	r1, [r7, #0]
  uint32_t tmpccmrx;
  uint32_t tmpccer;
  uint32_t tmpcr2;

  /* Get the TIMx CCER register value */
  tmpccer = TIMx->CCER;
 80075b6:	687b      	ldr	r3, [r7, #4]
 80075b8:	6a1b      	ldr	r3, [r3, #32]
 80075ba:	617b      	str	r3, [r7, #20]

  /* Disable the Channel 3: Reset the CC2E Bit */
  TIMx->CCER &= ~TIM_CCER_CC3E;
 80075bc:	687b      	ldr	r3, [r7, #4]
 80075be:	6a1b      	ldr	r3, [r3, #32]
 80075c0:	f423 7280 	bic.w	r2, r3, #256	@ 0x100
 80075c4:	687b      	ldr	r3, [r7, #4]
 80075c6:	621a      	str	r2, [r3, #32]

  /* Get the TIMx CR2 register value */
  tmpcr2 =  TIMx->CR2;
 80075c8:	687b      	ldr	r3, [r7, #4]
 80075ca:	685b      	ldr	r3, [r3, #4]
 80075cc:	613b      	str	r3, [r7, #16]

  /* Get the TIMx CCMR2 register value */
  tmpccmrx = TIMx->CCMR2;
 80075ce:	687b      	ldr	r3, [r7, #4]
 80075d0:	69db      	ldr	r3, [r3, #28]
 80075d2:	60fb      	str	r3, [r7, #12]

  /* Reset the Output Compare mode and Capture/Compare selection Bits */
  tmpccmrx &= ~TIM_CCMR2_OC3M;
 80075d4:	68fb      	ldr	r3, [r7, #12]
 80075d6:	f423 3380 	bic.w	r3, r3, #65536	@ 0x10000
 80075da:	f023 0370 	bic.w	r3, r3, #112	@ 0x70
 80075de:	60fb      	str	r3, [r7, #12]
  tmpccmrx &= ~TIM_CCMR2_CC3S;
 80075e0:	68fb      	ldr	r3, [r7, #12]
 80075e2:	f023 0303 	bic.w	r3, r3, #3
 80075e6:	60fb      	str	r3, [r7, #12]
  /* Select the Output Compare Mode */
  tmpccmrx |= OC_Config->OCMode;
 80075e8:	683b      	ldr	r3, [r7, #0]
 80075ea:	681b      	ldr	r3, [r3, #0]
 80075ec:	68fa      	ldr	r2, [r7, #12]
 80075ee:	4313      	orrs	r3, r2
 80075f0:	60fb      	str	r3, [r7, #12]

  /* Reset the Output Polarity level */
  tmpccer &= ~TIM_CCER_CC3P;
 80075f2:	697b      	ldr	r3, [r7, #20]
 80075f4:	f423 7300 	bic.w	r3, r3, #512	@ 0x200
 80075f8:	617b      	str	r3, [r7, #20]
  /* Set the Output Compare Polarity */
  tmpccer |= (OC_Config->OCPolarity << 8U);
 80075fa:	683b      	ldr	r3, [r7, #0]
 80075fc:	689b      	ldr	r3, [r3, #8]
 80075fe:	021b      	lsls	r3, r3, #8
 8007600:	697a      	ldr	r2, [r7, #20]
 8007602:	4313      	orrs	r3, r2
 8007604:	617b      	str	r3, [r7, #20]

  if (IS_TIM_CCXN_INSTANCE(TIMx, TIM_CHANNEL_3))
 8007606:	687b      	ldr	r3, [r7, #4]
 8007608:	4a2b      	ldr	r2, [pc, #172]	@ (80076b8 <TIM_OC3_SetConfig+0x10c>)
 800760a:	4293      	cmp	r3, r2
 800760c:	d007      	beq.n	800761e <TIM_OC3_SetConfig+0x72>
 800760e:	687b      	ldr	r3, [r7, #4]
 8007610:	4a2a      	ldr	r2, [pc, #168]	@ (80076bc <TIM_OC3_SetConfig+0x110>)
 8007612:	4293      	cmp	r3, r2
 8007614:	d003      	beq.n	800761e <TIM_OC3_SetConfig+0x72>
 8007616:	687b      	ldr	r3, [r7, #4]
 8007618:	4a29      	ldr	r2, [pc, #164]	@ (80076c0 <TIM_OC3_SetConfig+0x114>)
 800761a:	4293      	cmp	r3, r2
 800761c:	d10d      	bne.n	800763a <TIM_OC3_SetConfig+0x8e>
  {
    assert_param(IS_TIM_OCN_POLARITY(OC_Config->OCNPolarity));

    /* Reset the Output N Polarity level */
    tmpccer &= ~TIM_CCER_CC3NP;
 800761e:	697b      	ldr	r3, [r7, #20]
 8007620:	f423 6300 	bic.w	r3, r3, #2048	@ 0x800
 8007624:	617b      	str	r3, [r7, #20]
    /* Set the Output N Polarity */
    tmpccer |= (OC_Config->OCNPolarity << 8U);
 8007626:	683b      	ldr	r3, [r7, #0]
 8007628:	68db      	ldr	r3, [r3, #12]
 800762a:	021b      	lsls	r3, r3, #8
 800762c:	697a      	ldr	r2, [r7, #20]
 800762e:	4313      	orrs	r3, r2
 8007630:	617b      	str	r3, [r7, #20]
    /* Reset the Output N State */
    tmpccer &= ~TIM_CCER_CC3NE;
 8007632:	697b      	ldr	r3, [r7, #20]
 8007634:	f423 6380 	bic.w	r3, r3, #1024	@ 0x400
 8007638:	617b      	str	r3, [r7, #20]
  }

  if (IS_TIM_BREAK_INSTANCE(TIMx))
 800763a:	687b      	ldr	r3, [r7, #4]
 800763c:	4a1e      	ldr	r2, [pc, #120]	@ (80076b8 <TIM_OC3_SetConfig+0x10c>)
 800763e:	4293      	cmp	r3, r2
 8007640:	d013      	beq.n	800766a <TIM_OC3_SetConfig+0xbe>
 8007642:	687b      	ldr	r3, [r7, #4]
 8007644:	4a1d      	ldr	r2, [pc, #116]	@ (80076bc <TIM_OC3_SetConfig+0x110>)
 8007646:	4293      	cmp	r3, r2
 8007648:	d00f      	beq.n	800766a <TIM_OC3_SetConfig+0xbe>
 800764a:	687b      	ldr	r3, [r7, #4]
 800764c:	4a1d      	ldr	r2, [pc, #116]	@ (80076c4 <TIM_OC3_SetConfig+0x118>)
 800764e:	4293      	cmp	r3, r2
 8007650:	d00b      	beq.n	800766a <TIM_OC3_SetConfig+0xbe>
 8007652:	687b      	ldr	r3, [r7, #4]
 8007654:	4a1c      	ldr	r2, [pc, #112]	@ (80076c8 <TIM_OC3_SetConfig+0x11c>)
 8007656:	4293      	cmp	r3, r2
 8007658:	d007      	beq.n	800766a <TIM_OC3_SetConfig+0xbe>
 800765a:	687b      	ldr	r3, [r7, #4]
 800765c:	4a1b      	ldr	r2, [pc, #108]	@ (80076cc <TIM_OC3_SetConfig+0x120>)
 800765e:	4293      	cmp	r3, r2
 8007660:	d003      	beq.n	800766a <TIM_OC3_SetConfig+0xbe>
 8007662:	687b      	ldr	r3, [r7, #4]
 8007664:	4a16      	ldr	r2, [pc, #88]	@ (80076c0 <TIM_OC3_SetConfig+0x114>)
 8007666:	4293      	cmp	r3, r2
 8007668:	d113      	bne.n	8007692 <TIM_OC3_SetConfig+0xe6>
    /* Check parameters */
    assert_param(IS_TIM_OCNIDLE_STATE(OC_Config->OCNIdleState));
    assert_param(IS_TIM_OCIDLE_STATE(OC_Config->OCIdleState));

    /* Reset the Output Compare and Output Compare N IDLE State */
    tmpcr2 &= ~TIM_CR2_OIS3;
 800766a:	693b      	ldr	r3, [r7, #16]
 800766c:	f423 5380 	bic.w	r3, r3, #4096	@ 0x1000
 8007670:	613b      	str	r3, [r7, #16]
    tmpcr2 &= ~TIM_CR2_OIS3N;
 8007672:	693b      	ldr	r3, [r7, #16]
 8007674:	f423 5300 	bic.w	r3, r3, #8192	@ 0x2000
 8007678:	613b      	str	r3, [r7, #16]
    /* Set the Output Idle state */
    tmpcr2 |= (OC_Config->OCIdleState << 4U);
 800767a:	683b      	ldr	r3, [r7, #0]
 800767c:	695b      	ldr	r3, [r3, #20]
 800767e:	011b      	lsls	r3, r3, #4
 8007680:	693a      	ldr	r2, [r7, #16]
 8007682:	4313      	orrs	r3, r2
 8007684:	613b      	str	r3, [r7, #16]
    /* Set the Output N Idle state */
    tmpcr2 |= (OC_Config->OCNIdleState << 4U);
 8007686:	683b      	ldr	r3, [r7, #0]
 8007688:	699b      	ldr	r3, [r3, #24]
 800768a:	011b      	lsls	r3, r3, #4
 800768c:	693a      	ldr	r2, [r7, #16]
 800768e:	4313      	orrs	r3, r2
 8007690:	613b      	str	r3, [r7, #16]
  }

  /* Write to TIMx CR2 */
  TIMx->CR2 = tmpcr2;
 8007692:	687b      	ldr	r3, [r7, #4]
 8007694:	693a      	ldr	r2, [r7, #16]
 8007696:	605a      	str	r2, [r3, #4]

  /* Write to TIMx CCMR2 */
  TIMx->CCMR2 = tmpccmrx;
 8007698:	687b      	ldr	r3, [r7, #4]
 800769a:	68fa      	ldr	r2, [r7, #12]
 800769c:	61da      	str	r2, [r3, #28]

  /* Set the Capture Compare Register value */
  TIMx->CCR3 = OC_Config->Pulse;
 800769e:	683b      	ldr	r3, [r7, #0]
 80076a0:	685a      	ldr	r2, [r3, #4]
 80076a2:	687b      	ldr	r3, [r7, #4]
 80076a4:	63da      	str	r2, [r3, #60]	@ 0x3c

  /* Write to TIMx CCER */
  TIMx->CCER = tmpccer;
 80076a6:	687b      	ldr	r3, [r7, #4]
 80076a8:	697a      	ldr	r2, [r7, #20]
 80076aa:	621a      	str	r2, [r3, #32]
}
 80076ac:	bf00      	nop
 80076ae:	371c      	adds	r7, #28
 80076b0:	46bd      	mov	sp, r7
 80076b2:	f85d 7b04 	ldr.w	r7, [sp], #4
 80076b6:	4770      	bx	lr
 80076b8:	40012c00 	.word	0x40012c00
 80076bc:	40013400 	.word	0x40013400
 80076c0:	40015000 	.word	0x40015000
 80076c4:	40014000 	.word	0x40014000
 80076c8:	40014400 	.word	0x40014400
 80076cc:	40014800 	.word	0x40014800

080076d0 <TIM_OC4_SetConfig>:
  * @param  TIMx to select the TIM peripheral
  * @param  OC_Config The output configuration structure
  * @retval None
  */
static void TIM_OC4_SetConfig(TIM_TypeDef *TIMx, const TIM_OC_InitTypeDef *OC_Config)
{
 80076d0:	b480      	push	{r7}
 80076d2:	b087      	sub	sp, #28
 80076d4:	af00      	add	r7, sp, #0
 80076d6:	6078      	str	r0, [r7, #4]
 80076d8:	6039      	str	r1, [r7, #0]
  uint32_t tmpccmrx;
  uint32_t tmpccer;
  uint32_t tmpcr2;

  /* Get the TIMx CCER register value */
  tmpccer = TIMx->CCER;
 80076da:	687b      	ldr	r3, [r7, #4]
 80076dc:	6a1b      	ldr	r3, [r3, #32]
 80076de:	617b      	str	r3, [r7, #20]

  /* Disable the Channel 4: Reset the CC4E Bit */
  TIMx->CCER &= ~TIM_CCER_CC4E;
 80076e0:	687b      	ldr	r3, [r7, #4]
 80076e2:	6a1b      	ldr	r3, [r3, #32]
 80076e4:	f423 5280 	bic.w	r2, r3, #4096	@ 0x1000
 80076e8:	687b      	ldr	r3, [r7, #4]
 80076ea:	621a      	str	r2, [r3, #32]

  /* Get the TIMx CR2 register value */
  tmpcr2 =  TIMx->CR2;
 80076ec:	687b      	ldr	r3, [r7, #4]
 80076ee:	685b      	ldr	r3, [r3, #4]
 80076f0:	613b      	str	r3, [r7, #16]

  /* Get the TIMx CCMR2 register value */
  tmpccmrx = TIMx->CCMR2;
 80076f2:	687b      	ldr	r3, [r7, #4]
 80076f4:	69db      	ldr	r3, [r3, #28]
 80076f6:	60fb      	str	r3, [r7, #12]

  /* Reset the Output Compare mode and Capture/Compare selection Bits */
  tmpccmrx &= ~TIM_CCMR2_OC4M;
 80076f8:	68fb      	ldr	r3, [r7, #12]
 80076fa:	f023 7380 	bic.w	r3, r3, #16777216	@ 0x1000000
 80076fe:	f423 43e0 	bic.w	r3, r3, #28672	@ 0x7000
 8007702:	60fb      	str	r3, [r7, #12]
  tmpccmrx &= ~TIM_CCMR2_CC4S;
 8007704:	68fb      	ldr	r3, [r7, #12]
 8007706:	f423 7340 	bic.w	r3, r3, #768	@ 0x300
 800770a:	60fb      	str	r3, [r7, #12]

  /* Select the Output Compare Mode */
  tmpccmrx |= (OC_Config->OCMode << 8U);
 800770c:	683b      	ldr	r3, [r7, #0]
 800770e:	681b      	ldr	r3, [r3, #0]
 8007710:	021b      	lsls	r3, r3, #8
 8007712:	68fa      	ldr	r2, [r7, #12]
 8007714:	4313      	orrs	r3, r2
 8007716:	60fb      	str	r3, [r7, #12]

  /* Reset the Output Polarity level */
  tmpccer &= ~TIM_CCER_CC4P;
 8007718:	697b      	ldr	r3, [r7, #20]
 800771a:	f423 5300 	bic.w	r3, r3, #8192	@ 0x2000
 800771e:	617b      	str	r3, [r7, #20]
  /* Set the Output Compare Polarity */
  tmpccer |= (OC_Config->OCPolarity << 12U);
 8007720:	683b      	ldr	r3, [r7, #0]
 8007722:	689b      	ldr	r3, [r3, #8]
 8007724:	031b      	lsls	r3, r3, #12
 8007726:	697a      	ldr	r2, [r7, #20]
 8007728:	4313      	orrs	r3, r2
 800772a:	617b      	str	r3, [r7, #20]

  if (IS_TIM_CCXN_INSTANCE(TIMx, TIM_CHANNEL_4))
 800772c:	687b      	ldr	r3, [r7, #4]
 800772e:	4a2c      	ldr	r2, [pc, #176]	@ (80077e0 <TIM_OC4_SetConfig+0x110>)
 8007730:	4293      	cmp	r3, r2
 8007732:	d007      	beq.n	8007744 <TIM_OC4_SetConfig+0x74>
 8007734:	687b      	ldr	r3, [r7, #4]
 8007736:	4a2b      	ldr	r2, [pc, #172]	@ (80077e4 <TIM_OC4_SetConfig+0x114>)
 8007738:	4293      	cmp	r3, r2
 800773a:	d003      	beq.n	8007744 <TIM_OC4_SetConfig+0x74>
 800773c:	687b      	ldr	r3, [r7, #4]
 800773e:	4a2a      	ldr	r2, [pc, #168]	@ (80077e8 <TIM_OC4_SetConfig+0x118>)
 8007740:	4293      	cmp	r3, r2
 8007742:	d10d      	bne.n	8007760 <TIM_OC4_SetConfig+0x90>
  {
    assert_param(IS_TIM_OCN_POLARITY(OC_Config->OCNPolarity));

    /* Reset the Output N Polarity level */
    tmpccer &= ~TIM_CCER_CC4NP;
 8007744:	697b      	ldr	r3, [r7, #20]
 8007746:	f423 4300 	bic.w	r3, r3, #32768	@ 0x8000
 800774a:	617b      	str	r3, [r7, #20]
    /* Set the Output N Polarity */
    tmpccer |= (OC_Config->OCNPolarity << 12U);
 800774c:	683b      	ldr	r3, [r7, #0]
 800774e:	68db      	ldr	r3, [r3, #12]
 8007750:	031b      	lsls	r3, r3, #12
 8007752:	697a      	ldr	r2, [r7, #20]
 8007754:	4313      	orrs	r3, r2
 8007756:	617b      	str	r3, [r7, #20]
    /* Reset the Output N State */
    tmpccer &= ~TIM_CCER_CC4NE;
 8007758:	697b      	ldr	r3, [r7, #20]
 800775a:	f423 4380 	bic.w	r3, r3, #16384	@ 0x4000
 800775e:	617b      	str	r3, [r7, #20]
  }

  if (IS_TIM_BREAK_INSTANCE(TIMx))
 8007760:	687b      	ldr	r3, [r7, #4]
 8007762:	4a1f      	ldr	r2, [pc, #124]	@ (80077e0 <TIM_OC4_SetConfig+0x110>)
 8007764:	4293      	cmp	r3, r2
 8007766:	d013      	beq.n	8007790 <TIM_OC4_SetConfig+0xc0>
 8007768:	687b      	ldr	r3, [r7, #4]
 800776a:	4a1e      	ldr	r2, [pc, #120]	@ (80077e4 <TIM_OC4_SetConfig+0x114>)
 800776c:	4293      	cmp	r3, r2
 800776e:	d00f      	beq.n	8007790 <TIM_OC4_SetConfig+0xc0>
 8007770:	687b      	ldr	r3, [r7, #4]
 8007772:	4a1e      	ldr	r2, [pc, #120]	@ (80077ec <TIM_OC4_SetConfig+0x11c>)
 8007774:	4293      	cmp	r3, r2
 8007776:	d00b      	beq.n	8007790 <TIM_OC4_SetConfig+0xc0>
 8007778:	687b      	ldr	r3, [r7, #4]
 800777a:	4a1d      	ldr	r2, [pc, #116]	@ (80077f0 <TIM_OC4_SetConfig+0x120>)
 800777c:	4293      	cmp	r3, r2
 800777e:	d007      	beq.n	8007790 <TIM_OC4_SetConfig+0xc0>
 8007780:	687b      	ldr	r3, [r7, #4]
 8007782:	4a1c      	ldr	r2, [pc, #112]	@ (80077f4 <TIM_OC4_SetConfig+0x124>)
 8007784:	4293      	cmp	r3, r2
 8007786:	d003      	beq.n	8007790 <TIM_OC4_SetConfig+0xc0>
 8007788:	687b      	ldr	r3, [r7, #4]
 800778a:	4a17      	ldr	r2, [pc, #92]	@ (80077e8 <TIM_OC4_SetConfig+0x118>)
 800778c:	4293      	cmp	r3, r2
 800778e:	d113      	bne.n	80077b8 <TIM_OC4_SetConfig+0xe8>
    /* Check parameters */
    assert_param(IS_TIM_OCNIDLE_STATE(OC_Config->OCNIdleState));
    assert_param(IS_TIM_OCIDLE_STATE(OC_Config->OCIdleState));

    /* Reset the Output Compare IDLE State */
    tmpcr2 &= ~TIM_CR2_OIS4;
 8007790:	693b      	ldr	r3, [r7, #16]
 8007792:	f423 4380 	bic.w	r3, r3, #16384	@ 0x4000
 8007796:	613b      	str	r3, [r7, #16]
    /* Reset the Output Compare N IDLE State */
    tmpcr2 &= ~TIM_CR2_OIS4N;
 8007798:	693b      	ldr	r3, [r7, #16]
 800779a:	f423 4300 	bic.w	r3, r3, #32768	@ 0x8000
 800779e:	613b      	str	r3, [r7, #16]

    /* Set the Output Idle state */
    tmpcr2 |= (OC_Config->OCIdleState << 6U);
 80077a0:	683b      	ldr	r3, [r7, #0]
 80077a2:	695b      	ldr	r3, [r3, #20]
 80077a4:	019b      	lsls	r3, r3, #6
 80077a6:	693a      	ldr	r2, [r7, #16]
 80077a8:	4313      	orrs	r3, r2
 80077aa:	613b      	str	r3, [r7, #16]
    /* Set the Output N Idle state */
    tmpcr2 |= (OC_Config->OCNIdleState << 6U);
 80077ac:	683b      	ldr	r3, [r7, #0]
 80077ae:	699b      	ldr	r3, [r3, #24]
 80077b0:	019b      	lsls	r3, r3, #6
 80077b2:	693a      	ldr	r2, [r7, #16]
 80077b4:	4313      	orrs	r3, r2
 80077b6:	613b      	str	r3, [r7, #16]
  }

  /* Write to TIMx CR2 */
  TIMx->CR2 = tmpcr2;
 80077b8:	687b      	ldr	r3, [r7, #4]
 80077ba:	693a      	ldr	r2, [r7, #16]
 80077bc:	605a      	str	r2, [r3, #4]

  /* Write to TIMx CCMR2 */
  TIMx->CCMR2 = tmpccmrx;
 80077be:	687b      	ldr	r3, [r7, #4]
 80077c0:	68fa      	ldr	r2, [r7, #12]
 80077c2:	61da      	str	r2, [r3, #28]

  /* Set the Capture Compare Register value */
  TIMx->CCR4 = OC_Config->Pulse;
 80077c4:	683b      	ldr	r3, [r7, #0]
 80077c6:	685a      	ldr	r2, [r3, #4]
 80077c8:	687b      	ldr	r3, [r7, #4]
 80077ca:	641a      	str	r2, [r3, #64]	@ 0x40

  /* Write to TIMx CCER */
  TIMx->CCER = tmpccer;
 80077cc:	687b      	ldr	r3, [r7, #4]
 80077ce:	697a      	ldr	r2, [r7, #20]
 80077d0:	621a      	str	r2, [r3, #32]
}
 80077d2:	bf00      	nop
 80077d4:	371c      	adds	r7, #28
 80077d6:	46bd      	mov	sp, r7
 80077d8:	f85d 7b04 	ldr.w	r7, [sp], #4
 80077dc:	4770      	bx	lr
 80077de:	bf00      	nop
 80077e0:	40012c00 	.word	0x40012c00
 80077e4:	40013400 	.word	0x40013400
 80077e8:	40015000 	.word	0x40015000
 80077ec:	40014000 	.word	0x40014000
 80077f0:	40014400 	.word	0x40014400
 80077f4:	40014800 	.word	0x40014800

080077f8 <TIM_OC5_SetConfig>:
  * @param  OC_Config The output configuration structure
  * @retval None
  */
static void TIM_OC5_SetConfig(TIM_TypeDef *TIMx,
                              const TIM_OC_InitTypeDef *OC_Config)
{
 80077f8:	b480      	push	{r7}
 80077fa:	b087      	sub	sp, #28
 80077fc:	af00      	add	r7, sp, #0
 80077fe:	6078      	str	r0, [r7, #4]
 8007800:	6039      	str	r1, [r7, #0]
  uint32_t tmpccmrx;
  uint32_t tmpccer;
  uint32_t tmpcr2;

  /* Get the TIMx CCER register value */
  tmpccer = TIMx->CCER;
 8007802:	687b      	ldr	r3, [r7, #4]
 8007804:	6a1b      	ldr	r3, [r3, #32]
 8007806:	613b      	str	r3, [r7, #16]

  /* Disable the output: Reset the CCxE Bit */
  TIMx->CCER &= ~TIM_CCER_CC5E;
 8007808:	687b      	ldr	r3, [r7, #4]
 800780a:	6a1b      	ldr	r3, [r3, #32]
 800780c:	f423 3280 	bic.w	r2, r3, #65536	@ 0x10000
 8007810:	687b      	ldr	r3, [r7, #4]
 8007812:	621a      	str	r2, [r3, #32]

  /* Get the TIMx CR2 register value */
  tmpcr2 =  TIMx->CR2;
 8007814:	687b      	ldr	r3, [r7, #4]
 8007816:	685b      	ldr	r3, [r3, #4]
 8007818:	617b      	str	r3, [r7, #20]
  /* Get the TIMx CCMR1 register value */
  tmpccmrx = TIMx->CCMR3;
 800781a:	687b      	ldr	r3, [r7, #4]
 800781c:	6d1b      	ldr	r3, [r3, #80]	@ 0x50
 800781e:	60fb      	str	r3, [r7, #12]

  /* Reset the Output Compare Mode Bits */
  tmpccmrx &= ~(TIM_CCMR3_OC5M);
 8007820:	68fb      	ldr	r3, [r7, #12]
 8007822:	f423 3380 	bic.w	r3, r3, #65536	@ 0x10000
 8007826:	f023 0370 	bic.w	r3, r3, #112	@ 0x70
 800782a:	60fb      	str	r3, [r7, #12]
  /* Select the Output Compare Mode */
  tmpccmrx |= OC_Config->OCMode;
 800782c:	683b      	ldr	r3, [r7, #0]
 800782e:	681b      	ldr	r3, [r3, #0]
 8007830:	68fa      	ldr	r2, [r7, #12]
 8007832:	4313      	orrs	r3, r2
 8007834:	60fb      	str	r3, [r7, #12]

  /* Reset the Output Polarity level */
  tmpccer &= ~TIM_CCER_CC5P;
 8007836:	693b      	ldr	r3, [r7, #16]
 8007838:	f423 3300 	bic.w	r3, r3, #131072	@ 0x20000
 800783c:	613b      	str	r3, [r7, #16]
  /* Set the Output Compare Polarity */
  tmpccer |= (OC_Config->OCPolarity << 16U);
 800783e:	683b      	ldr	r3, [r7, #0]
 8007840:	689b      	ldr	r3, [r3, #8]
 8007842:	041b      	lsls	r3, r3, #16
 8007844:	693a      	ldr	r2, [r7, #16]
 8007846:	4313      	orrs	r3, r2
 8007848:	613b      	str	r3, [r7, #16]

  if (IS_TIM_BREAK_INSTANCE(TIMx))
 800784a:	687b      	ldr	r3, [r7, #4]
 800784c:	4a19      	ldr	r2, [pc, #100]	@ (80078b4 <TIM_OC5_SetConfig+0xbc>)
 800784e:	4293      	cmp	r3, r2
 8007850:	d013      	beq.n	800787a <TIM_OC5_SetConfig+0x82>
 8007852:	687b      	ldr	r3, [r7, #4]
 8007854:	4a18      	ldr	r2, [pc, #96]	@ (80078b8 <TIM_OC5_SetConfig+0xc0>)
 8007856:	4293      	cmp	r3, r2
 8007858:	d00f      	beq.n	800787a <TIM_OC5_SetConfig+0x82>
 800785a:	687b      	ldr	r3, [r7, #4]
 800785c:	4a17      	ldr	r2, [pc, #92]	@ (80078bc <TIM_OC5_SetConfig+0xc4>)
 800785e:	4293      	cmp	r3, r2
 8007860:	d00b      	beq.n	800787a <TIM_OC5_SetConfig+0x82>
 8007862:	687b      	ldr	r3, [r7, #4]
 8007864:	4a16      	ldr	r2, [pc, #88]	@ (80078c0 <TIM_OC5_SetConfig+0xc8>)
 8007866:	4293      	cmp	r3, r2
 8007868:	d007      	beq.n	800787a <TIM_OC5_SetConfig+0x82>
 800786a:	687b      	ldr	r3, [r7, #4]
 800786c:	4a15      	ldr	r2, [pc, #84]	@ (80078c4 <TIM_OC5_SetConfig+0xcc>)
 800786e:	4293      	cmp	r3, r2
 8007870:	d003      	beq.n	800787a <TIM_OC5_SetConfig+0x82>
 8007872:	687b      	ldr	r3, [r7, #4]
 8007874:	4a14      	ldr	r2, [pc, #80]	@ (80078c8 <TIM_OC5_SetConfig+0xd0>)
 8007876:	4293      	cmp	r3, r2
 8007878:	d109      	bne.n	800788e <TIM_OC5_SetConfig+0x96>
  {
    /* Reset the Output Compare IDLE State */
    tmpcr2 &= ~TIM_CR2_OIS5;
 800787a:	697b      	ldr	r3, [r7, #20]
 800787c:	f423 3380 	bic.w	r3, r3, #65536	@ 0x10000
 8007880:	617b      	str	r3, [r7, #20]
    /* Set the Output Idle state */
    tmpcr2 |= (OC_Config->OCIdleState << 8U);
 8007882:	683b      	ldr	r3, [r7, #0]
 8007884:	695b      	ldr	r3, [r3, #20]
 8007886:	021b      	lsls	r3, r3, #8
 8007888:	697a      	ldr	r2, [r7, #20]
 800788a:	4313      	orrs	r3, r2
 800788c:	617b      	str	r3, [r7, #20]
  }
  /* Write to TIMx CR2 */
  TIMx->CR2 = tmpcr2;
 800788e:	687b      	ldr	r3, [r7, #4]
 8007890:	697a      	ldr	r2, [r7, #20]
 8007892:	605a      	str	r2, [r3, #4]

  /* Write to TIMx CCMR3 */
  TIMx->CCMR3 = tmpccmrx;
 8007894:	687b      	ldr	r3, [r7, #4]
 8007896:	68fa      	ldr	r2, [r7, #12]
 8007898:	651a      	str	r2, [r3, #80]	@ 0x50

  /* Set the Capture Compare Register value */
  TIMx->CCR5 = OC_Config->Pulse;
 800789a:	683b      	ldr	r3, [r7, #0]
 800789c:	685a      	ldr	r2, [r3, #4]
 800789e:	687b      	ldr	r3, [r7, #4]
 80078a0:	649a      	str	r2, [r3, #72]	@ 0x48

  /* Write to TIMx CCER */
  TIMx->CCER = tmpccer;
 80078a2:	687b      	ldr	r3, [r7, #4]
 80078a4:	693a      	ldr	r2, [r7, #16]
 80078a6:	621a      	str	r2, [r3, #32]
}
 80078a8:	bf00      	nop
 80078aa:	371c      	adds	r7, #28
 80078ac:	46bd      	mov	sp, r7
 80078ae:	f85d 7b04 	ldr.w	r7, [sp], #4
 80078b2:	4770      	bx	lr
 80078b4:	40012c00 	.word	0x40012c00
 80078b8:	40013400 	.word	0x40013400
 80078bc:	40014000 	.word	0x40014000
 80078c0:	40014400 	.word	0x40014400
 80078c4:	40014800 	.word	0x40014800
 80078c8:	40015000 	.word	0x40015000

080078cc <TIM_OC6_SetConfig>:
  * @param  OC_Config The output configuration structure
  * @retval None
  */
static void TIM_OC6_SetConfig(TIM_TypeDef *TIMx,
                              const TIM_OC_InitTypeDef *OC_Config)
{
 80078cc:	b480      	push	{r7}
 80078ce:	b087      	sub	sp, #28
 80078d0:	af00      	add	r7, sp, #0
 80078d2:	6078      	str	r0, [r7, #4]
 80078d4:	6039      	str	r1, [r7, #0]
  uint32_t tmpccmrx;
  uint32_t tmpccer;
  uint32_t tmpcr2;

  /* Get the TIMx CCER register value */
  tmpccer = TIMx->CCER;
 80078d6:	687b      	ldr	r3, [r7, #4]
 80078d8:	6a1b      	ldr	r3, [r3, #32]
 80078da:	613b      	str	r3, [r7, #16]

  /* Disable the output: Reset the CCxE Bit */
  TIMx->CCER &= ~TIM_CCER_CC6E;
 80078dc:	687b      	ldr	r3, [r7, #4]
 80078de:	6a1b      	ldr	r3, [r3, #32]
 80078e0:	f423 1280 	bic.w	r2, r3, #1048576	@ 0x100000
 80078e4:	687b      	ldr	r3, [r7, #4]
 80078e6:	621a      	str	r2, [r3, #32]

  /* Get the TIMx CR2 register value */
  tmpcr2 =  TIMx->CR2;
 80078e8:	687b      	ldr	r3, [r7, #4]
 80078ea:	685b      	ldr	r3, [r3, #4]
 80078ec:	617b      	str	r3, [r7, #20]
  /* Get the TIMx CCMR1 register value */
  tmpccmrx = TIMx->CCMR3;
 80078ee:	687b      	ldr	r3, [r7, #4]
 80078f0:	6d1b      	ldr	r3, [r3, #80]	@ 0x50
 80078f2:	60fb      	str	r3, [r7, #12]

  /* Reset the Output Compare Mode Bits */
  tmpccmrx &= ~(TIM_CCMR3_OC6M);
 80078f4:	68fb      	ldr	r3, [r7, #12]
 80078f6:	f023 7380 	bic.w	r3, r3, #16777216	@ 0x1000000
 80078fa:	f423 43e0 	bic.w	r3, r3, #28672	@ 0x7000
 80078fe:	60fb      	str	r3, [r7, #12]
  /* Select the Output Compare Mode */
  tmpccmrx |= (OC_Config->OCMode << 8U);
 8007900:	683b      	ldr	r3, [r7, #0]
 8007902:	681b      	ldr	r3, [r3, #0]
 8007904:	021b      	lsls	r3, r3, #8
 8007906:	68fa      	ldr	r2, [r7, #12]
 8007908:	4313      	orrs	r3, r2
 800790a:	60fb      	str	r3, [r7, #12]

  /* Reset the Output Polarity level */
  tmpccer &= (uint32_t)~TIM_CCER_CC6P;
 800790c:	693b      	ldr	r3, [r7, #16]
 800790e:	f423 1300 	bic.w	r3, r3, #2097152	@ 0x200000
 8007912:	613b      	str	r3, [r7, #16]
  /* Set the Output Compare Polarity */
  tmpccer |= (OC_Config->OCPolarity << 20U);
 8007914:	683b      	ldr	r3, [r7, #0]
 8007916:	689b      	ldr	r3, [r3, #8]
 8007918:	051b      	lsls	r3, r3, #20
 800791a:	693a      	ldr	r2, [r7, #16]
 800791c:	4313      	orrs	r3, r2
 800791e:	613b      	str	r3, [r7, #16]

  if (IS_TIM_BREAK_INSTANCE(TIMx))
 8007920:	687b      	ldr	r3, [r7, #4]
 8007922:	4a1a      	ldr	r2, [pc, #104]	@ (800798c <TIM_OC6_SetConfig+0xc0>)
 8007924:	4293      	cmp	r3, r2
 8007926:	d013      	beq.n	8007950 <TIM_OC6_SetConfig+0x84>
 8007928:	687b      	ldr	r3, [r7, #4]
 800792a:	4a19      	ldr	r2, [pc, #100]	@ (8007990 <TIM_OC6_SetConfig+0xc4>)
 800792c:	4293      	cmp	r3, r2
 800792e:	d00f      	beq.n	8007950 <TIM_OC6_SetConfig+0x84>
 8007930:	687b      	ldr	r3, [r7, #4]
 8007932:	4a18      	ldr	r2, [pc, #96]	@ (8007994 <TIM_OC6_SetConfig+0xc8>)
 8007934:	4293      	cmp	r3, r2
 8007936:	d00b      	beq.n	8007950 <TIM_OC6_SetConfig+0x84>
 8007938:	687b      	ldr	r3, [r7, #4]
 800793a:	4a17      	ldr	r2, [pc, #92]	@ (8007998 <TIM_OC6_SetConfig+0xcc>)
 800793c:	4293      	cmp	r3, r2
 800793e:	d007      	beq.n	8007950 <TIM_OC6_SetConfig+0x84>
 8007940:	687b      	ldr	r3, [r7, #4]
 8007942:	4a16      	ldr	r2, [pc, #88]	@ (800799c <TIM_OC6_SetConfig+0xd0>)
 8007944:	4293      	cmp	r3, r2
 8007946:	d003      	beq.n	8007950 <TIM_OC6_SetConfig+0x84>
 8007948:	687b      	ldr	r3, [r7, #4]
 800794a:	4a15      	ldr	r2, [pc, #84]	@ (80079a0 <TIM_OC6_SetConfig+0xd4>)
 800794c:	4293      	cmp	r3, r2
 800794e:	d109      	bne.n	8007964 <TIM_OC6_SetConfig+0x98>
  {
    /* Reset the Output Compare IDLE State */
    tmpcr2 &= ~TIM_CR2_OIS6;
 8007950:	697b      	ldr	r3, [r7, #20]
 8007952:	f423 2380 	bic.w	r3, r3, #262144	@ 0x40000
 8007956:	617b      	str	r3, [r7, #20]
    /* Set the Output Idle state */
    tmpcr2 |= (OC_Config->OCIdleState << 10U);
 8007958:	683b      	ldr	r3, [r7, #0]
 800795a:	695b      	ldr	r3, [r3, #20]
 800795c:	029b      	lsls	r3, r3, #10
 800795e:	697a      	ldr	r2, [r7, #20]
 8007960:	4313      	orrs	r3, r2
 8007962:	617b      	str	r3, [r7, #20]
  }

  /* Write to TIMx CR2 */
  TIMx->CR2 = tmpcr2;
 8007964:	687b      	ldr	r3, [r7, #4]
 8007966:	697a      	ldr	r2, [r7, #20]
 8007968:	605a      	str	r2, [r3, #4]

  /* Write to TIMx CCMR3 */
  TIMx->CCMR3 = tmpccmrx;
 800796a:	687b      	ldr	r3, [r7, #4]
 800796c:	68fa      	ldr	r2, [r7, #12]
 800796e:	651a      	str	r2, [r3, #80]	@ 0x50

  /* Set the Capture Compare Register value */
  TIMx->CCR6 = OC_Config->Pulse;
 8007970:	683b      	ldr	r3, [r7, #0]
 8007972:	685a      	ldr	r2, [r3, #4]
 8007974:	687b      	ldr	r3, [r7, #4]
 8007976:	64da      	str	r2, [r3, #76]	@ 0x4c

  /* Write to TIMx CCER */
  TIMx->CCER = tmpccer;
 8007978:	687b      	ldr	r3, [r7, #4]
 800797a:	693a      	ldr	r2, [r7, #16]
 800797c:	621a      	str	r2, [r3, #32]
}
 800797e:	bf00      	nop
 8007980:	371c      	adds	r7, #28
 8007982:	46bd      	mov	sp, r7
 8007984:	f85d 7b04 	ldr.w	r7, [sp], #4
 8007988:	4770      	bx	lr
 800798a:	bf00      	nop
 800798c:	40012c00 	.word	0x40012c00
 8007990:	40013400 	.word	0x40013400
 8007994:	40014000 	.word	0x40014000
 8007998:	40014400 	.word	0x40014400
 800799c:	40014800 	.word	0x40014800
 80079a0:	40015000 	.word	0x40015000

080079a4 <TIM_TI1_ConfigInputStage>:
  * @param  TIM_ICFilter Specifies the Input Capture Filter.
  *          This parameter must be a value between 0x00 and 0x0F.
  * @retval None
  */
static void TIM_TI1_ConfigInputStage(TIM_TypeDef *TIMx, uint32_t TIM_ICPolarity, uint32_t TIM_ICFilter)
{
 80079a4:	b480      	push	{r7}
 80079a6:	b087      	sub	sp, #28
 80079a8:	af00      	add	r7, sp, #0
 80079aa:	60f8      	str	r0, [r7, #12]
 80079ac:	60b9      	str	r1, [r7, #8]
 80079ae:	607a      	str	r2, [r7, #4]
  uint32_t tmpccmr1;
  uint32_t tmpccer;

  /* Disable the Channel 1: Reset the CC1E Bit */
  tmpccer = TIMx->CCER;
 80079b0:	68fb      	ldr	r3, [r7, #12]
 80079b2:	6a1b      	ldr	r3, [r3, #32]
 80079b4:	617b      	str	r3, [r7, #20]
  TIMx->CCER &= ~TIM_CCER_CC1E;
 80079b6:	68fb      	ldr	r3, [r7, #12]
 80079b8:	6a1b      	ldr	r3, [r3, #32]
 80079ba:	f023 0201 	bic.w	r2, r3, #1
 80079be:	68fb      	ldr	r3, [r7, #12]
 80079c0:	621a      	str	r2, [r3, #32]
  tmpccmr1 = TIMx->CCMR1;
 80079c2:	68fb      	ldr	r3, [r7, #12]
 80079c4:	699b      	ldr	r3, [r3, #24]
 80079c6:	613b      	str	r3, [r7, #16]

  /* Set the filter */
  tmpccmr1 &= ~TIM_CCMR1_IC1F;
 80079c8:	693b      	ldr	r3, [r7, #16]
 80079ca:	f023 03f0 	bic.w	r3, r3, #240	@ 0xf0
 80079ce:	613b      	str	r3, [r7, #16]
  tmpccmr1 |= (TIM_ICFilter << 4U);
 80079d0:	687b      	ldr	r3, [r7, #4]
 80079d2:	011b      	lsls	r3, r3, #4
 80079d4:	693a      	ldr	r2, [r7, #16]
 80079d6:	4313      	orrs	r3, r2
 80079d8:	613b      	str	r3, [r7, #16]

  /* Select the Polarity and set the CC1E Bit */
  tmpccer &= ~(TIM_CCER_CC1P | TIM_CCER_CC1NP);
 80079da:	697b      	ldr	r3, [r7, #20]
 80079dc:	f023 030a 	bic.w	r3, r3, #10
 80079e0:	617b      	str	r3, [r7, #20]
  tmpccer |= TIM_ICPolarity;
 80079e2:	697a      	ldr	r2, [r7, #20]
 80079e4:	68bb      	ldr	r3, [r7, #8]
 80079e6:	4313      	orrs	r3, r2
 80079e8:	617b      	str	r3, [r7, #20]

  /* Write to TIMx CCMR1 and CCER registers */
  TIMx->CCMR1 = tmpccmr1;
 80079ea:	68fb      	ldr	r3, [r7, #12]
 80079ec:	693a      	ldr	r2, [r7, #16]
 80079ee:	619a      	str	r2, [r3, #24]
  TIMx->CCER = tmpccer;
 80079f0:	68fb      	ldr	r3, [r7, #12]
 80079f2:	697a      	ldr	r2, [r7, #20]
 80079f4:	621a      	str	r2, [r3, #32]
}
 80079f6:	bf00      	nop
 80079f8:	371c      	adds	r7, #28
 80079fa:	46bd      	mov	sp, r7
 80079fc:	f85d 7b04 	ldr.w	r7, [sp], #4
 8007a00:	4770      	bx	lr

08007a02 <TIM_TI2_ConfigInputStage>:
  * @param  TIM_ICFilter Specifies the Input Capture Filter.
  *          This parameter must be a value between 0x00 and 0x0F.
  * @retval None
  */
static void TIM_TI2_ConfigInputStage(TIM_TypeDef *TIMx, uint32_t TIM_ICPolarity, uint32_t TIM_ICFilter)
{
 8007a02:	b480      	push	{r7}
 8007a04:	b087      	sub	sp, #28
 8007a06:	af00      	add	r7, sp, #0
 8007a08:	60f8      	str	r0, [r7, #12]
 8007a0a:	60b9      	str	r1, [r7, #8]
 8007a0c:	607a      	str	r2, [r7, #4]
  uint32_t tmpccmr1;
  uint32_t tmpccer;

  /* Disable the Channel 2: Reset the CC2E Bit */
  tmpccer = TIMx->CCER;
 8007a0e:	68fb      	ldr	r3, [r7, #12]
 8007a10:	6a1b      	ldr	r3, [r3, #32]
 8007a12:	617b      	str	r3, [r7, #20]
  TIMx->CCER &= ~TIM_CCER_CC2E;
 8007a14:	68fb      	ldr	r3, [r7, #12]
 8007a16:	6a1b      	ldr	r3, [r3, #32]
 8007a18:	f023 0210 	bic.w	r2, r3, #16
 8007a1c:	68fb      	ldr	r3, [r7, #12]
 8007a1e:	621a      	str	r2, [r3, #32]
  tmpccmr1 = TIMx->CCMR1;
 8007a20:	68fb      	ldr	r3, [r7, #12]
 8007a22:	699b      	ldr	r3, [r3, #24]
 8007a24:	613b      	str	r3, [r7, #16]

  /* Set the filter */
  tmpccmr1 &= ~TIM_CCMR1_IC2F;
 8007a26:	693b      	ldr	r3, [r7, #16]
 8007a28:	f423 4370 	bic.w	r3, r3, #61440	@ 0xf000
 8007a2c:	613b      	str	r3, [r7, #16]
  tmpccmr1 |= (TIM_ICFilter << 12U);
 8007a2e:	687b      	ldr	r3, [r7, #4]
 8007a30:	031b      	lsls	r3, r3, #12
 8007a32:	693a      	ldr	r2, [r7, #16]
 8007a34:	4313      	orrs	r3, r2
 8007a36:	613b      	str	r3, [r7, #16]

  /* Select the Polarity and set the CC2E Bit */
  tmpccer &= ~(TIM_CCER_CC2P | TIM_CCER_CC2NP);
 8007a38:	697b      	ldr	r3, [r7, #20]
 8007a3a:	f023 03a0 	bic.w	r3, r3, #160	@ 0xa0
 8007a3e:	617b      	str	r3, [r7, #20]
  tmpccer |= (TIM_ICPolarity << 4U);
 8007a40:	68bb      	ldr	r3, [r7, #8]
 8007a42:	011b      	lsls	r3, r3, #4
 8007a44:	697a      	ldr	r2, [r7, #20]
 8007a46:	4313      	orrs	r3, r2
 8007a48:	617b      	str	r3, [r7, #20]

  /* Write to TIMx CCMR1 and CCER registers */
  TIMx->CCMR1 = tmpccmr1 ;
 8007a4a:	68fb      	ldr	r3, [r7, #12]
 8007a4c:	693a      	ldr	r2, [r7, #16]
 8007a4e:	619a      	str	r2, [r3, #24]
  TIMx->CCER = tmpccer;
 8007a50:	68fb      	ldr	r3, [r7, #12]
 8007a52:	697a      	ldr	r2, [r7, #20]
 8007a54:	621a      	str	r2, [r3, #32]
}
 8007a56:	bf00      	nop
 8007a58:	371c      	adds	r7, #28
 8007a5a:	46bd      	mov	sp, r7
 8007a5c:	f85d 7b04 	ldr.w	r7, [sp], #4
 8007a60:	4770      	bx	lr

08007a62 <TIM_ITRx_SetConfig>:
  *       (*)  Value not defined in all devices.
  *
  * @retval None
  */
static void TIM_ITRx_SetConfig(TIM_TypeDef *TIMx, uint32_t InputTriggerSource)
{
 8007a62:	b480      	push	{r7}
 8007a64:	b085      	sub	sp, #20
 8007a66:	af00      	add	r7, sp, #0
 8007a68:	6078      	str	r0, [r7, #4]
 8007a6a:	6039      	str	r1, [r7, #0]
  uint32_t tmpsmcr;

  /* Get the TIMx SMCR register value */
  tmpsmcr = TIMx->SMCR;
 8007a6c:	687b      	ldr	r3, [r7, #4]
 8007a6e:	689b      	ldr	r3, [r3, #8]
 8007a70:	60fb      	str	r3, [r7, #12]
  /* Reset the TS Bits */
  tmpsmcr &= ~TIM_SMCR_TS;
 8007a72:	68fb      	ldr	r3, [r7, #12]
 8007a74:	f423 1340 	bic.w	r3, r3, #3145728	@ 0x300000
 8007a78:	f023 0370 	bic.w	r3, r3, #112	@ 0x70
 8007a7c:	60fb      	str	r3, [r7, #12]
  /* Set the Input Trigger source and the slave mode*/
  tmpsmcr |= (InputTriggerSource | TIM_SLAVEMODE_EXTERNAL1);
 8007a7e:	683a      	ldr	r2, [r7, #0]
 8007a80:	68fb      	ldr	r3, [r7, #12]
 8007a82:	4313      	orrs	r3, r2
 8007a84:	f043 0307 	orr.w	r3, r3, #7
 8007a88:	60fb      	str	r3, [r7, #12]
  /* Write to TIMx SMCR */
  TIMx->SMCR = tmpsmcr;
 8007a8a:	687b      	ldr	r3, [r7, #4]
 8007a8c:	68fa      	ldr	r2, [r7, #12]
 8007a8e:	609a      	str	r2, [r3, #8]
}
 8007a90:	bf00      	nop
 8007a92:	3714      	adds	r7, #20
 8007a94:	46bd      	mov	sp, r7
 8007a96:	f85d 7b04 	ldr.w	r7, [sp], #4
 8007a9a:	4770      	bx	lr

08007a9c <TIM_ETR_SetConfig>:
  *          This parameter must be a value between 0x00 and 0x0F
  * @retval None
  */
void TIM_ETR_SetConfig(TIM_TypeDef *TIMx, uint32_t TIM_ExtTRGPrescaler,
                       uint32_t TIM_ExtTRGPolarity, uint32_t ExtTRGFilter)
{
 8007a9c:	b480      	push	{r7}
 8007a9e:	b087      	sub	sp, #28
 8007aa0:	af00      	add	r7, sp, #0
 8007aa2:	60f8      	str	r0, [r7, #12]
 8007aa4:	60b9      	str	r1, [r7, #8]
 8007aa6:	607a      	str	r2, [r7, #4]
 8007aa8:	603b      	str	r3, [r7, #0]
  uint32_t tmpsmcr;

  tmpsmcr = TIMx->SMCR;
 8007aaa:	68fb      	ldr	r3, [r7, #12]
 8007aac:	689b      	ldr	r3, [r3, #8]
 8007aae:	617b      	str	r3, [r7, #20]

  /* Reset the ETR Bits */
  tmpsmcr &= ~(TIM_SMCR_ETF | TIM_SMCR_ETPS | TIM_SMCR_ECE | TIM_SMCR_ETP);
 8007ab0:	697b      	ldr	r3, [r7, #20]
 8007ab2:	f423 437f 	bic.w	r3, r3, #65280	@ 0xff00
 8007ab6:	617b      	str	r3, [r7, #20]

  /* Set the Prescaler, the Filter value and the Polarity */
  tmpsmcr |= (uint32_t)(TIM_ExtTRGPrescaler | (TIM_ExtTRGPolarity | (ExtTRGFilter << 8U)));
 8007ab8:	683b      	ldr	r3, [r7, #0]
 8007aba:	021a      	lsls	r2, r3, #8
 8007abc:	687b      	ldr	r3, [r7, #4]
 8007abe:	431a      	orrs	r2, r3
 8007ac0:	68bb      	ldr	r3, [r7, #8]
 8007ac2:	4313      	orrs	r3, r2
 8007ac4:	697a      	ldr	r2, [r7, #20]
 8007ac6:	4313      	orrs	r3, r2
 8007ac8:	617b      	str	r3, [r7, #20]

  /* Write to TIMx SMCR */
  TIMx->SMCR = tmpsmcr;
 8007aca:	68fb      	ldr	r3, [r7, #12]
 8007acc:	697a      	ldr	r2, [r7, #20]
 8007ace:	609a      	str	r2, [r3, #8]
}
 8007ad0:	bf00      	nop
 8007ad2:	371c      	adds	r7, #28
 8007ad4:	46bd      	mov	sp, r7
 8007ad6:	f85d 7b04 	ldr.w	r7, [sp], #4
 8007ada:	4770      	bx	lr

08007adc <TIM_CCxChannelCmd>:
  * @param  ChannelState specifies the TIM Channel CCxE bit new state.
  *          This parameter can be: TIM_CCx_ENABLE or TIM_CCx_DISABLE.
  * @retval None
  */
void TIM_CCxChannelCmd(TIM_TypeDef *TIMx, uint32_t Channel, uint32_t ChannelState)
{
 8007adc:	b480      	push	{r7}
 8007ade:	b087      	sub	sp, #28
 8007ae0:	af00      	add	r7, sp, #0
 8007ae2:	60f8      	str	r0, [r7, #12]
 8007ae4:	60b9      	str	r1, [r7, #8]
 8007ae6:	607a      	str	r2, [r7, #4]

  /* Check the parameters */
  assert_param(IS_TIM_CC1_INSTANCE(TIMx));
  assert_param(IS_TIM_CHANNELS(Channel));

  tmp = TIM_CCER_CC1E << (Channel & 0x1FU); /* 0x1FU = 31 bits max shift */
 8007ae8:	68bb      	ldr	r3, [r7, #8]
 8007aea:	f003 031f 	and.w	r3, r3, #31
 8007aee:	2201      	movs	r2, #1
 8007af0:	fa02 f303 	lsl.w	r3, r2, r3
 8007af4:	617b      	str	r3, [r7, #20]

  /* Reset the CCxE Bit */
  TIMx->CCER &= ~tmp;
 8007af6:	68fb      	ldr	r3, [r7, #12]
 8007af8:	6a1a      	ldr	r2, [r3, #32]
 8007afa:	697b      	ldr	r3, [r7, #20]
 8007afc:	43db      	mvns	r3, r3
 8007afe:	401a      	ands	r2, r3
 8007b00:	68fb      	ldr	r3, [r7, #12]
 8007b02:	621a      	str	r2, [r3, #32]

  /* Set or reset the CCxE Bit */
  TIMx->CCER |= (uint32_t)(ChannelState << (Channel & 0x1FU)); /* 0x1FU = 31 bits max shift */
 8007b04:	68fb      	ldr	r3, [r7, #12]
 8007b06:	6a1a      	ldr	r2, [r3, #32]
 8007b08:	68bb      	ldr	r3, [r7, #8]
 8007b0a:	f003 031f 	and.w	r3, r3, #31
 8007b0e:	6879      	ldr	r1, [r7, #4]
 8007b10:	fa01 f303 	lsl.w	r3, r1, r3
 8007b14:	431a      	orrs	r2, r3
 8007b16:	68fb      	ldr	r3, [r7, #12]
 8007b18:	621a      	str	r2, [r3, #32]
}
 8007b1a:	bf00      	nop
 8007b1c:	371c      	adds	r7, #28
 8007b1e:	46bd      	mov	sp, r7
 8007b20:	f85d 7b04 	ldr.w	r7, [sp], #4
 8007b24:	4770      	bx	lr
	...

08007b28 <HAL_TIMEx_PWMN_Start>:
  *            @arg TIM_CHANNEL_3: TIM Channel 3 selected
  *            @arg TIM_CHANNEL_4: TIM Channel 4 selected
  * @retval HAL status
  */
HAL_StatusTypeDef HAL_TIMEx_PWMN_Start(TIM_HandleTypeDef *htim, uint32_t Channel)
{
 8007b28:	b580      	push	{r7, lr}
 8007b2a:	b084      	sub	sp, #16
 8007b2c:	af00      	add	r7, sp, #0
 8007b2e:	6078      	str	r0, [r7, #4]
 8007b30:	6039      	str	r1, [r7, #0]

  /* Check the parameters */
  assert_param(IS_TIM_CCXN_INSTANCE(htim->Instance, Channel));

  /* Check the TIM complementary channel state */
  if (TIM_CHANNEL_N_STATE_GET(htim, Channel) != HAL_TIM_CHANNEL_STATE_READY)
 8007b32:	683b      	ldr	r3, [r7, #0]
 8007b34:	2b00      	cmp	r3, #0
 8007b36:	d109      	bne.n	8007b4c <HAL_TIMEx_PWMN_Start+0x24>
 8007b38:	687b      	ldr	r3, [r7, #4]
 8007b3a:	f893 3044 	ldrb.w	r3, [r3, #68]	@ 0x44
 8007b3e:	b2db      	uxtb	r3, r3
 8007b40:	2b01      	cmp	r3, #1
 8007b42:	bf14      	ite	ne
 8007b44:	2301      	movne	r3, #1
 8007b46:	2300      	moveq	r3, #0
 8007b48:	b2db      	uxtb	r3, r3
 8007b4a:	e022      	b.n	8007b92 <HAL_TIMEx_PWMN_Start+0x6a>
 8007b4c:	683b      	ldr	r3, [r7, #0]
 8007b4e:	2b04      	cmp	r3, #4
 8007b50:	d109      	bne.n	8007b66 <HAL_TIMEx_PWMN_Start+0x3e>
 8007b52:	687b      	ldr	r3, [r7, #4]
 8007b54:	f893 3045 	ldrb.w	r3, [r3, #69]	@ 0x45
 8007b58:	b2db      	uxtb	r3, r3
 8007b5a:	2b01      	cmp	r3, #1
 8007b5c:	bf14      	ite	ne
 8007b5e:	2301      	movne	r3, #1
 8007b60:	2300      	moveq	r3, #0
 8007b62:	b2db      	uxtb	r3, r3
 8007b64:	e015      	b.n	8007b92 <HAL_TIMEx_PWMN_Start+0x6a>
 8007b66:	683b      	ldr	r3, [r7, #0]
 8007b68:	2b08      	cmp	r3, #8
 8007b6a:	d109      	bne.n	8007b80 <HAL_TIMEx_PWMN_Start+0x58>
 8007b6c:	687b      	ldr	r3, [r7, #4]
 8007b6e:	f893 3046 	ldrb.w	r3, [r3, #70]	@ 0x46
 8007b72:	b2db      	uxtb	r3, r3
 8007b74:	2b01      	cmp	r3, #1
 8007b76:	bf14      	ite	ne
 8007b78:	2301      	movne	r3, #1
 8007b7a:	2300      	moveq	r3, #0
 8007b7c:	b2db      	uxtb	r3, r3
 8007b7e:	e008      	b.n	8007b92 <HAL_TIMEx_PWMN_Start+0x6a>
 8007b80:	687b      	ldr	r3, [r7, #4]
 8007b82:	f893 3047 	ldrb.w	r3, [r3, #71]	@ 0x47
 8007b86:	b2db      	uxtb	r3, r3
 8007b88:	2b01      	cmp	r3, #1
 8007b8a:	bf14      	ite	ne
 8007b8c:	2301      	movne	r3, #1
 8007b8e:	2300      	moveq	r3, #0
 8007b90:	b2db      	uxtb	r3, r3
 8007b92:	2b00      	cmp	r3, #0
 8007b94:	d001      	beq.n	8007b9a <HAL_TIMEx_PWMN_Start+0x72>
  {
    return HAL_ERROR;
 8007b96:	2301      	movs	r3, #1
 8007b98:	e073      	b.n	8007c82 <HAL_TIMEx_PWMN_Start+0x15a>
  }

  /* Set the TIM complementary channel state */
  TIM_CHANNEL_N_STATE_SET(htim, Channel, HAL_TIM_CHANNEL_STATE_BUSY);
 8007b9a:	683b      	ldr	r3, [r7, #0]
 8007b9c:	2b00      	cmp	r3, #0
 8007b9e:	d104      	bne.n	8007baa <HAL_TIMEx_PWMN_Start+0x82>
 8007ba0:	687b      	ldr	r3, [r7, #4]
 8007ba2:	2202      	movs	r2, #2
 8007ba4:	f883 2044 	strb.w	r2, [r3, #68]	@ 0x44
 8007ba8:	e013      	b.n	8007bd2 <HAL_TIMEx_PWMN_Start+0xaa>
 8007baa:	683b      	ldr	r3, [r7, #0]
 8007bac:	2b04      	cmp	r3, #4
 8007bae:	d104      	bne.n	8007bba <HAL_TIMEx_PWMN_Start+0x92>
 8007bb0:	687b      	ldr	r3, [r7, #4]
 8007bb2:	2202      	movs	r2, #2
 8007bb4:	f883 2045 	strb.w	r2, [r3, #69]	@ 0x45
 8007bb8:	e00b      	b.n	8007bd2 <HAL_TIMEx_PWMN_Start+0xaa>
 8007bba:	683b      	ldr	r3, [r7, #0]
 8007bbc:	2b08      	cmp	r3, #8
 8007bbe:	d104      	bne.n	8007bca <HAL_TIMEx_PWMN_Start+0xa2>
 8007bc0:	687b      	ldr	r3, [r7, #4]
 8007bc2:	2202      	movs	r2, #2
 8007bc4:	f883 2046 	strb.w	r2, [r3, #70]	@ 0x46
 8007bc8:	e003      	b.n	8007bd2 <HAL_TIMEx_PWMN_Start+0xaa>
 8007bca:	687b      	ldr	r3, [r7, #4]
 8007bcc:	2202      	movs	r2, #2
 8007bce:	f883 2047 	strb.w	r2, [r3, #71]	@ 0x47

  /* Enable the complementary PWM output  */
  TIM_CCxNChannelCmd(htim->Instance, Channel, TIM_CCxN_ENABLE);
 8007bd2:	687b      	ldr	r3, [r7, #4]
 8007bd4:	681b      	ldr	r3, [r3, #0]
 8007bd6:	2204      	movs	r2, #4
 8007bd8:	6839      	ldr	r1, [r7, #0]
 8007bda:	4618      	mov	r0, r3
 8007bdc:	f000 f990 	bl	8007f00 <TIM_CCxNChannelCmd>

  /* Enable the Main Output */
  __HAL_TIM_MOE_ENABLE(htim);
 8007be0:	687b      	ldr	r3, [r7, #4]
 8007be2:	681b      	ldr	r3, [r3, #0]
 8007be4:	6c5a      	ldr	r2, [r3, #68]	@ 0x44
 8007be6:	687b      	ldr	r3, [r7, #4]
 8007be8:	681b      	ldr	r3, [r3, #0]
 8007bea:	f442 4200 	orr.w	r2, r2, #32768	@ 0x8000
 8007bee:	645a      	str	r2, [r3, #68]	@ 0x44

  /* Enable the Peripheral, except in trigger mode where enable is automatically done with trigger */
  if (IS_TIM_SLAVE_INSTANCE(htim->Instance))
 8007bf0:	687b      	ldr	r3, [r7, #4]
 8007bf2:	681b      	ldr	r3, [r3, #0]
 8007bf4:	4a25      	ldr	r2, [pc, #148]	@ (8007c8c <HAL_TIMEx_PWMN_Start+0x164>)
 8007bf6:	4293      	cmp	r3, r2
 8007bf8:	d022      	beq.n	8007c40 <HAL_TIMEx_PWMN_Start+0x118>
 8007bfa:	687b      	ldr	r3, [r7, #4]
 8007bfc:	681b      	ldr	r3, [r3, #0]
 8007bfe:	f1b3 4f80 	cmp.w	r3, #1073741824	@ 0x40000000
 8007c02:	d01d      	beq.n	8007c40 <HAL_TIMEx_PWMN_Start+0x118>
 8007c04:	687b      	ldr	r3, [r7, #4]
 8007c06:	681b      	ldr	r3, [r3, #0]
 8007c08:	4a21      	ldr	r2, [pc, #132]	@ (8007c90 <HAL_TIMEx_PWMN_Start+0x168>)
 8007c0a:	4293      	cmp	r3, r2
 8007c0c:	d018      	beq.n	8007c40 <HAL_TIMEx_PWMN_Start+0x118>
 8007c0e:	687b      	ldr	r3, [r7, #4]
 8007c10:	681b      	ldr	r3, [r3, #0]
 8007c12:	4a20      	ldr	r2, [pc, #128]	@ (8007c94 <HAL_TIMEx_PWMN_Start+0x16c>)
 8007c14:	4293      	cmp	r3, r2
 8007c16:	d013      	beq.n	8007c40 <HAL_TIMEx_PWMN_Start+0x118>
 8007c18:	687b      	ldr	r3, [r7, #4]
 8007c1a:	681b      	ldr	r3, [r3, #0]
 8007c1c:	4a1e      	ldr	r2, [pc, #120]	@ (8007c98 <HAL_TIMEx_PWMN_Start+0x170>)
 8007c1e:	4293      	cmp	r3, r2
 8007c20:	d00e      	beq.n	8007c40 <HAL_TIMEx_PWMN_Start+0x118>
 8007c22:	687b      	ldr	r3, [r7, #4]
 8007c24:	681b      	ldr	r3, [r3, #0]
 8007c26:	4a1d      	ldr	r2, [pc, #116]	@ (8007c9c <HAL_TIMEx_PWMN_Start+0x174>)
 8007c28:	4293      	cmp	r3, r2
 8007c2a:	d009      	beq.n	8007c40 <HAL_TIMEx_PWMN_Start+0x118>
 8007c2c:	687b      	ldr	r3, [r7, #4]
 8007c2e:	681b      	ldr	r3, [r3, #0]
 8007c30:	4a1b      	ldr	r2, [pc, #108]	@ (8007ca0 <HAL_TIMEx_PWMN_Start+0x178>)
 8007c32:	4293      	cmp	r3, r2
 8007c34:	d004      	beq.n	8007c40 <HAL_TIMEx_PWMN_Start+0x118>
 8007c36:	687b      	ldr	r3, [r7, #4]
 8007c38:	681b      	ldr	r3, [r3, #0]
 8007c3a:	4a1a      	ldr	r2, [pc, #104]	@ (8007ca4 <HAL_TIMEx_PWMN_Start+0x17c>)
 8007c3c:	4293      	cmp	r3, r2
 8007c3e:	d115      	bne.n	8007c6c <HAL_TIMEx_PWMN_Start+0x144>
  {
    tmpsmcr = htim->Instance->SMCR & TIM_SMCR_SMS;
 8007c40:	687b      	ldr	r3, [r7, #4]
 8007c42:	681b      	ldr	r3, [r3, #0]
 8007c44:	689a      	ldr	r2, [r3, #8]
 8007c46:	4b18      	ldr	r3, [pc, #96]	@ (8007ca8 <HAL_TIMEx_PWMN_Start+0x180>)
 8007c48:	4013      	ands	r3, r2
 8007c4a:	60fb      	str	r3, [r7, #12]
    if (!IS_TIM_SLAVEMODE_TRIGGER_ENABLED(tmpsmcr))
 8007c4c:	68fb      	ldr	r3, [r7, #12]
 8007c4e:	2b06      	cmp	r3, #6
 8007c50:	d015      	beq.n	8007c7e <HAL_TIMEx_PWMN_Start+0x156>
 8007c52:	68fb      	ldr	r3, [r7, #12]
 8007c54:	f5b3 3f80 	cmp.w	r3, #65536	@ 0x10000
 8007c58:	d011      	beq.n	8007c7e <HAL_TIMEx_PWMN_Start+0x156>
    {
      __HAL_TIM_ENABLE(htim);
 8007c5a:	687b      	ldr	r3, [r7, #4]
 8007c5c:	681b      	ldr	r3, [r3, #0]
 8007c5e:	681a      	ldr	r2, [r3, #0]
 8007c60:	687b      	ldr	r3, [r7, #4]
 8007c62:	681b      	ldr	r3, [r3, #0]
 8007c64:	f042 0201 	orr.w	r2, r2, #1
 8007c68:	601a      	str	r2, [r3, #0]
    if (!IS_TIM_SLAVEMODE_TRIGGER_ENABLED(tmpsmcr))
 8007c6a:	e008      	b.n	8007c7e <HAL_TIMEx_PWMN_Start+0x156>
    }
  }
  else
  {
    __HAL_TIM_ENABLE(htim);
 8007c6c:	687b      	ldr	r3, [r7, #4]
 8007c6e:	681b      	ldr	r3, [r3, #0]
 8007c70:	681a      	ldr	r2, [r3, #0]
 8007c72:	687b      	ldr	r3, [r7, #4]
 8007c74:	681b      	ldr	r3, [r3, #0]
 8007c76:	f042 0201 	orr.w	r2, r2, #1
 8007c7a:	601a      	str	r2, [r3, #0]
 8007c7c:	e000      	b.n	8007c80 <HAL_TIMEx_PWMN_Start+0x158>
    if (!IS_TIM_SLAVEMODE_TRIGGER_ENABLED(tmpsmcr))
 8007c7e:	bf00      	nop
  }

  /* Return function status */
  return HAL_OK;
 8007c80:	2300      	movs	r3, #0
}
 8007c82:	4618      	mov	r0, r3
 8007c84:	3710      	adds	r7, #16
 8007c86:	46bd      	mov	sp, r7
 8007c88:	bd80      	pop	{r7, pc}
 8007c8a:	bf00      	nop
 8007c8c:	40012c00 	.word	0x40012c00
 8007c90:	40000400 	.word	0x40000400
 8007c94:	40000800 	.word	0x40000800
 8007c98:	40000c00 	.word	0x40000c00
 8007c9c:	40013400 	.word	0x40013400
 8007ca0:	40014000 	.word	0x40014000
 8007ca4:	40015000 	.word	0x40015000
 8007ca8:	00010007 	.word	0x00010007

08007cac <HAL_TIMEx_MasterConfigSynchronization>:
  *         mode.
  * @retval HAL status
  */
HAL_StatusTypeDef HAL_TIMEx_MasterConfigSynchronization(TIM_HandleTypeDef *htim,
                                                        const TIM_MasterConfigTypeDef *sMasterConfig)
{
 8007cac:	b480      	push	{r7}
 8007cae:	b085      	sub	sp, #20
 8007cb0:	af00      	add	r7, sp, #0
 8007cb2:	6078      	str	r0, [r7, #4]
 8007cb4:	6039      	str	r1, [r7, #0]
  assert_param(IS_TIM_MASTER_INSTANCE(htim->Instance));
  assert_param(IS_TIM_TRGO_SOURCE(sMasterConfig->MasterOutputTrigger));
  assert_param(IS_TIM_MSM_STATE(sMasterConfig->MasterSlaveMode));

  /* Check input state */
  __HAL_LOCK(htim);
 8007cb6:	687b      	ldr	r3, [r7, #4]
 8007cb8:	f893 303c 	ldrb.w	r3, [r3, #60]	@ 0x3c
 8007cbc:	2b01      	cmp	r3, #1
 8007cbe:	d101      	bne.n	8007cc4 <HAL_TIMEx_MasterConfigSynchronization+0x18>
 8007cc0:	2302      	movs	r3, #2
 8007cc2:	e074      	b.n	8007dae <HAL_TIMEx_MasterConfigSynchronization+0x102>
 8007cc4:	687b      	ldr	r3, [r7, #4]
 8007cc6:	2201      	movs	r2, #1
 8007cc8:	f883 203c 	strb.w	r2, [r3, #60]	@ 0x3c

  /* Change the handler state */
  htim->State = HAL_TIM_STATE_BUSY;
 8007ccc:	687b      	ldr	r3, [r7, #4]
 8007cce:	2202      	movs	r2, #2
 8007cd0:	f883 203d 	strb.w	r2, [r3, #61]	@ 0x3d

  /* Get the TIMx CR2 register value */
  tmpcr2 = htim->Instance->CR2;
 8007cd4:	687b      	ldr	r3, [r7, #4]
 8007cd6:	681b      	ldr	r3, [r3, #0]
 8007cd8:	685b      	ldr	r3, [r3, #4]
 8007cda:	60fb      	str	r3, [r7, #12]

  /* Get the TIMx SMCR register value */
  tmpsmcr = htim->Instance->SMCR;
 8007cdc:	687b      	ldr	r3, [r7, #4]
 8007cde:	681b      	ldr	r3, [r3, #0]
 8007ce0:	689b      	ldr	r3, [r3, #8]
 8007ce2:	60bb      	str	r3, [r7, #8]

  /* If the timer supports ADC synchronization through TRGO2, set the master mode selection 2 */
  if (IS_TIM_TRGO2_INSTANCE(htim->Instance))
 8007ce4:	687b      	ldr	r3, [r7, #4]
 8007ce6:	681b      	ldr	r3, [r3, #0]
 8007ce8:	4a34      	ldr	r2, [pc, #208]	@ (8007dbc <HAL_TIMEx_MasterConfigSynchronization+0x110>)
 8007cea:	4293      	cmp	r3, r2
 8007cec:	d009      	beq.n	8007d02 <HAL_TIMEx_MasterConfigSynchronization+0x56>
 8007cee:	687b      	ldr	r3, [r7, #4]
 8007cf0:	681b      	ldr	r3, [r3, #0]
 8007cf2:	4a33      	ldr	r2, [pc, #204]	@ (8007dc0 <HAL_TIMEx_MasterConfigSynchronization+0x114>)
 8007cf4:	4293      	cmp	r3, r2
 8007cf6:	d004      	beq.n	8007d02 <HAL_TIMEx_MasterConfigSynchronization+0x56>
 8007cf8:	687b      	ldr	r3, [r7, #4]
 8007cfa:	681b      	ldr	r3, [r3, #0]
 8007cfc:	4a31      	ldr	r2, [pc, #196]	@ (8007dc4 <HAL_TIMEx_MasterConfigSynchronization+0x118>)
 8007cfe:	4293      	cmp	r3, r2
 8007d00:	d108      	bne.n	8007d14 <HAL_TIMEx_MasterConfigSynchronization+0x68>
  {
    /* Check the parameters */
    assert_param(IS_TIM_TRGO2_SOURCE(sMasterConfig->MasterOutputTrigger2));

    /* Clear the MMS2 bits */
    tmpcr2 &= ~TIM_CR2_MMS2;
 8007d02:	68fb      	ldr	r3, [r7, #12]
 8007d04:	f423 0370 	bic.w	r3, r3, #15728640	@ 0xf00000
 8007d08:	60fb      	str	r3, [r7, #12]
    /* Select the TRGO2 source*/
    tmpcr2 |= sMasterConfig->MasterOutputTrigger2;
 8007d0a:	683b      	ldr	r3, [r7, #0]
 8007d0c:	685b      	ldr	r3, [r3, #4]
 8007d0e:	68fa      	ldr	r2, [r7, #12]
 8007d10:	4313      	orrs	r3, r2
 8007d12:	60fb      	str	r3, [r7, #12]
  }

  /* Reset the MMS Bits */
  tmpcr2 &= ~TIM_CR2_MMS;
 8007d14:	68fb      	ldr	r3, [r7, #12]
 8007d16:	f023 7300 	bic.w	r3, r3, #33554432	@ 0x2000000
 8007d1a:	f023 0370 	bic.w	r3, r3, #112	@ 0x70
 8007d1e:	60fb      	str	r3, [r7, #12]
  /* Select the TRGO source */
  tmpcr2 |=  sMasterConfig->MasterOutputTrigger;
 8007d20:	683b      	ldr	r3, [r7, #0]
 8007d22:	681b      	ldr	r3, [r3, #0]
 8007d24:	68fa      	ldr	r2, [r7, #12]
 8007d26:	4313      	orrs	r3, r2
 8007d28:	60fb      	str	r3, [r7, #12]

  /* Update TIMx CR2 */
  htim->Instance->CR2 = tmpcr2;
 8007d2a:	687b      	ldr	r3, [r7, #4]
 8007d2c:	681b      	ldr	r3, [r3, #0]
 8007d2e:	68fa      	ldr	r2, [r7, #12]
 8007d30:	605a      	str	r2, [r3, #4]

  if (IS_TIM_SLAVE_INSTANCE(htim->Instance))
 8007d32:	687b      	ldr	r3, [r7, #4]
 8007d34:	681b      	ldr	r3, [r3, #0]
 8007d36:	4a21      	ldr	r2, [pc, #132]	@ (8007dbc <HAL_TIMEx_MasterConfigSynchronization+0x110>)
 8007d38:	4293      	cmp	r3, r2
 8007d3a:	d022      	beq.n	8007d82 <HAL_TIMEx_MasterConfigSynchronization+0xd6>
 8007d3c:	687b      	ldr	r3, [r7, #4]
 8007d3e:	681b      	ldr	r3, [r3, #0]
 8007d40:	f1b3 4f80 	cmp.w	r3, #1073741824	@ 0x40000000
 8007d44:	d01d      	beq.n	8007d82 <HAL_TIMEx_MasterConfigSynchronization+0xd6>
 8007d46:	687b      	ldr	r3, [r7, #4]
 8007d48:	681b      	ldr	r3, [r3, #0]
 8007d4a:	4a1f      	ldr	r2, [pc, #124]	@ (8007dc8 <HAL_TIMEx_MasterConfigSynchronization+0x11c>)
 8007d4c:	4293      	cmp	r3, r2
 8007d4e:	d018      	beq.n	8007d82 <HAL_TIMEx_MasterConfigSynchronization+0xd6>
 8007d50:	687b      	ldr	r3, [r7, #4]
 8007d52:	681b      	ldr	r3, [r3, #0]
 8007d54:	4a1d      	ldr	r2, [pc, #116]	@ (8007dcc <HAL_TIMEx_MasterConfigSynchronization+0x120>)
 8007d56:	4293      	cmp	r3, r2
 8007d58:	d013      	beq.n	8007d82 <HAL_TIMEx_MasterConfigSynchronization+0xd6>
 8007d5a:	687b      	ldr	r3, [r7, #4]
 8007d5c:	681b      	ldr	r3, [r3, #0]
 8007d5e:	4a1c      	ldr	r2, [pc, #112]	@ (8007dd0 <HAL_TIMEx_MasterConfigSynchronization+0x124>)
 8007d60:	4293      	cmp	r3, r2
 8007d62:	d00e      	beq.n	8007d82 <HAL_TIMEx_MasterConfigSynchronization+0xd6>
 8007d64:	687b      	ldr	r3, [r7, #4]
 8007d66:	681b      	ldr	r3, [r3, #0]
 8007d68:	4a15      	ldr	r2, [pc, #84]	@ (8007dc0 <HAL_TIMEx_MasterConfigSynchronization+0x114>)
 8007d6a:	4293      	cmp	r3, r2
 8007d6c:	d009      	beq.n	8007d82 <HAL_TIMEx_MasterConfigSynchronization+0xd6>
 8007d6e:	687b      	ldr	r3, [r7, #4]
 8007d70:	681b      	ldr	r3, [r3, #0]
 8007d72:	4a18      	ldr	r2, [pc, #96]	@ (8007dd4 <HAL_TIMEx_MasterConfigSynchronization+0x128>)
 8007d74:	4293      	cmp	r3, r2
 8007d76:	d004      	beq.n	8007d82 <HAL_TIMEx_MasterConfigSynchronization+0xd6>
 8007d78:	687b      	ldr	r3, [r7, #4]
 8007d7a:	681b      	ldr	r3, [r3, #0]
 8007d7c:	4a11      	ldr	r2, [pc, #68]	@ (8007dc4 <HAL_TIMEx_MasterConfigSynchronization+0x118>)
 8007d7e:	4293      	cmp	r3, r2
 8007d80:	d10c      	bne.n	8007d9c <HAL_TIMEx_MasterConfigSynchronization+0xf0>
  {
    /* Reset the MSM Bit */
    tmpsmcr &= ~TIM_SMCR_MSM;
 8007d82:	68bb      	ldr	r3, [r7, #8]
 8007d84:	f023 0380 	bic.w	r3, r3, #128	@ 0x80
 8007d88:	60bb      	str	r3, [r7, #8]
    /* Set master mode */
    tmpsmcr |= sMasterConfig->MasterSlaveMode;
 8007d8a:	683b      	ldr	r3, [r7, #0]
 8007d8c:	689b      	ldr	r3, [r3, #8]
 8007d8e:	68ba      	ldr	r2, [r7, #8]
 8007d90:	4313      	orrs	r3, r2
 8007d92:	60bb      	str	r3, [r7, #8]

    /* Update TIMx SMCR */
    htim->Instance->SMCR = tmpsmcr;
 8007d94:	687b      	ldr	r3, [r7, #4]
 8007d96:	681b      	ldr	r3, [r3, #0]
 8007d98:	68ba      	ldr	r2, [r7, #8]
 8007d9a:	609a      	str	r2, [r3, #8]
  }

  /* Change the htim state */
  htim->State = HAL_TIM_STATE_READY;
 8007d9c:	687b      	ldr	r3, [r7, #4]
 8007d9e:	2201      	movs	r2, #1
 8007da0:	f883 203d 	strb.w	r2, [r3, #61]	@ 0x3d

  __HAL_UNLOCK(htim);
 8007da4:	687b      	ldr	r3, [r7, #4]
 8007da6:	2200      	movs	r2, #0
 8007da8:	f883 203c 	strb.w	r2, [r3, #60]	@ 0x3c

  return HAL_OK;
 8007dac:	2300      	movs	r3, #0
}
 8007dae:	4618      	mov	r0, r3
 8007db0:	3714      	adds	r7, #20
 8007db2:	46bd      	mov	sp, r7
 8007db4:	f85d 7b04 	ldr.w	r7, [sp], #4
 8007db8:	4770      	bx	lr
 8007dba:	bf00      	nop
 8007dbc:	40012c00 	.word	0x40012c00
 8007dc0:	40013400 	.word	0x40013400
 8007dc4:	40015000 	.word	0x40015000
 8007dc8:	40000400 	.word	0x40000400
 8007dcc:	40000800 	.word	0x40000800
 8007dd0:	40000c00 	.word	0x40000c00
 8007dd4:	40014000 	.word	0x40014000

08007dd8 <HAL_TIMEx_ConfigBreakDeadTime>:
  *         interrupt can be enabled by calling the @ref __HAL_TIM_ENABLE_IT macro.
  * @retval HAL status
  */
HAL_StatusTypeDef HAL_TIMEx_ConfigBreakDeadTime(TIM_HandleTypeDef *htim,
                                                const TIM_BreakDeadTimeConfigTypeDef *sBreakDeadTimeConfig)
{
 8007dd8:	b480      	push	{r7}
 8007dda:	b085      	sub	sp, #20
 8007ddc:	af00      	add	r7, sp, #0
 8007dde:	6078      	str	r0, [r7, #4]
 8007de0:	6039      	str	r1, [r7, #0]
  /* Keep this variable initialized to 0 as it is used to configure BDTR register */
  uint32_t tmpbdtr = 0U;
 8007de2:	2300      	movs	r3, #0
 8007de4:	60fb      	str	r3, [r7, #12]
  assert_param(IS_TIM_BREAK_FILTER(sBreakDeadTimeConfig->BreakFilter));
  assert_param(IS_TIM_AUTOMATIC_OUTPUT_STATE(sBreakDeadTimeConfig->AutomaticOutput));
  assert_param(IS_TIM_BREAK_AFMODE(sBreakDeadTimeConfig->BreakAFMode));

  /* Check input state */
  __HAL_LOCK(htim);
 8007de6:	687b      	ldr	r3, [r7, #4]
 8007de8:	f893 303c 	ldrb.w	r3, [r3, #60]	@ 0x3c
 8007dec:	2b01      	cmp	r3, #1
 8007dee:	d101      	bne.n	8007df4 <HAL_TIMEx_ConfigBreakDeadTime+0x1c>
 8007df0:	2302      	movs	r3, #2
 8007df2:	e078      	b.n	8007ee6 <HAL_TIMEx_ConfigBreakDeadTime+0x10e>
 8007df4:	687b      	ldr	r3, [r7, #4]
 8007df6:	2201      	movs	r2, #1
 8007df8:	f883 203c 	strb.w	r2, [r3, #60]	@ 0x3c

  /* Set the Lock level, the Break enable Bit and the Polarity, the OSSR State,
     the OSSI State, the dead time value and the Automatic Output Enable Bit */

  /* Set the BDTR bits */
  MODIFY_REG(tmpbdtr, TIM_BDTR_DTG, sBreakDeadTimeConfig->DeadTime);
 8007dfc:	68fb      	ldr	r3, [r7, #12]
 8007dfe:	f023 02ff 	bic.w	r2, r3, #255	@ 0xff
 8007e02:	683b      	ldr	r3, [r7, #0]
 8007e04:	68db      	ldr	r3, [r3, #12]
 8007e06:	4313      	orrs	r3, r2
 8007e08:	60fb      	str	r3, [r7, #12]
  MODIFY_REG(tmpbdtr, TIM_BDTR_LOCK, sBreakDeadTimeConfig->LockLevel);
 8007e0a:	68fb      	ldr	r3, [r7, #12]
 8007e0c:	f423 7240 	bic.w	r2, r3, #768	@ 0x300
 8007e10:	683b      	ldr	r3, [r7, #0]
 8007e12:	689b      	ldr	r3, [r3, #8]
 8007e14:	4313      	orrs	r3, r2
 8007e16:	60fb      	str	r3, [r7, #12]
  MODIFY_REG(tmpbdtr, TIM_BDTR_OSSI, sBreakDeadTimeConfig->OffStateIDLEMode);
 8007e18:	68fb      	ldr	r3, [r7, #12]
 8007e1a:	f423 6280 	bic.w	r2, r3, #1024	@ 0x400
 8007e1e:	683b      	ldr	r3, [r7, #0]
 8007e20:	685b      	ldr	r3, [r3, #4]
 8007e22:	4313      	orrs	r3, r2
 8007e24:	60fb      	str	r3, [r7, #12]
  MODIFY_REG(tmpbdtr, TIM_BDTR_OSSR, sBreakDeadTimeConfig->OffStateRunMode);
 8007e26:	68fb      	ldr	r3, [r7, #12]
 8007e28:	f423 6200 	bic.w	r2, r3, #2048	@ 0x800
 8007e2c:	683b      	ldr	r3, [r7, #0]
 8007e2e:	681b      	ldr	r3, [r3, #0]
 8007e30:	4313      	orrs	r3, r2
 8007e32:	60fb      	str	r3, [r7, #12]
  MODIFY_REG(tmpbdtr, TIM_BDTR_BKE, sBreakDeadTimeConfig->BreakState);
 8007e34:	68fb      	ldr	r3, [r7, #12]
 8007e36:	f423 5280 	bic.w	r2, r3, #4096	@ 0x1000
 8007e3a:	683b      	ldr	r3, [r7, #0]
 8007e3c:	691b      	ldr	r3, [r3, #16]
 8007e3e:	4313      	orrs	r3, r2
 8007e40:	60fb      	str	r3, [r7, #12]
  MODIFY_REG(tmpbdtr, TIM_BDTR_BKP, sBreakDeadTimeConfig->BreakPolarity);
 8007e42:	68fb      	ldr	r3, [r7, #12]
 8007e44:	f423 5200 	bic.w	r2, r3, #8192	@ 0x2000
 8007e48:	683b      	ldr	r3, [r7, #0]
 8007e4a:	695b      	ldr	r3, [r3, #20]
 8007e4c:	4313      	orrs	r3, r2
 8007e4e:	60fb      	str	r3, [r7, #12]
  MODIFY_REG(tmpbdtr, TIM_BDTR_AOE, sBreakDeadTimeConfig->AutomaticOutput);
 8007e50:	68fb      	ldr	r3, [r7, #12]
 8007e52:	f423 4280 	bic.w	r2, r3, #16384	@ 0x4000
 8007e56:	683b      	ldr	r3, [r7, #0]
 8007e58:	6b1b      	ldr	r3, [r3, #48]	@ 0x30
 8007e5a:	4313      	orrs	r3, r2
 8007e5c:	60fb      	str	r3, [r7, #12]
  MODIFY_REG(tmpbdtr, TIM_BDTR_BKF, (sBreakDeadTimeConfig->BreakFilter << TIM_BDTR_BKF_Pos));
 8007e5e:	68fb      	ldr	r3, [r7, #12]
 8007e60:	f423 2270 	bic.w	r2, r3, #983040	@ 0xf0000
 8007e64:	683b      	ldr	r3, [r7, #0]
 8007e66:	699b      	ldr	r3, [r3, #24]
 8007e68:	041b      	lsls	r3, r3, #16
 8007e6a:	4313      	orrs	r3, r2
 8007e6c:	60fb      	str	r3, [r7, #12]
  MODIFY_REG(tmpbdtr, TIM_BDTR_BKBID, sBreakDeadTimeConfig->BreakAFMode);
 8007e6e:	68fb      	ldr	r3, [r7, #12]
 8007e70:	f023 5280 	bic.w	r2, r3, #268435456	@ 0x10000000
 8007e74:	683b      	ldr	r3, [r7, #0]
 8007e76:	69db      	ldr	r3, [r3, #28]
 8007e78:	4313      	orrs	r3, r2
 8007e7a:	60fb      	str	r3, [r7, #12]

  if (IS_TIM_BKIN2_INSTANCE(htim->Instance))
 8007e7c:	687b      	ldr	r3, [r7, #4]
 8007e7e:	681b      	ldr	r3, [r3, #0]
 8007e80:	4a1c      	ldr	r2, [pc, #112]	@ (8007ef4 <HAL_TIMEx_ConfigBreakDeadTime+0x11c>)
 8007e82:	4293      	cmp	r3, r2
 8007e84:	d009      	beq.n	8007e9a <HAL_TIMEx_ConfigBreakDeadTime+0xc2>
 8007e86:	687b      	ldr	r3, [r7, #4]
 8007e88:	681b      	ldr	r3, [r3, #0]
 8007e8a:	4a1b      	ldr	r2, [pc, #108]	@ (8007ef8 <HAL_TIMEx_ConfigBreakDeadTime+0x120>)
 8007e8c:	4293      	cmp	r3, r2
 8007e8e:	d004      	beq.n	8007e9a <HAL_TIMEx_ConfigBreakDeadTime+0xc2>
 8007e90:	687b      	ldr	r3, [r7, #4]
 8007e92:	681b      	ldr	r3, [r3, #0]
 8007e94:	4a19      	ldr	r2, [pc, #100]	@ (8007efc <HAL_TIMEx_ConfigBreakDeadTime+0x124>)
 8007e96:	4293      	cmp	r3, r2
 8007e98:	d11c      	bne.n	8007ed4 <HAL_TIMEx_ConfigBreakDeadTime+0xfc>
    assert_param(IS_TIM_BREAK2_POLARITY(sBreakDeadTimeConfig->Break2Polarity));
    assert_param(IS_TIM_BREAK_FILTER(sBreakDeadTimeConfig->Break2Filter));
    assert_param(IS_TIM_BREAK2_AFMODE(sBreakDeadTimeConfig->Break2AFMode));

    /* Set the BREAK2 input related BDTR bits */
    MODIFY_REG(tmpbdtr, TIM_BDTR_BK2F, (sBreakDeadTimeConfig->Break2Filter << TIM_BDTR_BK2F_Pos));
 8007e9a:	68fb      	ldr	r3, [r7, #12]
 8007e9c:	f423 0270 	bic.w	r2, r3, #15728640	@ 0xf00000
 8007ea0:	683b      	ldr	r3, [r7, #0]
 8007ea2:	6a9b      	ldr	r3, [r3, #40]	@ 0x28
 8007ea4:	051b      	lsls	r3, r3, #20
 8007ea6:	4313      	orrs	r3, r2
 8007ea8:	60fb      	str	r3, [r7, #12]
    MODIFY_REG(tmpbdtr, TIM_BDTR_BK2E, sBreakDeadTimeConfig->Break2State);
 8007eaa:	68fb      	ldr	r3, [r7, #12]
 8007eac:	f023 7280 	bic.w	r2, r3, #16777216	@ 0x1000000
 8007eb0:	683b      	ldr	r3, [r7, #0]
 8007eb2:	6a1b      	ldr	r3, [r3, #32]
 8007eb4:	4313      	orrs	r3, r2
 8007eb6:	60fb      	str	r3, [r7, #12]
    MODIFY_REG(tmpbdtr, TIM_BDTR_BK2P, sBreakDeadTimeConfig->Break2Polarity);
 8007eb8:	68fb      	ldr	r3, [r7, #12]
 8007eba:	f023 7200 	bic.w	r2, r3, #33554432	@ 0x2000000
 8007ebe:	683b      	ldr	r3, [r7, #0]
 8007ec0:	6a5b      	ldr	r3, [r3, #36]	@ 0x24
 8007ec2:	4313      	orrs	r3, r2
 8007ec4:	60fb      	str	r3, [r7, #12]
    MODIFY_REG(tmpbdtr, TIM_BDTR_BK2BID, sBreakDeadTimeConfig->Break2AFMode);
 8007ec6:	68fb      	ldr	r3, [r7, #12]
 8007ec8:	f023 5200 	bic.w	r2, r3, #536870912	@ 0x20000000
 8007ecc:	683b      	ldr	r3, [r7, #0]
 8007ece:	6adb      	ldr	r3, [r3, #44]	@ 0x2c
 8007ed0:	4313      	orrs	r3, r2
 8007ed2:	60fb      	str	r3, [r7, #12]
  }

  /* Set TIMx_BDTR */
  htim->Instance->BDTR = tmpbdtr;
 8007ed4:	687b      	ldr	r3, [r7, #4]
 8007ed6:	681b      	ldr	r3, [r3, #0]
 8007ed8:	68fa      	ldr	r2, [r7, #12]
 8007eda:	645a      	str	r2, [r3, #68]	@ 0x44

  __HAL_UNLOCK(htim);
 8007edc:	687b      	ldr	r3, [r7, #4]
 8007ede:	2200      	movs	r2, #0
 8007ee0:	f883 203c 	strb.w	r2, [r3, #60]	@ 0x3c

  return HAL_OK;
 8007ee4:	2300      	movs	r3, #0
}
 8007ee6:	4618      	mov	r0, r3
 8007ee8:	3714      	adds	r7, #20
 8007eea:	46bd      	mov	sp, r7
 8007eec:	f85d 7b04 	ldr.w	r7, [sp], #4
 8007ef0:	4770      	bx	lr
 8007ef2:	bf00      	nop
 8007ef4:	40012c00 	.word	0x40012c00
 8007ef8:	40013400 	.word	0x40013400
 8007efc:	40015000 	.word	0x40015000

08007f00 <TIM_CCxNChannelCmd>:
  * @param  ChannelNState specifies the TIM Channel CCxNE bit new state.
  *          This parameter can be: TIM_CCxN_ENABLE or TIM_CCxN_Disable.
  * @retval None
  */
static void TIM_CCxNChannelCmd(TIM_TypeDef *TIMx, uint32_t Channel, uint32_t ChannelNState)
{
 8007f00:	b480      	push	{r7}
 8007f02:	b087      	sub	sp, #28
 8007f04:	af00      	add	r7, sp, #0
 8007f06:	60f8      	str	r0, [r7, #12]
 8007f08:	60b9      	str	r1, [r7, #8]
 8007f0a:	607a      	str	r2, [r7, #4]
  uint32_t tmp;

  tmp = TIM_CCER_CC1NE << (Channel & 0xFU); /* 0xFU = 15 bits max shift */
 8007f0c:	68bb      	ldr	r3, [r7, #8]
 8007f0e:	f003 030f 	and.w	r3, r3, #15
 8007f12:	2204      	movs	r2, #4
 8007f14:	fa02 f303 	lsl.w	r3, r2, r3
 8007f18:	617b      	str	r3, [r7, #20]

  /* Reset the CCxNE Bit */
  TIMx->CCER &=  ~tmp;
 8007f1a:	68fb      	ldr	r3, [r7, #12]
 8007f1c:	6a1a      	ldr	r2, [r3, #32]
 8007f1e:	697b      	ldr	r3, [r7, #20]
 8007f20:	43db      	mvns	r3, r3
 8007f22:	401a      	ands	r2, r3
 8007f24:	68fb      	ldr	r3, [r7, #12]
 8007f26:	621a      	str	r2, [r3, #32]

  /* Set or reset the CCxNE Bit */
  TIMx->CCER |= (uint32_t)(ChannelNState << (Channel & 0xFU)); /* 0xFU = 15 bits max shift */
 8007f28:	68fb      	ldr	r3, [r7, #12]
 8007f2a:	6a1a      	ldr	r2, [r3, #32]
 8007f2c:	68bb      	ldr	r3, [r7, #8]
 8007f2e:	f003 030f 	and.w	r3, r3, #15
 8007f32:	6879      	ldr	r1, [r7, #4]
 8007f34:	fa01 f303 	lsl.w	r3, r1, r3
 8007f38:	431a      	orrs	r2, r3
 8007f3a:	68fb      	ldr	r3, [r7, #12]
 8007f3c:	621a      	str	r2, [r3, #32]
}
 8007f3e:	bf00      	nop
 8007f40:	371c      	adds	r7, #28
 8007f42:	46bd      	mov	sp, r7
 8007f44:	f85d 7b04 	ldr.w	r7, [sp], #4
 8007f48:	4770      	bx	lr

08007f4a <USB_DisableGlobalInt>:
  *         Disable the controller's Global Int in the AHB Config reg
  * @param  USBx Selected device
  * @retval HAL status
  */
HAL_StatusTypeDef USB_DisableGlobalInt(USB_TypeDef *USBx)
{
 8007f4a:	b480      	push	{r7}
 8007f4c:	b085      	sub	sp, #20
 8007f4e:	af00      	add	r7, sp, #0
 8007f50:	6078      	str	r0, [r7, #4]
  uint32_t winterruptmask;

  /* Set winterruptmask variable */
  winterruptmask = USB_CNTR_CTRM  | USB_CNTR_WKUPM |
 8007f52:	f64b 7380 	movw	r3, #49024	@ 0xbf80
 8007f56:	60fb      	str	r3, [r7, #12]
                   USB_CNTR_SUSPM | USB_CNTR_ERRM |
                   USB_CNTR_SOFM | USB_CNTR_ESOFM |
                   USB_CNTR_RESETM | USB_CNTR_L1REQM;

  /* Clear interrupt mask */
  USBx->CNTR &= (uint16_t)(~winterruptmask);
 8007f58:	687b      	ldr	r3, [r7, #4]
 8007f5a:	f8b3 3040 	ldrh.w	r3, [r3, #64]	@ 0x40
 8007f5e:	b29a      	uxth	r2, r3
 8007f60:	68fb      	ldr	r3, [r7, #12]
 8007f62:	b29b      	uxth	r3, r3
 8007f64:	43db      	mvns	r3, r3
 8007f66:	b29b      	uxth	r3, r3
 8007f68:	4013      	ands	r3, r2
 8007f6a:	b29a      	uxth	r2, r3
 8007f6c:	687b      	ldr	r3, [r7, #4]
 8007f6e:	f8a3 2040 	strh.w	r2, [r3, #64]	@ 0x40

  return HAL_OK;
 8007f72:	2300      	movs	r3, #0
}
 8007f74:	4618      	mov	r0, r3
 8007f76:	3714      	adds	r7, #20
 8007f78:	46bd      	mov	sp, r7
 8007f7a:	f85d 7b04 	ldr.w	r7, [sp], #4
 8007f7e:	4770      	bx	lr

08007f80 <USB_DevInit>:
  * @param  cfg  pointer to a USB_CfgTypeDef structure that contains
  *         the configuration information for the specified USBx peripheral.
  * @retval HAL status
  */
HAL_StatusTypeDef USB_DevInit(USB_TypeDef *USBx, USB_CfgTypeDef cfg)
{
 8007f80:	b480      	push	{r7}
 8007f82:	b085      	sub	sp, #20
 8007f84:	af00      	add	r7, sp, #0
 8007f86:	60f8      	str	r0, [r7, #12]
 8007f88:	1d3b      	adds	r3, r7, #4
 8007f8a:	e883 0006 	stmia.w	r3, {r1, r2}
  /* Prevent unused argument(s) compilation warning */
  UNUSED(cfg);

  /* Init Device */
  /* CNTR_FRES = 1 */
  USBx->CNTR = (uint16_t)USB_CNTR_FRES;
 8007f8e:	68fb      	ldr	r3, [r7, #12]
 8007f90:	2201      	movs	r2, #1
 8007f92:	f8a3 2040 	strh.w	r2, [r3, #64]	@ 0x40

  /* CNTR_FRES = 0 */
  USBx->CNTR = 0U;
 8007f96:	68fb      	ldr	r3, [r7, #12]
 8007f98:	2200      	movs	r2, #0
 8007f9a:	f8a3 2040 	strh.w	r2, [r3, #64]	@ 0x40

  /* Clear pending interrupts */
  USBx->ISTR = 0U;
 8007f9e:	68fb      	ldr	r3, [r7, #12]
 8007fa0:	2200      	movs	r2, #0
 8007fa2:	f8a3 2044 	strh.w	r2, [r3, #68]	@ 0x44

  /*Set Btable Address*/
  USBx->BTABLE = BTABLE_ADDRESS;
 8007fa6:	68fb      	ldr	r3, [r7, #12]
 8007fa8:	2200      	movs	r2, #0
 8007faa:	f8a3 2050 	strh.w	r2, [r3, #80]	@ 0x50

  return HAL_OK;
 8007fae:	2300      	movs	r3, #0
}
 8007fb0:	4618      	mov	r0, r3
 8007fb2:	3714      	adds	r7, #20
 8007fb4:	46bd      	mov	sp, r7
 8007fb6:	f85d 7b04 	ldr.w	r7, [sp], #4
 8007fba:	4770      	bx	lr

08007fbc <memset>:
 8007fbc:	4402      	add	r2, r0
 8007fbe:	4603      	mov	r3, r0
 8007fc0:	4293      	cmp	r3, r2
 8007fc2:	d100      	bne.n	8007fc6 <memset+0xa>
 8007fc4:	4770      	bx	lr
 8007fc6:	f803 1b01 	strb.w	r1, [r3], #1
 8007fca:	e7f9      	b.n	8007fc0 <memset+0x4>

08007fcc <__errno>:
 8007fcc:	4b01      	ldr	r3, [pc, #4]	@ (8007fd4 <__errno+0x8>)
 8007fce:	6818      	ldr	r0, [r3, #0]
 8007fd0:	4770      	bx	lr
 8007fd2:	bf00      	nop
 8007fd4:	20000014 	.word	0x20000014

08007fd8 <__libc_init_array>:
 8007fd8:	b570      	push	{r4, r5, r6, lr}
 8007fda:	4d0d      	ldr	r5, [pc, #52]	@ (8008010 <__libc_init_array+0x38>)
 8007fdc:	4c0d      	ldr	r4, [pc, #52]	@ (8008014 <__libc_init_array+0x3c>)
 8007fde:	1b64      	subs	r4, r4, r5
 8007fe0:	10a4      	asrs	r4, r4, #2
 8007fe2:	2600      	movs	r6, #0
 8007fe4:	42a6      	cmp	r6, r4
 8007fe6:	d109      	bne.n	8007ffc <__libc_init_array+0x24>
 8007fe8:	4d0b      	ldr	r5, [pc, #44]	@ (8008018 <__libc_init_array+0x40>)
 8007fea:	4c0c      	ldr	r4, [pc, #48]	@ (800801c <__libc_init_array+0x44>)
 8007fec:	f000 f94e 	bl	800828c <_init>
 8007ff0:	1b64      	subs	r4, r4, r5
 8007ff2:	10a4      	asrs	r4, r4, #2
 8007ff4:	2600      	movs	r6, #0
 8007ff6:	42a6      	cmp	r6, r4
 8007ff8:	d105      	bne.n	8008006 <__libc_init_array+0x2e>
 8007ffa:	bd70      	pop	{r4, r5, r6, pc}
 8007ffc:	f855 3b04 	ldr.w	r3, [r5], #4
 8008000:	4798      	blx	r3
 8008002:	3601      	adds	r6, #1
 8008004:	e7ee      	b.n	8007fe4 <__libc_init_array+0xc>
 8008006:	f855 3b04 	ldr.w	r3, [r5], #4
 800800a:	4798      	blx	r3
 800800c:	3601      	adds	r6, #1
 800800e:	e7f2      	b.n	8007ff6 <__libc_init_array+0x1e>
 8008010:	080082d8 	.word	0x080082d8
 8008014:	080082d8 	.word	0x080082d8
 8008018:	080082d8 	.word	0x080082d8
 800801c:	080082dc 	.word	0x080082dc

08008020 <fmod>:
 8008020:	b5f8      	push	{r3, r4, r5, r6, r7, lr}
 8008022:	ed2d 8b02 	vpush	{d8}
 8008026:	ec57 6b10 	vmov	r6, r7, d0
 800802a:	ec55 4b11 	vmov	r4, r5, d1
 800802e:	f000 f825 	bl	800807c <__ieee754_fmod>
 8008032:	4622      	mov	r2, r4
 8008034:	462b      	mov	r3, r5
 8008036:	4630      	mov	r0, r6
 8008038:	4639      	mov	r1, r7
 800803a:	eeb0 8a40 	vmov.f32	s16, s0
 800803e:	eef0 8a60 	vmov.f32	s17, s1
 8008042:	f7f8 fd3f 	bl	8000ac4 <__aeabi_dcmpun>
 8008046:	b990      	cbnz	r0, 800806e <fmod+0x4e>
 8008048:	2200      	movs	r2, #0
 800804a:	2300      	movs	r3, #0
 800804c:	4620      	mov	r0, r4
 800804e:	4629      	mov	r1, r5
 8008050:	f7f8 fd06 	bl	8000a60 <__aeabi_dcmpeq>
 8008054:	b158      	cbz	r0, 800806e <fmod+0x4e>
 8008056:	f7ff ffb9 	bl	8007fcc <__errno>
 800805a:	2321      	movs	r3, #33	@ 0x21
 800805c:	6003      	str	r3, [r0, #0]
 800805e:	2200      	movs	r2, #0
 8008060:	2300      	movs	r3, #0
 8008062:	4610      	mov	r0, r2
 8008064:	4619      	mov	r1, r3
 8008066:	f7f8 fbbd 	bl	80007e4 <__aeabi_ddiv>
 800806a:	ec41 0b18 	vmov	d8, r0, r1
 800806e:	eeb0 0a48 	vmov.f32	s0, s16
 8008072:	eef0 0a68 	vmov.f32	s1, s17
 8008076:	ecbd 8b02 	vpop	{d8}
 800807a:	bdf8      	pop	{r3, r4, r5, r6, r7, pc}

0800807c <__ieee754_fmod>:
 800807c:	ec53 2b11 	vmov	r2, r3, d1
 8008080:	e92d 47f0 	stmdb	sp!, {r4, r5, r6, r7, r8, r9, sl, lr}
 8008084:	f023 4800 	bic.w	r8, r3, #2147483648	@ 0x80000000
 8008088:	ea52 0408 	orrs.w	r4, r2, r8
 800808c:	ec51 0b10 	vmov	r0, r1, d0
 8008090:	461e      	mov	r6, r3
 8008092:	4696      	mov	lr, r2
 8008094:	4694      	mov	ip, r2
 8008096:	d00c      	beq.n	80080b2 <__ieee754_fmod+0x36>
 8008098:	4d76      	ldr	r5, [pc, #472]	@ (8008274 <__ieee754_fmod+0x1f8>)
 800809a:	f021 4900 	bic.w	r9, r1, #2147483648	@ 0x80000000
 800809e:	45a9      	cmp	r9, r5
 80080a0:	460c      	mov	r4, r1
 80080a2:	d806      	bhi.n	80080b2 <__ieee754_fmod+0x36>
 80080a4:	4255      	negs	r5, r2
 80080a6:	4f74      	ldr	r7, [pc, #464]	@ (8008278 <__ieee754_fmod+0x1fc>)
 80080a8:	4315      	orrs	r5, r2
 80080aa:	ea48 75d5 	orr.w	r5, r8, r5, lsr #31
 80080ae:	42bd      	cmp	r5, r7
 80080b0:	d909      	bls.n	80080c6 <__ieee754_fmod+0x4a>
 80080b2:	f7f8 fa6d 	bl	8000590 <__aeabi_dmul>
 80080b6:	4602      	mov	r2, r0
 80080b8:	460b      	mov	r3, r1
 80080ba:	f7f8 fb93 	bl	80007e4 <__aeabi_ddiv>
 80080be:	ec41 0b10 	vmov	d0, r0, r1
 80080c2:	e8bd 87f0 	ldmia.w	sp!, {r4, r5, r6, r7, r8, r9, sl, pc}
 80080c6:	45c1      	cmp	r9, r8
 80080c8:	4682      	mov	sl, r0
 80080ca:	4607      	mov	r7, r0
 80080cc:	f001 4500 	and.w	r5, r1, #2147483648	@ 0x80000000
 80080d0:	dc09      	bgt.n	80080e6 <__ieee754_fmod+0x6a>
 80080d2:	dbf4      	blt.n	80080be <__ieee754_fmod+0x42>
 80080d4:	4282      	cmp	r2, r0
 80080d6:	d8f2      	bhi.n	80080be <__ieee754_fmod+0x42>
 80080d8:	d105      	bne.n	80080e6 <__ieee754_fmod+0x6a>
 80080da:	4b68      	ldr	r3, [pc, #416]	@ (800827c <__ieee754_fmod+0x200>)
 80080dc:	eb03 7315 	add.w	r3, r3, r5, lsr #28
 80080e0:	e9d3 0100 	ldrd	r0, r1, [r3]
 80080e4:	e7eb      	b.n	80080be <__ieee754_fmod+0x42>
 80080e6:	4964      	ldr	r1, [pc, #400]	@ (8008278 <__ieee754_fmod+0x1fc>)
 80080e8:	420c      	tst	r4, r1
 80080ea:	d148      	bne.n	800817e <__ieee754_fmod+0x102>
 80080ec:	f1b9 0f00 	cmp.w	r9, #0
 80080f0:	d13d      	bne.n	800816e <__ieee754_fmod+0xf2>
 80080f2:	4a63      	ldr	r2, [pc, #396]	@ (8008280 <__ieee754_fmod+0x204>)
 80080f4:	4653      	mov	r3, sl
 80080f6:	2b00      	cmp	r3, #0
 80080f8:	dc36      	bgt.n	8008168 <__ieee754_fmod+0xec>
 80080fa:	420e      	tst	r6, r1
 80080fc:	d14f      	bne.n	800819e <__ieee754_fmod+0x122>
 80080fe:	f1b8 0f00 	cmp.w	r8, #0
 8008102:	d144      	bne.n	800818e <__ieee754_fmod+0x112>
 8008104:	4b5e      	ldr	r3, [pc, #376]	@ (8008280 <__ieee754_fmod+0x204>)
 8008106:	4671      	mov	r1, lr
 8008108:	2900      	cmp	r1, #0
 800810a:	dc3d      	bgt.n	8008188 <__ieee754_fmod+0x10c>
 800810c:	485d      	ldr	r0, [pc, #372]	@ (8008284 <__ieee754_fmod+0x208>)
 800810e:	4282      	cmp	r2, r0
 8008110:	db4a      	blt.n	80081a8 <__ieee754_fmod+0x12c>
 8008112:	f3c4 0113 	ubfx	r1, r4, #0, #20
 8008116:	f441 1180 	orr.w	r1, r1, #1048576	@ 0x100000
 800811a:	485a      	ldr	r0, [pc, #360]	@ (8008284 <__ieee754_fmod+0x208>)
 800811c:	4283      	cmp	r3, r0
 800811e:	db57      	blt.n	80081d0 <__ieee754_fmod+0x154>
 8008120:	f3c6 0613 	ubfx	r6, r6, #0, #20
 8008124:	f446 1680 	orr.w	r6, r6, #1048576	@ 0x100000
 8008128:	1ad0      	subs	r0, r2, r3
 800812a:	1b8a      	subs	r2, r1, r6
 800812c:	eba7 040c 	sub.w	r4, r7, ip
 8008130:	2800      	cmp	r0, #0
 8008132:	d162      	bne.n	80081fa <__ieee754_fmod+0x17e>
 8008134:	4567      	cmp	r7, ip
 8008136:	bf38      	it	cc
 8008138:	f102 32ff 	addcc.w	r2, r2, #4294967295
 800813c:	2a00      	cmp	r2, #0
 800813e:	bfbc      	itt	lt
 8008140:	463c      	movlt	r4, r7
 8008142:	460a      	movlt	r2, r1
 8008144:	ea52 0104 	orrs.w	r1, r2, r4
 8008148:	d0c7      	beq.n	80080da <__ieee754_fmod+0x5e>
 800814a:	f5b2 1f80 	cmp.w	r2, #1048576	@ 0x100000
 800814e:	db69      	blt.n	8008224 <__ieee754_fmod+0x1a8>
 8008150:	494c      	ldr	r1, [pc, #304]	@ (8008284 <__ieee754_fmod+0x208>)
 8008152:	428b      	cmp	r3, r1
 8008154:	db6c      	blt.n	8008230 <__ieee754_fmod+0x1b4>
 8008156:	f5a2 1280 	sub.w	r2, r2, #1048576	@ 0x100000
 800815a:	432a      	orrs	r2, r5
 800815c:	f203 33ff 	addw	r3, r3, #1023	@ 0x3ff
 8008160:	ea42 5103 	orr.w	r1, r2, r3, lsl #20
 8008164:	4620      	mov	r0, r4
 8008166:	e7aa      	b.n	80080be <__ieee754_fmod+0x42>
 8008168:	3a01      	subs	r2, #1
 800816a:	005b      	lsls	r3, r3, #1
 800816c:	e7c3      	b.n	80080f6 <__ieee754_fmod+0x7a>
 800816e:	4a45      	ldr	r2, [pc, #276]	@ (8008284 <__ieee754_fmod+0x208>)
 8008170:	ea4f 23c9 	mov.w	r3, r9, lsl #11
 8008174:	2b00      	cmp	r3, #0
 8008176:	ddc0      	ble.n	80080fa <__ieee754_fmod+0x7e>
 8008178:	3a01      	subs	r2, #1
 800817a:	005b      	lsls	r3, r3, #1
 800817c:	e7fa      	b.n	8008174 <__ieee754_fmod+0xf8>
 800817e:	ea4f 5229 	mov.w	r2, r9, asr #20
 8008182:	f2a2 32ff 	subw	r2, r2, #1023	@ 0x3ff
 8008186:	e7b8      	b.n	80080fa <__ieee754_fmod+0x7e>
 8008188:	3b01      	subs	r3, #1
 800818a:	0049      	lsls	r1, r1, #1
 800818c:	e7bc      	b.n	8008108 <__ieee754_fmod+0x8c>
 800818e:	4b3d      	ldr	r3, [pc, #244]	@ (8008284 <__ieee754_fmod+0x208>)
 8008190:	ea4f 21c8 	mov.w	r1, r8, lsl #11
 8008194:	2900      	cmp	r1, #0
 8008196:	ddb9      	ble.n	800810c <__ieee754_fmod+0x90>
 8008198:	3b01      	subs	r3, #1
 800819a:	0049      	lsls	r1, r1, #1
 800819c:	e7fa      	b.n	8008194 <__ieee754_fmod+0x118>
 800819e:	ea4f 5328 	mov.w	r3, r8, asr #20
 80081a2:	f2a3 33ff 	subw	r3, r3, #1023	@ 0x3ff
 80081a6:	e7b1      	b.n	800810c <__ieee754_fmod+0x90>
 80081a8:	1a80      	subs	r0, r0, r2
 80081aa:	281f      	cmp	r0, #31
 80081ac:	dc0a      	bgt.n	80081c4 <__ieee754_fmod+0x148>
 80081ae:	f202 411e 	addw	r1, r2, #1054	@ 0x41e
 80081b2:	fa09 f900 	lsl.w	r9, r9, r0
 80081b6:	fa2a f101 	lsr.w	r1, sl, r1
 80081ba:	ea41 0109 	orr.w	r1, r1, r9
 80081be:	fa0a f700 	lsl.w	r7, sl, r0
 80081c2:	e7aa      	b.n	800811a <__ieee754_fmod+0x9e>
 80081c4:	4930      	ldr	r1, [pc, #192]	@ (8008288 <__ieee754_fmod+0x20c>)
 80081c6:	1a89      	subs	r1, r1, r2
 80081c8:	fa0a f101 	lsl.w	r1, sl, r1
 80081cc:	2700      	movs	r7, #0
 80081ce:	e7a4      	b.n	800811a <__ieee754_fmod+0x9e>
 80081d0:	1ac0      	subs	r0, r0, r3
 80081d2:	281f      	cmp	r0, #31
 80081d4:	dc0a      	bgt.n	80081ec <__ieee754_fmod+0x170>
 80081d6:	f203 461e 	addw	r6, r3, #1054	@ 0x41e
 80081da:	fa08 f800 	lsl.w	r8, r8, r0
 80081de:	fa2e f606 	lsr.w	r6, lr, r6
 80081e2:	ea46 0608 	orr.w	r6, r6, r8
 80081e6:	fa0e fc00 	lsl.w	ip, lr, r0
 80081ea:	e79d      	b.n	8008128 <__ieee754_fmod+0xac>
 80081ec:	4e26      	ldr	r6, [pc, #152]	@ (8008288 <__ieee754_fmod+0x20c>)
 80081ee:	1af6      	subs	r6, r6, r3
 80081f0:	fa0e f606 	lsl.w	r6, lr, r6
 80081f4:	f04f 0c00 	mov.w	ip, #0
 80081f8:	e796      	b.n	8008128 <__ieee754_fmod+0xac>
 80081fa:	4567      	cmp	r7, ip
 80081fc:	bf38      	it	cc
 80081fe:	f102 32ff 	addcc.w	r2, r2, #4294967295
 8008202:	2a00      	cmp	r2, #0
 8008204:	da05      	bge.n	8008212 <__ieee754_fmod+0x196>
 8008206:	0ffa      	lsrs	r2, r7, #31
 8008208:	eb02 0141 	add.w	r1, r2, r1, lsl #1
 800820c:	007f      	lsls	r7, r7, #1
 800820e:	3801      	subs	r0, #1
 8008210:	e78b      	b.n	800812a <__ieee754_fmod+0xae>
 8008212:	ea52 0104 	orrs.w	r1, r2, r4
 8008216:	f43f af60 	beq.w	80080da <__ieee754_fmod+0x5e>
 800821a:	0fe1      	lsrs	r1, r4, #31
 800821c:	eb01 0142 	add.w	r1, r1, r2, lsl #1
 8008220:	0067      	lsls	r7, r4, #1
 8008222:	e7f4      	b.n	800820e <__ieee754_fmod+0x192>
 8008224:	0fe1      	lsrs	r1, r4, #31
 8008226:	eb01 0242 	add.w	r2, r1, r2, lsl #1
 800822a:	0064      	lsls	r4, r4, #1
 800822c:	3b01      	subs	r3, #1
 800822e:	e78c      	b.n	800814a <__ieee754_fmod+0xce>
 8008230:	1ac9      	subs	r1, r1, r3
 8008232:	2914      	cmp	r1, #20
 8008234:	dc0a      	bgt.n	800824c <__ieee754_fmod+0x1d0>
 8008236:	f203 431e 	addw	r3, r3, #1054	@ 0x41e
 800823a:	fa02 f303 	lsl.w	r3, r2, r3
 800823e:	40cc      	lsrs	r4, r1
 8008240:	4323      	orrs	r3, r4
 8008242:	410a      	asrs	r2, r1
 8008244:	ea42 0105 	orr.w	r1, r2, r5
 8008248:	4618      	mov	r0, r3
 800824a:	e738      	b.n	80080be <__ieee754_fmod+0x42>
 800824c:	291f      	cmp	r1, #31
 800824e:	dc07      	bgt.n	8008260 <__ieee754_fmod+0x1e4>
 8008250:	f203 431e 	addw	r3, r3, #1054	@ 0x41e
 8008254:	40cc      	lsrs	r4, r1
 8008256:	fa02 f303 	lsl.w	r3, r2, r3
 800825a:	4323      	orrs	r3, r4
 800825c:	462a      	mov	r2, r5
 800825e:	e7f1      	b.n	8008244 <__ieee754_fmod+0x1c8>
 8008260:	f1c3 437f 	rsb	r3, r3, #4278190080	@ 0xff000000
 8008264:	f503 037f 	add.w	r3, r3, #16711680	@ 0xff0000
 8008268:	f503 437b 	add.w	r3, r3, #64256	@ 0xfb00
 800826c:	33e2      	adds	r3, #226	@ 0xe2
 800826e:	fa42 f303 	asr.w	r3, r2, r3
 8008272:	e7f3      	b.n	800825c <__ieee754_fmod+0x1e0>
 8008274:	7fefffff 	.word	0x7fefffff
 8008278:	7ff00000 	.word	0x7ff00000
 800827c:	080082c8 	.word	0x080082c8
 8008280:	fffffbed 	.word	0xfffffbed
 8008284:	fffffc02 	.word	0xfffffc02
 8008288:	fffffbe2 	.word	0xfffffbe2

0800828c <_init>:
 800828c:	b5f8      	push	{r3, r4, r5, r6, r7, lr}
 800828e:	bf00      	nop
 8008290:	bcf8      	pop	{r3, r4, r5, r6, r7}
 8008292:	bc08      	pop	{r3}
 8008294:	469e      	mov	lr, r3
 8008296:	4770      	bx	lr

08008298 <_fini>:
 8008298:	b5f8      	push	{r3, r4, r5, r6, r7, lr}
 800829a:	bf00      	nop
 800829c:	bcf8      	pop	{r3, r4, r5, r6, r7}
 800829e:	bc08      	pop	{r3}
 80082a0:	469e      	mov	lr, r3
 80082a2:	4770      	bx	lr
